
Tina_V2.elf:     file format elf32-littlearm

Sections:
Idx Name          Size      VMA       LMA       File off  Algn
  0 .isr_vector   00000138  08000000  08000000  00001000  2**0
                  CONTENTS, ALLOC, LOAD, READONLY, DATA
  1 .text         0000706c  08000140  08000140  00001140  2**4
                  CONTENTS, ALLOC, LOAD, READONLY, CODE
  2 .rodata       00000290  080071ac  080071ac  000081ac  2**2
                  CONTENTS, ALLOC, LOAD, READONLY, DATA
  3 .ARM.extab    00000000  0800743c  0800743c  00009068  2**0
                  CONTENTS
  4 .ARM          00000008  0800743c  0800743c  0000843c  2**2
                  CONTENTS, ALLOC, LOAD, READONLY, DATA
  5 .preinit_array 00000000  08007444  08007444  00009068  2**0
                  CONTENTS, ALLOC, LOAD, DATA
  6 .init_array   00000004  08007444  08007444  00008444  2**2
                  CONTENTS, ALLOC, LOAD, READONLY, DATA
  7 .fini_array   00000004  08007448  08007448  00008448  2**2
                  CONTENTS, ALLOC, LOAD, READONLY, DATA
  8 .data         00000068  20000000  0800744c  00009000  2**2
                  CONTENTS, ALLOC, LOAD, DATA
  9 .bss          0000037c  20000068  080074b4  00009068  2**2
                  ALLOC
 10 ._user_heap_stack 00000604  200003e4  080074b4  000093e4  2**0
                  ALLOC
 11 .ARM.attributes 0000002a  00000000  00000000  00009068  2**0
                  CONTENTS, READONLY
 12 .debug_info   0000fcfe  00000000  00000000  00009092  2**0
                  CONTENTS, READONLY, DEBUGGING, OCTETS
 13 .debug_abbrev 00002fd0  00000000  00000000  00018d90  2**0
                  CONTENTS, READONLY, DEBUGGING, OCTETS
 14 .debug_aranges 00001260  00000000  00000000  0001bd60  2**3
                  CONTENTS, READONLY, DEBUGGING, OCTETS
 15 .debug_rnglists 00000d97  00000000  00000000  0001cfc0  2**0
                  CONTENTS, READONLY, DEBUGGING, OCTETS
 16 .debug_macro  0001bc31  00000000  00000000  0001dd57  2**0
                  CONTENTS, READONLY, DEBUGGING, OCTETS
 17 .debug_line   0001057c  00000000  00000000  00039988  2**0
                  CONTENTS, READONLY, DEBUGGING, OCTETS
 18 .debug_str    000a1558  00000000  00000000  00049f04  2**0
                  CONTENTS, READONLY, DEBUGGING, OCTETS
 19 .comment      00000043  00000000  00000000  000eb45c  2**0
                  CONTENTS, READONLY
 20 .debug_frame  00005174  00000000  00000000  000eb4a0  2**2
                  CONTENTS, READONLY, DEBUGGING, OCTETS
 21 .debug_line_str 00000068  00000000  00000000  000f0614  2**0
                  CONTENTS, READONLY, DEBUGGING, OCTETS

Disassembly of section .text:

08000140 <__do_global_dtors_aux>:
 8000140:	b510      	push	{r4, lr}
 8000142:	4c05      	ldr	r4, [pc, #20]	@ (8000158 <__do_global_dtors_aux+0x18>)
 8000144:	7823      	ldrb	r3, [r4, #0]
 8000146:	b933      	cbnz	r3, 8000156 <__do_global_dtors_aux+0x16>
 8000148:	4b04      	ldr	r3, [pc, #16]	@ (800015c <__do_global_dtors_aux+0x1c>)
 800014a:	b113      	cbz	r3, 8000152 <__do_global_dtors_aux+0x12>
 800014c:	4804      	ldr	r0, [pc, #16]	@ (8000160 <__do_global_dtors_aux+0x20>)
 800014e:	f3af 8000 	nop.w
 8000152:	2301      	movs	r3, #1
 8000154:	7023      	strb	r3, [r4, #0]
 8000156:	bd10      	pop	{r4, pc}
 8000158:	20000068 	.word	0x20000068
 800015c:	00000000 	.word	0x00000000
 8000160:	08007194 	.word	0x08007194

08000164 <frame_dummy>:
 8000164:	b508      	push	{r3, lr}
 8000166:	4b03      	ldr	r3, [pc, #12]	@ (8000174 <frame_dummy+0x10>)
 8000168:	b11b      	cbz	r3, 8000172 <frame_dummy+0xe>
 800016a:	4903      	ldr	r1, [pc, #12]	@ (8000178 <frame_dummy+0x14>)
 800016c:	4803      	ldr	r0, [pc, #12]	@ (800017c <frame_dummy+0x18>)
 800016e:	f3af 8000 	nop.w
 8000172:	bd08      	pop	{r3, pc}
 8000174:	00000000 	.word	0x00000000
 8000178:	2000006c 	.word	0x2000006c
 800017c:	08007194 	.word	0x08007194

08000180 <memchr>:
 8000180:	f001 01ff 	and.w	r1, r1, #255	@ 0xff
 8000184:	2a10      	cmp	r2, #16
 8000186:	db2b      	blt.n	80001e0 <memchr+0x60>
 8000188:	f010 0f07 	tst.w	r0, #7
 800018c:	d008      	beq.n	80001a0 <memchr+0x20>
 800018e:	f810 3b01 	ldrb.w	r3, [r0], #1
 8000192:	3a01      	subs	r2, #1
 8000194:	428b      	cmp	r3, r1
 8000196:	d02d      	beq.n	80001f4 <memchr+0x74>
 8000198:	f010 0f07 	tst.w	r0, #7
 800019c:	b342      	cbz	r2, 80001f0 <memchr+0x70>
 800019e:	d1f6      	bne.n	800018e <memchr+0xe>
 80001a0:	b4f0      	push	{r4, r5, r6, r7}
 80001a2:	ea41 2101 	orr.w	r1, r1, r1, lsl #8
 80001a6:	ea41 4101 	orr.w	r1, r1, r1, lsl #16
 80001aa:	f022 0407 	bic.w	r4, r2, #7
 80001ae:	f07f 0700 	mvns.w	r7, #0
 80001b2:	2300      	movs	r3, #0
 80001b4:	e8f0 5602 	ldrd	r5, r6, [r0], #8
 80001b8:	3c08      	subs	r4, #8
 80001ba:	ea85 0501 	eor.w	r5, r5, r1
 80001be:	ea86 0601 	eor.w	r6, r6, r1
 80001c2:	fa85 f547 	uadd8	r5, r5, r7
 80001c6:	faa3 f587 	sel	r5, r3, r7
 80001ca:	fa86 f647 	uadd8	r6, r6, r7
 80001ce:	faa5 f687 	sel	r6, r5, r7
 80001d2:	b98e      	cbnz	r6, 80001f8 <memchr+0x78>
 80001d4:	d1ee      	bne.n	80001b4 <memchr+0x34>
 80001d6:	bcf0      	pop	{r4, r5, r6, r7}
 80001d8:	f001 01ff 	and.w	r1, r1, #255	@ 0xff
 80001dc:	f002 0207 	and.w	r2, r2, #7
 80001e0:	b132      	cbz	r2, 80001f0 <memchr+0x70>
 80001e2:	f810 3b01 	ldrb.w	r3, [r0], #1
 80001e6:	3a01      	subs	r2, #1
 80001e8:	ea83 0301 	eor.w	r3, r3, r1
 80001ec:	b113      	cbz	r3, 80001f4 <memchr+0x74>
 80001ee:	d1f8      	bne.n	80001e2 <memchr+0x62>
 80001f0:	2000      	movs	r0, #0
 80001f2:	4770      	bx	lr
 80001f4:	3801      	subs	r0, #1
 80001f6:	4770      	bx	lr
 80001f8:	2d00      	cmp	r5, #0
 80001fa:	bf06      	itte	eq
 80001fc:	4635      	moveq	r5, r6
 80001fe:	3803      	subeq	r0, #3
 8000200:	3807      	subne	r0, #7
 8000202:	f015 0f01 	tst.w	r5, #1
 8000206:	d107      	bne.n	8000218 <memchr+0x98>
 8000208:	3001      	adds	r0, #1
 800020a:	f415 7f80 	tst.w	r5, #256	@ 0x100
 800020e:	bf02      	ittt	eq
 8000210:	3001      	addeq	r0, #1
 8000212:	f415 3fc0 	tsteq.w	r5, #98304	@ 0x18000
 8000216:	3001      	addeq	r0, #1
 8000218:	bcf0      	pop	{r4, r5, r6, r7}
 800021a:	3801      	subs	r0, #1
 800021c:	4770      	bx	lr
 800021e:	bf00      	nop

08000220 <__aeabi_uldivmod>:
 8000220:	b953      	cbnz	r3, 8000238 <__aeabi_uldivmod+0x18>
 8000222:	b94a      	cbnz	r2, 8000238 <__aeabi_uldivmod+0x18>
 8000224:	2900      	cmp	r1, #0
 8000226:	bf08      	it	eq
 8000228:	2800      	cmpeq	r0, #0
 800022a:	bf1c      	itt	ne
 800022c:	f04f 31ff 	movne.w	r1, #4294967295	@ 0xffffffff
 8000230:	f04f 30ff 	movne.w	r0, #4294967295	@ 0xffffffff
 8000234:	f000 b96a 	b.w	800050c <__aeabi_idiv0>
 8000238:	f1ad 0c08 	sub.w	ip, sp, #8
 800023c:	e96d ce04 	strd	ip, lr, [sp, #-16]!
 8000240:	f000 f806 	bl	8000250 <__udivmoddi4>
 8000244:	f8dd e004 	ldr.w	lr, [sp, #4]
 8000248:	e9dd 2302 	ldrd	r2, r3, [sp, #8]
 800024c:	b004      	add	sp, #16
 800024e:	4770      	bx	lr

08000250 <__udivmoddi4>:
 8000250:	e92d 47f0 	stmdb	sp!, {r4, r5, r6, r7, r8, r9, sl, lr}
 8000254:	9d08      	ldr	r5, [sp, #32]
 8000256:	460c      	mov	r4, r1
 8000258:	2b00      	cmp	r3, #0
 800025a:	d14e      	bne.n	80002fa <__udivmoddi4+0xaa>
 800025c:	4694      	mov	ip, r2
 800025e:	458c      	cmp	ip, r1
 8000260:	4686      	mov	lr, r0
 8000262:	fab2 f282 	clz	r2, r2
 8000266:	d962      	bls.n	800032e <__udivmoddi4+0xde>
 8000268:	b14a      	cbz	r2, 800027e <__udivmoddi4+0x2e>
 800026a:	f1c2 0320 	rsb	r3, r2, #32
 800026e:	4091      	lsls	r1, r2
 8000270:	fa20 f303 	lsr.w	r3, r0, r3
 8000274:	fa0c fc02 	lsl.w	ip, ip, r2
 8000278:	4319      	orrs	r1, r3
 800027a:	fa00 fe02 	lsl.w	lr, r0, r2
 800027e:	ea4f 471c 	mov.w	r7, ip, lsr #16
 8000282:	fa1f f68c 	uxth.w	r6, ip
 8000286:	fbb1 f4f7 	udiv	r4, r1, r7
 800028a:	ea4f 431e 	mov.w	r3, lr, lsr #16
 800028e:	fb07 1114 	mls	r1, r7, r4, r1
 8000292:	ea43 4301 	orr.w	r3, r3, r1, lsl #16
 8000296:	fb04 f106 	mul.w	r1, r4, r6
 800029a:	4299      	cmp	r1, r3
 800029c:	d90a      	bls.n	80002b4 <__udivmoddi4+0x64>
 800029e:	eb1c 0303 	adds.w	r3, ip, r3
 80002a2:	f104 30ff 	add.w	r0, r4, #4294967295	@ 0xffffffff
 80002a6:	f080 8112 	bcs.w	80004ce <__udivmoddi4+0x27e>
 80002aa:	4299      	cmp	r1, r3
 80002ac:	f240 810f 	bls.w	80004ce <__udivmoddi4+0x27e>
 80002b0:	3c02      	subs	r4, #2
 80002b2:	4463      	add	r3, ip
 80002b4:	1a59      	subs	r1, r3, r1
 80002b6:	fa1f f38e 	uxth.w	r3, lr
 80002ba:	fbb1 f0f7 	udiv	r0, r1, r7
 80002be:	fb07 1110 	mls	r1, r7, r0, r1
 80002c2:	ea43 4301 	orr.w	r3, r3, r1, lsl #16
 80002c6:	fb00 f606 	mul.w	r6, r0, r6
 80002ca:	429e      	cmp	r6, r3
 80002cc:	d90a      	bls.n	80002e4 <__udivmoddi4+0x94>
 80002ce:	eb1c 0303 	adds.w	r3, ip, r3
 80002d2:	f100 31ff 	add.w	r1, r0, #4294967295	@ 0xffffffff
 80002d6:	f080 80fc 	bcs.w	80004d2 <__udivmoddi4+0x282>
 80002da:	429e      	cmp	r6, r3
 80002dc:	f240 80f9 	bls.w	80004d2 <__udivmoddi4+0x282>
 80002e0:	4463      	add	r3, ip
 80002e2:	3802      	subs	r0, #2
 80002e4:	1b9b      	subs	r3, r3, r6
 80002e6:	ea40 4004 	orr.w	r0, r0, r4, lsl #16
 80002ea:	2100      	movs	r1, #0
 80002ec:	b11d      	cbz	r5, 80002f6 <__udivmoddi4+0xa6>
 80002ee:	40d3      	lsrs	r3, r2
 80002f0:	2200      	movs	r2, #0
 80002f2:	e9c5 3200 	strd	r3, r2, [r5]
 80002f6:	e8bd 87f0 	ldmia.w	sp!, {r4, r5, r6, r7, r8, r9, sl, pc}
 80002fa:	428b      	cmp	r3, r1
 80002fc:	d905      	bls.n	800030a <__udivmoddi4+0xba>
 80002fe:	b10d      	cbz	r5, 8000304 <__udivmoddi4+0xb4>
 8000300:	e9c5 0100 	strd	r0, r1, [r5]
 8000304:	2100      	movs	r1, #0
 8000306:	4608      	mov	r0, r1
 8000308:	e7f5      	b.n	80002f6 <__udivmoddi4+0xa6>
 800030a:	fab3 f183 	clz	r1, r3
 800030e:	2900      	cmp	r1, #0
 8000310:	d146      	bne.n	80003a0 <__udivmoddi4+0x150>
 8000312:	42a3      	cmp	r3, r4
 8000314:	d302      	bcc.n	800031c <__udivmoddi4+0xcc>
 8000316:	4290      	cmp	r0, r2
 8000318:	f0c0 80f0 	bcc.w	80004fc <__udivmoddi4+0x2ac>
 800031c:	1a86      	subs	r6, r0, r2
 800031e:	eb64 0303 	sbc.w	r3, r4, r3
 8000322:	2001      	movs	r0, #1
 8000324:	2d00      	cmp	r5, #0
 8000326:	d0e6      	beq.n	80002f6 <__udivmoddi4+0xa6>
 8000328:	e9c5 6300 	strd	r6, r3, [r5]
 800032c:	e7e3      	b.n	80002f6 <__udivmoddi4+0xa6>
 800032e:	2a00      	cmp	r2, #0
 8000330:	f040 8090 	bne.w	8000454 <__udivmoddi4+0x204>
 8000334:	eba1 040c 	sub.w	r4, r1, ip
 8000338:	ea4f 481c 	mov.w	r8, ip, lsr #16
 800033c:	fa1f f78c 	uxth.w	r7, ip
 8000340:	2101      	movs	r1, #1
 8000342:	fbb4 f6f8 	udiv	r6, r4, r8
 8000346:	ea4f 431e 	mov.w	r3, lr, lsr #16
 800034a:	fb08 4416 	mls	r4, r8, r6, r4
 800034e:	ea43 4304 	orr.w	r3, r3, r4, lsl #16
 8000352:	fb07 f006 	mul.w	r0, r7, r6
 8000356:	4298      	cmp	r0, r3
 8000358:	d908      	bls.n	800036c <__udivmoddi4+0x11c>
 800035a:	eb1c 0303 	adds.w	r3, ip, r3
 800035e:	f106 34ff 	add.w	r4, r6, #4294967295	@ 0xffffffff
 8000362:	d202      	bcs.n	800036a <__udivmoddi4+0x11a>
 8000364:	4298      	cmp	r0, r3
 8000366:	f200 80cd 	bhi.w	8000504 <__udivmoddi4+0x2b4>
 800036a:	4626      	mov	r6, r4
 800036c:	1a1c      	subs	r4, r3, r0
 800036e:	fa1f f38e 	uxth.w	r3, lr
 8000372:	fbb4 f0f8 	udiv	r0, r4, r8
 8000376:	fb08 4410 	mls	r4, r8, r0, r4
 800037a:	ea43 4304 	orr.w	r3, r3, r4, lsl #16
 800037e:	fb00 f707 	mul.w	r7, r0, r7
 8000382:	429f      	cmp	r7, r3
 8000384:	d908      	bls.n	8000398 <__udivmoddi4+0x148>
 8000386:	eb1c 0303 	adds.w	r3, ip, r3
 800038a:	f100 34ff 	add.w	r4, r0, #4294967295	@ 0xffffffff
 800038e:	d202      	bcs.n	8000396 <__udivmoddi4+0x146>
 8000390:	429f      	cmp	r7, r3
 8000392:	f200 80b0 	bhi.w	80004f6 <__udivmoddi4+0x2a6>
 8000396:	4620      	mov	r0, r4
 8000398:	1bdb      	subs	r3, r3, r7
 800039a:	ea40 4006 	orr.w	r0, r0, r6, lsl #16
 800039e:	e7a5      	b.n	80002ec <__udivmoddi4+0x9c>
 80003a0:	f1c1 0620 	rsb	r6, r1, #32
 80003a4:	408b      	lsls	r3, r1
 80003a6:	fa22 f706 	lsr.w	r7, r2, r6
 80003aa:	431f      	orrs	r7, r3
 80003ac:	fa20 fc06 	lsr.w	ip, r0, r6
 80003b0:	fa04 f301 	lsl.w	r3, r4, r1
 80003b4:	ea43 030c 	orr.w	r3, r3, ip
 80003b8:	40f4      	lsrs	r4, r6
 80003ba:	fa00 f801 	lsl.w	r8, r0, r1
 80003be:	0c38      	lsrs	r0, r7, #16
 80003c0:	ea4f 4913 	mov.w	r9, r3, lsr #16
 80003c4:	fbb4 fef0 	udiv	lr, r4, r0
 80003c8:	fa1f fc87 	uxth.w	ip, r7
 80003cc:	fb00 441e 	mls	r4, r0, lr, r4
 80003d0:	ea49 4404 	orr.w	r4, r9, r4, lsl #16
 80003d4:	fb0e f90c 	mul.w	r9, lr, ip
 80003d8:	45a1      	cmp	r9, r4
 80003da:	fa02 f201 	lsl.w	r2, r2, r1
 80003de:	d90a      	bls.n	80003f6 <__udivmoddi4+0x1a6>
 80003e0:	193c      	adds	r4, r7, r4
 80003e2:	f10e 3aff 	add.w	sl, lr, #4294967295	@ 0xffffffff
 80003e6:	f080 8084 	bcs.w	80004f2 <__udivmoddi4+0x2a2>
 80003ea:	45a1      	cmp	r9, r4
 80003ec:	f240 8081 	bls.w	80004f2 <__udivmoddi4+0x2a2>
 80003f0:	f1ae 0e02 	sub.w	lr, lr, #2
 80003f4:	443c      	add	r4, r7
 80003f6:	eba4 0409 	sub.w	r4, r4, r9
 80003fa:	fa1f f983 	uxth.w	r9, r3
 80003fe:	fbb4 f3f0 	udiv	r3, r4, r0
 8000402:	fb00 4413 	mls	r4, r0, r3, r4
 8000406:	ea49 4404 	orr.w	r4, r9, r4, lsl #16
 800040a:	fb03 fc0c 	mul.w	ip, r3, ip
 800040e:	45a4      	cmp	ip, r4
 8000410:	d907      	bls.n	8000422 <__udivmoddi4+0x1d2>
 8000412:	193c      	adds	r4, r7, r4
 8000414:	f103 30ff 	add.w	r0, r3, #4294967295	@ 0xffffffff
 8000418:	d267      	bcs.n	80004ea <__udivmoddi4+0x29a>
 800041a:	45a4      	cmp	ip, r4
 800041c:	d965      	bls.n	80004ea <__udivmoddi4+0x29a>
 800041e:	3b02      	subs	r3, #2
 8000420:	443c      	add	r4, r7
 8000422:	ea43 400e 	orr.w	r0, r3, lr, lsl #16
 8000426:	fba0 9302 	umull	r9, r3, r0, r2
 800042a:	eba4 040c 	sub.w	r4, r4, ip
 800042e:	429c      	cmp	r4, r3
 8000430:	46ce      	mov	lr, r9
 8000432:	469c      	mov	ip, r3
 8000434:	d351      	bcc.n	80004da <__udivmoddi4+0x28a>
 8000436:	d04e      	beq.n	80004d6 <__udivmoddi4+0x286>
 8000438:	b155      	cbz	r5, 8000450 <__udivmoddi4+0x200>
 800043a:	ebb8 030e 	subs.w	r3, r8, lr
 800043e:	eb64 040c 	sbc.w	r4, r4, ip
 8000442:	fa04 f606 	lsl.w	r6, r4, r6
 8000446:	40cb      	lsrs	r3, r1
 8000448:	431e      	orrs	r6, r3
 800044a:	40cc      	lsrs	r4, r1
 800044c:	e9c5 6400 	strd	r6, r4, [r5]
 8000450:	2100      	movs	r1, #0
 8000452:	e750      	b.n	80002f6 <__udivmoddi4+0xa6>
 8000454:	f1c2 0320 	rsb	r3, r2, #32
 8000458:	fa20 f103 	lsr.w	r1, r0, r3
 800045c:	fa0c fc02 	lsl.w	ip, ip, r2
 8000460:	fa24 f303 	lsr.w	r3, r4, r3
 8000464:	4094      	lsls	r4, r2
 8000466:	430c      	orrs	r4, r1
 8000468:	ea4f 481c 	mov.w	r8, ip, lsr #16
 800046c:	fa00 fe02 	lsl.w	lr, r0, r2
 8000470:	fa1f f78c 	uxth.w	r7, ip
 8000474:	fbb3 f0f8 	udiv	r0, r3, r8
 8000478:	fb08 3110 	mls	r1, r8, r0, r3
 800047c:	0c23      	lsrs	r3, r4, #16
 800047e:	ea43 4301 	orr.w	r3, r3, r1, lsl #16
 8000482:	fb00 f107 	mul.w	r1, r0, r7
 8000486:	4299      	cmp	r1, r3
 8000488:	d908      	bls.n	800049c <__udivmoddi4+0x24c>
 800048a:	eb1c 0303 	adds.w	r3, ip, r3
 800048e:	f100 36ff 	add.w	r6, r0, #4294967295	@ 0xffffffff
 8000492:	d22c      	bcs.n	80004ee <__udivmoddi4+0x29e>
 8000494:	4299      	cmp	r1, r3
 8000496:	d92a      	bls.n	80004ee <__udivmoddi4+0x29e>
 8000498:	3802      	subs	r0, #2
 800049a:	4463      	add	r3, ip
 800049c:	1a5b      	subs	r3, r3, r1
 800049e:	b2a4      	uxth	r4, r4
 80004a0:	fbb3 f1f8 	udiv	r1, r3, r8
 80004a4:	fb08 3311 	mls	r3, r8, r1, r3
 80004a8:	ea44 4403 	orr.w	r4, r4, r3, lsl #16
 80004ac:	fb01 f307 	mul.w	r3, r1, r7
 80004b0:	42a3      	cmp	r3, r4
 80004b2:	d908      	bls.n	80004c6 <__udivmoddi4+0x276>
 80004b4:	eb1c 0404 	adds.w	r4, ip, r4
 80004b8:	f101 36ff 	add.w	r6, r1, #4294967295	@ 0xffffffff
 80004bc:	d213      	bcs.n	80004e6 <__udivmoddi4+0x296>
 80004be:	42a3      	cmp	r3, r4
 80004c0:	d911      	bls.n	80004e6 <__udivmoddi4+0x296>
 80004c2:	3902      	subs	r1, #2
 80004c4:	4464      	add	r4, ip
 80004c6:	1ae4      	subs	r4, r4, r3
 80004c8:	ea41 4100 	orr.w	r1, r1, r0, lsl #16
 80004cc:	e739      	b.n	8000342 <__udivmoddi4+0xf2>
 80004ce:	4604      	mov	r4, r0
 80004d0:	e6f0      	b.n	80002b4 <__udivmoddi4+0x64>
 80004d2:	4608      	mov	r0, r1
 80004d4:	e706      	b.n	80002e4 <__udivmoddi4+0x94>
 80004d6:	45c8      	cmp	r8, r9
 80004d8:	d2ae      	bcs.n	8000438 <__udivmoddi4+0x1e8>
 80004da:	ebb9 0e02 	subs.w	lr, r9, r2
 80004de:	eb63 0c07 	sbc.w	ip, r3, r7
 80004e2:	3801      	subs	r0, #1
 80004e4:	e7a8      	b.n	8000438 <__udivmoddi4+0x1e8>
 80004e6:	4631      	mov	r1, r6
 80004e8:	e7ed      	b.n	80004c6 <__udivmoddi4+0x276>
 80004ea:	4603      	mov	r3, r0
 80004ec:	e799      	b.n	8000422 <__udivmoddi4+0x1d2>
 80004ee:	4630      	mov	r0, r6
 80004f0:	e7d4      	b.n	800049c <__udivmoddi4+0x24c>
 80004f2:	46d6      	mov	lr, sl
 80004f4:	e77f      	b.n	80003f6 <__udivmoddi4+0x1a6>
 80004f6:	4463      	add	r3, ip
 80004f8:	3802      	subs	r0, #2
 80004fa:	e74d      	b.n	8000398 <__udivmoddi4+0x148>
 80004fc:	4606      	mov	r6, r0
 80004fe:	4623      	mov	r3, r4
 8000500:	4608      	mov	r0, r1
 8000502:	e70f      	b.n	8000324 <__udivmoddi4+0xd4>
 8000504:	3e02      	subs	r6, #2
 8000506:	4463      	add	r3, ip
 8000508:	e730      	b.n	800036c <__udivmoddi4+0x11c>
 800050a:	bf00      	nop

0800050c <__aeabi_idiv0>:
 800050c:	4770      	bx	lr
 800050e:	bf00      	nop

08000510 <LL_AHB2_GRP1_EnableClock>:
  *         @arg @ref LL_AHB2_GRP1_PERIPH_GPIOC
  *         @arg @ref LL_AHB2_GRP1_PERIPH_GPIOH
  * @retval None
  */
__STATIC_INLINE void LL_AHB2_GRP1_EnableClock(uint32_t Periphs)
{
 8000510:	b480      	push	{r7}
 8000512:	b085      	sub	sp, #20
 8000514:	af00      	add	r7, sp, #0
 8000516:	6078      	str	r0, [r7, #4]
  __IO uint32_t tmpreg;
  SET_BIT(RCC->AHB2ENR, Periphs);
 8000518:	f04f 43b0 	mov.w	r3, #1476395008	@ 0x58000000
 800051c:	6cda      	ldr	r2, [r3, #76]	@ 0x4c
 800051e:	f04f 41b0 	mov.w	r1, #1476395008	@ 0x58000000
 8000522:	687b      	ldr	r3, [r7, #4]
 8000524:	4313      	orrs	r3, r2
 8000526:	64cb      	str	r3, [r1, #76]	@ 0x4c
  /* Delay after an RCC peripheral clock enabling */
  tmpreg = READ_BIT(RCC->AHB2ENR, Periphs);
 8000528:	f04f 43b0 	mov.w	r3, #1476395008	@ 0x58000000
 800052c:	6cda      	ldr	r2, [r3, #76]	@ 0x4c
 800052e:	687b      	ldr	r3, [r7, #4]
 8000530:	4013      	ands	r3, r2
 8000532:	60fb      	str	r3, [r7, #12]
  (void)tmpreg;
 8000534:	68fb      	ldr	r3, [r7, #12]
}
 8000536:	bf00      	nop
 8000538:	3714      	adds	r7, #20
 800053a:	46bd      	mov	sp, r7
 800053c:	bc80      	pop	{r7}
 800053e:	4770      	bx	lr

08000540 <main>:
/**
  * @brief  The application entry point.
  * @retval int
  */
int main(void)
{
 8000540:	b580      	push	{r7, lr}
 8000542:	af00      	add	r7, sp, #0
  /* USER CODE END 1 */

  /* MCU Configuration--------------------------------------------------------*/

  /* Reset of all peripherals, Initializes the Flash interface and the Systick. */
  HAL_Init();
 8000544:	f000 fa62 	bl	8000a0c <HAL_Init>
  /* USER CODE BEGIN Init */

  /* USER CODE END Init */

  /* Configure the system clock */
  SystemClock_Config();
 8000548:	f000 f80c 	bl	8000564 <SystemClock_Config>
  /* USER CODE BEGIN SysInit */

  /* USER CODE END SysInit */

  /* Initialize all configured peripherals */
  MX_GPIO_Init();
 800054c:	f000 f86e 	bl	800062c <MX_GPIO_Init>
  MX_SubGHz_Phy_Init();
 8000550:	f005 fb5d 	bl	8005c0e <MX_SubGHz_Phy_Init>
  /* USER CODE BEGIN 2 */
  printf("Test");
 8000554:	4802      	ldr	r0, [pc, #8]	@ (8000560 <main+0x20>)
 8000556:	f005 ff57 	bl	8006408 <iprintf>
//                      altitude, event_flags, sys_state);
  /* USER CODE END 2 */

  /* Infinite loop */
  /* USER CODE BEGIN WHILE */
  while (1)
 800055a:	bf00      	nop
 800055c:	e7fd      	b.n	800055a <main+0x1a>
 800055e:	bf00      	nop
 8000560:	080071ac 	.word	0x080071ac

08000564 <SystemClock_Config>:
/**
  * @brief System Clock Configuration
  * @retval None
  */
void SystemClock_Config(void)
{
 8000564:	b580      	push	{r7, lr}
 8000566:	b09a      	sub	sp, #104	@ 0x68
 8000568:	af00      	add	r7, sp, #0
  RCC_OscInitTypeDef RCC_OscInitStruct = {0};
 800056a:	f107 0320 	add.w	r3, r7, #32
 800056e:	2248      	movs	r2, #72	@ 0x48
 8000570:	2100      	movs	r1, #0
 8000572:	4618      	mov	r0, r3
 8000574:	f006 f890 	bl	8006698 <memset>
  RCC_ClkInitTypeDef RCC_ClkInitStruct = {0};
 8000578:	f107 0308 	add.w	r3, r7, #8
 800057c:	2200      	movs	r2, #0
 800057e:	601a      	str	r2, [r3, #0]
 8000580:	605a      	str	r2, [r3, #4]
 8000582:	609a      	str	r2, [r3, #8]
 8000584:	60da      	str	r2, [r3, #12]
 8000586:	611a      	str	r2, [r3, #16]
 8000588:	615a      	str	r2, [r3, #20]

  /** Configure the main internal regulator output voltage
  */
  __HAL_PWR_VOLTAGESCALING_CONFIG(PWR_REGULATOR_VOLTAGE_SCALE2);
 800058a:	4b1e      	ldr	r3, [pc, #120]	@ (8000604 <SystemClock_Config+0xa0>)
 800058c:	681b      	ldr	r3, [r3, #0]
 800058e:	f423 63c0 	bic.w	r3, r3, #1536	@ 0x600
 8000592:	4a1c      	ldr	r2, [pc, #112]	@ (8000604 <SystemClock_Config+0xa0>)
 8000594:	f443 6380 	orr.w	r3, r3, #1024	@ 0x400
 8000598:	6013      	str	r3, [r2, #0]
 800059a:	4b1a      	ldr	r3, [pc, #104]	@ (8000604 <SystemClock_Config+0xa0>)
 800059c:	681b      	ldr	r3, [r3, #0]
 800059e:	f403 63c0 	and.w	r3, r3, #1536	@ 0x600
 80005a2:	607b      	str	r3, [r7, #4]
 80005a4:	687b      	ldr	r3, [r7, #4]

  /** Initializes the CPU, AHB and APB buses clocks
  */
  RCC_OscInitStruct.OscillatorType = RCC_OSCILLATORTYPE_MSI;
 80005a6:	2320      	movs	r3, #32
 80005a8:	623b      	str	r3, [r7, #32]
  RCC_OscInitStruct.MSIState = RCC_MSI_ON;
 80005aa:	2301      	movs	r3, #1
 80005ac:	643b      	str	r3, [r7, #64]	@ 0x40
  RCC_OscInitStruct.MSICalibrationValue = RCC_MSICALIBRATION_DEFAULT;
 80005ae:	2300      	movs	r3, #0
 80005b0:	647b      	str	r3, [r7, #68]	@ 0x44
  RCC_OscInitStruct.MSIClockRange = RCC_MSIRANGE_6;
 80005b2:	2360      	movs	r3, #96	@ 0x60
 80005b4:	64bb      	str	r3, [r7, #72]	@ 0x48
  RCC_OscInitStruct.PLL.PLLState = RCC_PLL_NONE;
 80005b6:	2300      	movs	r3, #0
 80005b8:	64fb      	str	r3, [r7, #76]	@ 0x4c
  if (HAL_RCC_OscConfig(&RCC_OscInitStruct) != HAL_OK)
 80005ba:	f107 0320 	add.w	r3, r7, #32
 80005be:	4618      	mov	r0, r3
 80005c0:	f000 ff7e 	bl	80014c0 <HAL_RCC_OscConfig>
 80005c4:	4603      	mov	r3, r0
 80005c6:	2b00      	cmp	r3, #0
 80005c8:	d001      	beq.n	80005ce <SystemClock_Config+0x6a>
  {
    Error_Handler();
 80005ca:	f000 f855 	bl	8000678 <Error_Handler>
  }

  /** Configure the SYSCLKSource, HCLK, PCLK1 and PCLK2 clocks dividers
  */
  RCC_ClkInitStruct.ClockType = RCC_CLOCKTYPE_HCLK3|RCC_CLOCKTYPE_HCLK
 80005ce:	234f      	movs	r3, #79	@ 0x4f
 80005d0:	60bb      	str	r3, [r7, #8]
                              |RCC_CLOCKTYPE_SYSCLK|RCC_CLOCKTYPE_PCLK1
                              |RCC_CLOCKTYPE_PCLK2;
  RCC_ClkInitStruct.SYSCLKSource = RCC_SYSCLKSOURCE_MSI;
 80005d2:	2300      	movs	r3, #0
 80005d4:	60fb      	str	r3, [r7, #12]
  RCC_ClkInitStruct.AHBCLKDivider = RCC_SYSCLK_DIV1;
 80005d6:	2300      	movs	r3, #0
 80005d8:	613b      	str	r3, [r7, #16]
  RCC_ClkInitStruct.APB1CLKDivider = RCC_HCLK_DIV1;
 80005da:	2300      	movs	r3, #0
 80005dc:	617b      	str	r3, [r7, #20]
  RCC_ClkInitStruct.APB2CLKDivider = RCC_HCLK_DIV1;
 80005de:	2300      	movs	r3, #0
 80005e0:	61bb      	str	r3, [r7, #24]
  RCC_ClkInitStruct.AHBCLK3Divider = RCC_SYSCLK_DIV1;
 80005e2:	2300      	movs	r3, #0
 80005e4:	61fb      	str	r3, [r7, #28]

  if (HAL_RCC_ClockConfig(&RCC_ClkInitStruct, FLASH_LATENCY_0) != HAL_OK)
 80005e6:	f107 0308 	add.w	r3, r7, #8
 80005ea:	2100      	movs	r1, #0
 80005ec:	4618      	mov	r0, r3
 80005ee:	f001 fae9 	bl	8001bc4 <HAL_RCC_ClockConfig>
 80005f2:	4603      	mov	r3, r0
 80005f4:	2b00      	cmp	r3, #0
 80005f6:	d001      	beq.n	80005fc <SystemClock_Config+0x98>
  {
    Error_Handler();
 80005f8:	f000 f83e 	bl	8000678 <Error_Handler>
  }
}
 80005fc:	bf00      	nop
 80005fe:	3768      	adds	r7, #104	@ 0x68
 8000600:	46bd      	mov	sp, r7
 8000602:	bd80      	pop	{r7, pc}
 8000604:	58000400 	.word	0x58000400

08000608 <MX_SUBGHZ_Init>:
  * @brief SUBGHZ Initialization Function
  * @param None
  * @retval None
  */
void MX_SUBGHZ_Init(void)
{
 8000608:	b580      	push	{r7, lr}
 800060a:	af00      	add	r7, sp, #0
  /* USER CODE END SUBGHZ_Init 0 */

  /* USER CODE BEGIN SUBGHZ_Init 1 */

  /* USER CODE END SUBGHZ_Init 1 */
  hsubghz.Init.BaudratePrescaler = SUBGHZSPI_BAUDRATEPRESCALER_8;
 800060c:	4b06      	ldr	r3, [pc, #24]	@ (8000628 <MX_SUBGHZ_Init+0x20>)
 800060e:	2210      	movs	r2, #16
 8000610:	601a      	str	r2, [r3, #0]
  if (HAL_SUBGHZ_Init(&hsubghz) != HAL_OK)
 8000612:	4805      	ldr	r0, [pc, #20]	@ (8000628 <MX_SUBGHZ_Init+0x20>)
 8000614:	f001 fdfa 	bl	800220c <HAL_SUBGHZ_Init>
 8000618:	4603      	mov	r3, r0
 800061a:	2b00      	cmp	r3, #0
 800061c:	d001      	beq.n	8000622 <MX_SUBGHZ_Init+0x1a>
  {
    Error_Handler();
 800061e:	f000 f82b 	bl	8000678 <Error_Handler>
  }
  /* USER CODE BEGIN SUBGHZ_Init 2 */

  /* USER CODE END SUBGHZ_Init 2 */

}
 8000622:	bf00      	nop
 8000624:	bd80      	pop	{r7, pc}
 8000626:	bf00      	nop
 8000628:	20000084 	.word	0x20000084

0800062c <MX_GPIO_Init>:
  * @brief GPIO Initialization Function
  * @param None
  * @retval None
  */
static void MX_GPIO_Init(void)
{
 800062c:	b580      	push	{r7, lr}
 800062e:	b086      	sub	sp, #24
 8000630:	af00      	add	r7, sp, #0
  GPIO_InitTypeDef GPIO_InitStruct = {0};
 8000632:	1d3b      	adds	r3, r7, #4
 8000634:	2200      	movs	r2, #0
 8000636:	601a      	str	r2, [r3, #0]
 8000638:	605a      	str	r2, [r3, #4]
 800063a:	609a      	str	r2, [r3, #8]
 800063c:	60da      	str	r2, [r3, #12]
 800063e:	611a      	str	r2, [r3, #16]
/* USER CODE BEGIN MX_GPIO_Init_1 */
/* USER CODE END MX_GPIO_Init_1 */

  /* GPIO Ports Clock Enable */
  __HAL_RCC_GPIOB_CLK_ENABLE();
 8000640:	2002      	movs	r0, #2
 8000642:	f7ff ff65 	bl	8000510 <LL_AHB2_GRP1_EnableClock>

  /*Configure GPIO pin Output Level */
  HAL_GPIO_WritePin(GPIOB, GPIO_PIN_5, GPIO_PIN_RESET);
 8000646:	2200      	movs	r2, #0
 8000648:	2120      	movs	r1, #32
 800064a:	480a      	ldr	r0, [pc, #40]	@ (8000674 <MX_GPIO_Init+0x48>)
 800064c:	f000 fc8c 	bl	8000f68 <HAL_GPIO_WritePin>

  /*Configure GPIO pin : PB5 */
  GPIO_InitStruct.Pin = GPIO_PIN_5;
 8000650:	2320      	movs	r3, #32
 8000652:	607b      	str	r3, [r7, #4]
  GPIO_InitStruct.Mode = GPIO_MODE_OUTPUT_PP;
 8000654:	2301      	movs	r3, #1
 8000656:	60bb      	str	r3, [r7, #8]
  GPIO_InitStruct.Pull = GPIO_NOPULL;
 8000658:	2300      	movs	r3, #0
 800065a:	60fb      	str	r3, [r7, #12]
  GPIO_InitStruct.Speed = GPIO_SPEED_FREQ_LOW;
 800065c:	2300      	movs	r3, #0
 800065e:	613b      	str	r3, [r7, #16]
  HAL_GPIO_Init(GPIOB, &GPIO_InitStruct);
 8000660:	1d3b      	adds	r3, r7, #4
 8000662:	4619      	mov	r1, r3
 8000664:	4803      	ldr	r0, [pc, #12]	@ (8000674 <MX_GPIO_Init+0x48>)
 8000666:	f000 fb1f 	bl	8000ca8 <HAL_GPIO_Init>

/* USER CODE BEGIN MX_GPIO_Init_2 */
/* USER CODE END MX_GPIO_Init_2 */
}
 800066a:	bf00      	nop
 800066c:	3718      	adds	r7, #24
 800066e:	46bd      	mov	sp, r7
 8000670:	bd80      	pop	{r7, pc}
 8000672:	bf00      	nop
 8000674:	48000400 	.word	0x48000400

08000678 <Error_Handler>:
/**
  * @brief  This function is executed in case of error occurrence.
  * @retval None
  */
void Error_Handler(void)
{
 8000678:	b480      	push	{r7}
 800067a:	af00      	add	r7, sp, #0
  \details Disables IRQ interrupts by setting the I-bit in the CPSR.
           Can only be executed in Privileged modes.
 */
__STATIC_FORCEINLINE void __disable_irq(void)
{
  __ASM volatile ("cpsid i" : : : "memory");
 800067c:	b672      	cpsid	i
}
 800067e:	bf00      	nop
  /* USER CODE BEGIN Error_Handler_Debug */
  /* User can add his own implementation to report the HAL error return state */
  __disable_irq();
  while (1)
 8000680:	bf00      	nop
 8000682:	e7fd      	b.n	8000680 <Error_Handler+0x8>

08000684 <LL_APB3_GRP1_EnableClock>:
  * @param  Periphs This parameter can be a combination of the following values:
  *         @arg @ref LL_APB3_GRP1_PERIPH_SUBGHZSPI
  * @retval None
  */
__STATIC_INLINE void LL_APB3_GRP1_EnableClock(uint32_t Periphs)
{
 8000684:	b480      	push	{r7}
 8000686:	b085      	sub	sp, #20
 8000688:	af00      	add	r7, sp, #0
 800068a:	6078      	str	r0, [r7, #4]
  __IO uint32_t tmpreg;
  SET_BIT(RCC->APB3ENR, Periphs);
 800068c:	f04f 43b0 	mov.w	r3, #1476395008	@ 0x58000000
 8000690:	6e5a      	ldr	r2, [r3, #100]	@ 0x64
 8000692:	f04f 41b0 	mov.w	r1, #1476395008	@ 0x58000000
 8000696:	687b      	ldr	r3, [r7, #4]
 8000698:	4313      	orrs	r3, r2
 800069a:	664b      	str	r3, [r1, #100]	@ 0x64
  /* Delay after an RCC peripheral clock enabling */
  tmpreg = READ_BIT(RCC->APB3ENR, Periphs);
 800069c:	f04f 43b0 	mov.w	r3, #1476395008	@ 0x58000000
 80006a0:	6e5a      	ldr	r2, [r3, #100]	@ 0x64
 80006a2:	687b      	ldr	r3, [r7, #4]
 80006a4:	4013      	ands	r3, r2
 80006a6:	60fb      	str	r3, [r7, #12]
  (void)tmpreg;
 80006a8:	68fb      	ldr	r3, [r7, #12]
}
 80006aa:	bf00      	nop
 80006ac:	3714      	adds	r7, #20
 80006ae:	46bd      	mov	sp, r7
 80006b0:	bc80      	pop	{r7}
 80006b2:	4770      	bx	lr

080006b4 <HAL_MspInit>:
/* USER CODE END 0 */
/**
  * Initializes the Global MSP.
  */
void HAL_MspInit(void)
{
 80006b4:	b480      	push	{r7}
 80006b6:	af00      	add	r7, sp, #0
  /* System interrupt init*/

  /* USER CODE BEGIN MspInit 1 */

  /* USER CODE END MspInit 1 */
}
 80006b8:	bf00      	nop
 80006ba:	46bd      	mov	sp, r7
 80006bc:	bc80      	pop	{r7}
 80006be:	4770      	bx	lr

080006c0 <HAL_SUBGHZ_MspInit>:
* This function configures the hardware resources used in this example
* @param hsubghz: SUBGHZ handle pointer
* @retval None
*/
void HAL_SUBGHZ_MspInit(SUBGHZ_HandleTypeDef* hsubghz)
{
 80006c0:	b580      	push	{r7, lr}
 80006c2:	b082      	sub	sp, #8
 80006c4:	af00      	add	r7, sp, #0
 80006c6:	6078      	str	r0, [r7, #4]
  /* USER CODE BEGIN SUBGHZ_MspInit 0 */

  /* USER CODE END SUBGHZ_MspInit 0 */
    /* Peripheral clock enable */
    __HAL_RCC_SUBGHZSPI_CLK_ENABLE();
 80006c8:	2001      	movs	r0, #1
 80006ca:	f7ff ffdb 	bl	8000684 <LL_APB3_GRP1_EnableClock>
  /* USER CODE BEGIN SUBGHZ_MspInit 1 */

  /* USER CODE END SUBGHZ_MspInit 1 */

}
 80006ce:	bf00      	nop
 80006d0:	3708      	adds	r7, #8
 80006d2:	46bd      	mov	sp, r7
 80006d4:	bd80      	pop	{r7, pc}

080006d6 <NMI_Handler>:
/******************************************************************************/
/**
  * @brief This function handles Non maskable interrupt.
  */
void NMI_Handler(void)
{
 80006d6:	b480      	push	{r7}
 80006d8:	af00      	add	r7, sp, #0
  /* USER CODE BEGIN NonMaskableInt_IRQn 0 */

  /* USER CODE END NonMaskableInt_IRQn 0 */
  /* USER CODE BEGIN NonMaskableInt_IRQn 1 */
   while (1)
 80006da:	bf00      	nop
 80006dc:	e7fd      	b.n	80006da <NMI_Handler+0x4>

080006de <HardFault_Handler>:

/**
  * @brief This function handles Hard fault interrupt.
  */
void HardFault_Handler(void)
{
 80006de:	b480      	push	{r7}
 80006e0:	af00      	add	r7, sp, #0
  /* USER CODE BEGIN HardFault_IRQn 0 */

  /* USER CODE END HardFault_IRQn 0 */
  while (1)
 80006e2:	bf00      	nop
 80006e4:	e7fd      	b.n	80006e2 <HardFault_Handler+0x4>

080006e6 <MemManage_Handler>:

/**
  * @brief This function handles Memory management fault.
  */
void MemManage_Handler(void)
{
 80006e6:	b480      	push	{r7}
 80006e8:	af00      	add	r7, sp, #0
  /* USER CODE BEGIN MemoryManagement_IRQn 0 */

  /* USER CODE END MemoryManagement_IRQn 0 */
  while (1)
 80006ea:	bf00      	nop
 80006ec:	e7fd      	b.n	80006ea <MemManage_Handler+0x4>

080006ee <BusFault_Handler>:

/**
  * @brief This function handles Prefetch fault, memory access fault.
  */
void BusFault_Handler(void)
{
 80006ee:	b480      	push	{r7}
 80006f0:	af00      	add	r7, sp, #0
  /* USER CODE BEGIN BusFault_IRQn 0 */

  /* USER CODE END BusFault_IRQn 0 */
  while (1)
 80006f2:	bf00      	nop
 80006f4:	e7fd      	b.n	80006f2 <BusFault_Handler+0x4>

080006f6 <UsageFault_Handler>:

/**
  * @brief This function handles Undefined instruction or illegal state.
  */
void UsageFault_Handler(void)
{
 80006f6:	b480      	push	{r7}
 80006f8:	af00      	add	r7, sp, #0
  /* USER CODE BEGIN UsageFault_IRQn 0 */

  /* USER CODE END UsageFault_IRQn 0 */
  while (1)
 80006fa:	bf00      	nop
 80006fc:	e7fd      	b.n	80006fa <UsageFault_Handler+0x4>

080006fe <SVC_Handler>:

/**
  * @brief This function handles System service call via SWI instruction.
  */
void SVC_Handler(void)
{
 80006fe:	b480      	push	{r7}
 8000700:	af00      	add	r7, sp, #0

  /* USER CODE END SVCall_IRQn 0 */
  /* USER CODE BEGIN SVCall_IRQn 1 */

  /* USER CODE END SVCall_IRQn 1 */
}
 8000702:	bf00      	nop
 8000704:	46bd      	mov	sp, r7
 8000706:	bc80      	pop	{r7}
 8000708:	4770      	bx	lr

0800070a <DebugMon_Handler>:

/**
  * @brief This function handles Debug monitor.
  */
void DebugMon_Handler(void)
{
 800070a:	b480      	push	{r7}
 800070c:	af00      	add	r7, sp, #0

  /* USER CODE END DebugMonitor_IRQn 0 */
  /* USER CODE BEGIN DebugMonitor_IRQn 1 */

  /* USER CODE END DebugMonitor_IRQn 1 */
}
 800070e:	bf00      	nop
 8000710:	46bd      	mov	sp, r7
 8000712:	bc80      	pop	{r7}
 8000714:	4770      	bx	lr

08000716 <PendSV_Handler>:

/**
  * @brief This function handles Pendable request for system service.
  */
void PendSV_Handler(void)
{
 8000716:	b480      	push	{r7}
 8000718:	af00      	add	r7, sp, #0

  /* USER CODE END PendSV_IRQn 0 */
  /* USER CODE BEGIN PendSV_IRQn 1 */

  /* USER CODE END PendSV_IRQn 1 */
}
 800071a:	bf00      	nop
 800071c:	46bd      	mov	sp, r7
 800071e:	bc80      	pop	{r7}
 8000720:	4770      	bx	lr

08000722 <SysTick_Handler>:

/**
  * @brief This function handles System tick timer.
  */
void SysTick_Handler(void)
{
 8000722:	b580      	push	{r7, lr}
 8000724:	af00      	add	r7, sp, #0
  /* USER CODE BEGIN SysTick_IRQn 0 */

  /* USER CODE END SysTick_IRQn 0 */
  HAL_IncTick();
 8000726:	f000 f9cb 	bl	8000ac0 <HAL_IncTick>
  /* USER CODE BEGIN SysTick_IRQn 1 */

  /* USER CODE END SysTick_IRQn 1 */
}
 800072a:	bf00      	nop
 800072c:	bd80      	pop	{r7, pc}

0800072e <SystemApp_Init>:

/* USER CODE END PFP */

/* Exported functions ---------------------------------------------------------*/
void SystemApp_Init(void)
{
 800072e:	b480      	push	{r7}
 8000730:	af00      	add	r7, sp, #0
  /* USER CODE BEGIN SystemApp_Init_1 */

  /* USER CODE END SystemApp_Init_1 */

}
 8000732:	bf00      	nop
 8000734:	46bd      	mov	sp, r7
 8000736:	bc80      	pop	{r7}
 8000738:	4770      	bx	lr
	...

0800073c <HAL_GetTick>:

/**
  * @note This function overwrites the __weak one from HAL
  */
uint32_t HAL_GetTick(void)
{
 800073c:	b580      	push	{r7, lr}
 800073e:	b082      	sub	sp, #8
 8000740:	af00      	add	r7, sp, #0
  uint32_t ret = 0;
 8000742:	2300      	movs	r3, #0
 8000744:	607b      	str	r3, [r7, #4]
  /* TIMER_IF can be based on other counter the SysTick e.g. RTC */
  /* USER CODE BEGIN HAL_GetTick_1 */

  /* USER CODE END HAL_GetTick_1 */
  if (SYS_TimerInitialisedFlag == 0)
 8000746:	4b06      	ldr	r3, [pc, #24]	@ (8000760 <HAL_GetTick+0x24>)
 8000748:	781b      	ldrb	r3, [r3, #0]
 800074a:	2b00      	cmp	r3, #0
 800074c:	d002      	beq.n	8000754 <HAL_GetTick+0x18>

    /* USER CODE END HAL_GetTick_EarlyCall */
  }
  else
  {
    ret = TIMER_IF_GetTimerValue();
 800074e:	f000 f8fc 	bl	800094a <TIMER_IF_GetTimerValue>
 8000752:	6078      	str	r0, [r7, #4]
  }
  /* USER CODE BEGIN HAL_GetTick_2 */

  /* USER CODE END HAL_GetTick_2 */
  return ret;
 8000754:	687b      	ldr	r3, [r7, #4]
}
 8000756:	4618      	mov	r0, r3
 8000758:	3708      	adds	r7, #8
 800075a:	46bd      	mov	sp, r7
 800075c:	bd80      	pop	{r7, pc}
 800075e:	bf00      	nop
 8000760:	20000090 	.word	0x20000090

08000764 <HAL_Delay>:

/**
  * @note This function overwrites the __weak one from HAL
  */
void HAL_Delay(__IO uint32_t Delay)
{
 8000764:	b580      	push	{r7, lr}
 8000766:	b082      	sub	sp, #8
 8000768:	af00      	add	r7, sp, #0
 800076a:	6078      	str	r0, [r7, #4]
  /* TIMER_IF can be based on other counter the SysTick e.g. RTC */
  /* USER CODE BEGIN HAL_Delay_1 */

  /* USER CODE END HAL_Delay_1 */
  TIMER_IF_DelayMs(Delay);
 800076c:	687b      	ldr	r3, [r7, #4]
 800076e:	4618      	mov	r0, r3
 8000770:	f000 f919 	bl	80009a6 <TIMER_IF_DelayMs>
  /* USER CODE BEGIN HAL_Delay_2 */

  /* USER CODE END HAL_Delay_2 */
}
 8000774:	bf00      	nop
 8000776:	3708      	adds	r7, #8
 8000778:	46bd      	mov	sp, r7
 800077a:	bd80      	pop	{r7, pc}

0800077c <_read>:
  _kill(status, -1);
  while (1) {}    /* Make sure we hang here */
}

__attribute__((weak)) int _read(int file, char *ptr, int len)
{
 800077c:	b580      	push	{r7, lr}
 800077e:	b086      	sub	sp, #24
 8000780:	af00      	add	r7, sp, #0
 8000782:	60f8      	str	r0, [r7, #12]
 8000784:	60b9      	str	r1, [r7, #8]
 8000786:	607a      	str	r2, [r7, #4]
  (void)file;
  int DataIdx;

  for (DataIdx = 0; DataIdx < len; DataIdx++)
 8000788:	2300      	movs	r3, #0
 800078a:	617b      	str	r3, [r7, #20]
 800078c:	e00a      	b.n	80007a4 <_read+0x28>
  {
    *ptr++ = __io_getchar();
 800078e:	f3af 8000 	nop.w
 8000792:	4601      	mov	r1, r0
 8000794:	68bb      	ldr	r3, [r7, #8]
 8000796:	1c5a      	adds	r2, r3, #1
 8000798:	60ba      	str	r2, [r7, #8]
 800079a:	b2ca      	uxtb	r2, r1
 800079c:	701a      	strb	r2, [r3, #0]
  for (DataIdx = 0; DataIdx < len; DataIdx++)
 800079e:	697b      	ldr	r3, [r7, #20]
 80007a0:	3301      	adds	r3, #1
 80007a2:	617b      	str	r3, [r7, #20]
 80007a4:	697a      	ldr	r2, [r7, #20]
 80007a6:	687b      	ldr	r3, [r7, #4]
 80007a8:	429a      	cmp	r2, r3
 80007aa:	dbf0      	blt.n	800078e <_read+0x12>
  }

  return len;
 80007ac:	687b      	ldr	r3, [r7, #4]
}
 80007ae:	4618      	mov	r0, r3
 80007b0:	3718      	adds	r7, #24
 80007b2:	46bd      	mov	sp, r7
 80007b4:	bd80      	pop	{r7, pc}

080007b6 <_write>:

__attribute__((weak)) int _write(int file, char *ptr, int len)
{
 80007b6:	b580      	push	{r7, lr}
 80007b8:	b086      	sub	sp, #24
 80007ba:	af00      	add	r7, sp, #0
 80007bc:	60f8      	str	r0, [r7, #12]
 80007be:	60b9      	str	r1, [r7, #8]
 80007c0:	607a      	str	r2, [r7, #4]
  (void)file;
  int DataIdx;

  for (DataIdx = 0; DataIdx < len; DataIdx++)
 80007c2:	2300      	movs	r3, #0
 80007c4:	617b      	str	r3, [r7, #20]
 80007c6:	e009      	b.n	80007dc <_write+0x26>
  {
    __io_putchar(*ptr++);
 80007c8:	68bb      	ldr	r3, [r7, #8]
 80007ca:	1c5a      	adds	r2, r3, #1
 80007cc:	60ba      	str	r2, [r7, #8]
 80007ce:	781b      	ldrb	r3, [r3, #0]
 80007d0:	4618      	mov	r0, r3
 80007d2:	f3af 8000 	nop.w
  for (DataIdx = 0; DataIdx < len; DataIdx++)
 80007d6:	697b      	ldr	r3, [r7, #20]
 80007d8:	3301      	adds	r3, #1
 80007da:	617b      	str	r3, [r7, #20]
 80007dc:	697a      	ldr	r2, [r7, #20]
 80007de:	687b      	ldr	r3, [r7, #4]
 80007e0:	429a      	cmp	r2, r3
 80007e2:	dbf1      	blt.n	80007c8 <_write+0x12>
  }
  return len;
 80007e4:	687b      	ldr	r3, [r7, #4]
}
 80007e6:	4618      	mov	r0, r3
 80007e8:	3718      	adds	r7, #24
 80007ea:	46bd      	mov	sp, r7
 80007ec:	bd80      	pop	{r7, pc}

080007ee <_close>:

int _close(int file)
{
 80007ee:	b480      	push	{r7}
 80007f0:	b083      	sub	sp, #12
 80007f2:	af00      	add	r7, sp, #0
 80007f4:	6078      	str	r0, [r7, #4]
  (void)file;
  return -1;
 80007f6:	f04f 33ff 	mov.w	r3, #4294967295	@ 0xffffffff
}
 80007fa:	4618      	mov	r0, r3
 80007fc:	370c      	adds	r7, #12
 80007fe:	46bd      	mov	sp, r7
 8000800:	bc80      	pop	{r7}
 8000802:	4770      	bx	lr

08000804 <_fstat>:


int _fstat(int file, struct stat *st)
{
 8000804:	b480      	push	{r7}
 8000806:	b083      	sub	sp, #12
 8000808:	af00      	add	r7, sp, #0
 800080a:	6078      	str	r0, [r7, #4]
 800080c:	6039      	str	r1, [r7, #0]
  (void)file;
  st->st_mode = S_IFCHR;
 800080e:	683b      	ldr	r3, [r7, #0]
 8000810:	f44f 5200 	mov.w	r2, #8192	@ 0x2000
 8000814:	605a      	str	r2, [r3, #4]
  return 0;
 8000816:	2300      	movs	r3, #0
}
 8000818:	4618      	mov	r0, r3
 800081a:	370c      	adds	r7, #12
 800081c:	46bd      	mov	sp, r7
 800081e:	bc80      	pop	{r7}
 8000820:	4770      	bx	lr

08000822 <_isatty>:

int _isatty(int file)
{
 8000822:	b480      	push	{r7}
 8000824:	b083      	sub	sp, #12
 8000826:	af00      	add	r7, sp, #0
 8000828:	6078      	str	r0, [r7, #4]
  (void)file;
  return 1;
 800082a:	2301      	movs	r3, #1
}
 800082c:	4618      	mov	r0, r3
 800082e:	370c      	adds	r7, #12
 8000830:	46bd      	mov	sp, r7
 8000832:	bc80      	pop	{r7}
 8000834:	4770      	bx	lr

08000836 <_lseek>:

int _lseek(int file, int ptr, int dir)
{
 8000836:	b480      	push	{r7}
 8000838:	b085      	sub	sp, #20
 800083a:	af00      	add	r7, sp, #0
 800083c:	60f8      	str	r0, [r7, #12]
 800083e:	60b9      	str	r1, [r7, #8]
 8000840:	607a      	str	r2, [r7, #4]
  (void)file;
  (void)ptr;
  (void)dir;
  return 0;
 8000842:	2300      	movs	r3, #0
}
 8000844:	4618      	mov	r0, r3
 8000846:	3714      	adds	r7, #20
 8000848:	46bd      	mov	sp, r7
 800084a:	bc80      	pop	{r7}
 800084c:	4770      	bx	lr
	...

08000850 <_sbrk>:
 *
 * @param incr Memory size
 * @return Pointer to allocated memory
 */
void *_sbrk(ptrdiff_t incr)
{
 8000850:	b580      	push	{r7, lr}
 8000852:	b086      	sub	sp, #24
 8000854:	af00      	add	r7, sp, #0
 8000856:	6078      	str	r0, [r7, #4]
  extern uint8_t _end; /* Symbol defined in the linker script */
  extern uint8_t _estack; /* Symbol defined in the linker script */
  extern uint32_t _Min_Stack_Size; /* Symbol defined in the linker script */
  const uint32_t stack_limit = (uint32_t)&_estack - (uint32_t)&_Min_Stack_Size;
 8000858:	4a14      	ldr	r2, [pc, #80]	@ (80008ac <_sbrk+0x5c>)
 800085a:	4b15      	ldr	r3, [pc, #84]	@ (80008b0 <_sbrk+0x60>)
 800085c:	1ad3      	subs	r3, r2, r3
 800085e:	617b      	str	r3, [r7, #20]
  const uint8_t *max_heap = (uint8_t *)stack_limit;
 8000860:	697b      	ldr	r3, [r7, #20]
 8000862:	613b      	str	r3, [r7, #16]
  uint8_t *prev_heap_end;

  /* Initialize heap end at first call */
  if (NULL == __sbrk_heap_end)
 8000864:	4b13      	ldr	r3, [pc, #76]	@ (80008b4 <_sbrk+0x64>)
 8000866:	681b      	ldr	r3, [r3, #0]
 8000868:	2b00      	cmp	r3, #0
 800086a:	d102      	bne.n	8000872 <_sbrk+0x22>
  {
    __sbrk_heap_end = &_end;
 800086c:	4b11      	ldr	r3, [pc, #68]	@ (80008b4 <_sbrk+0x64>)
 800086e:	4a12      	ldr	r2, [pc, #72]	@ (80008b8 <_sbrk+0x68>)
 8000870:	601a      	str	r2, [r3, #0]
  }

  /* Protect heap from growing into the reserved MSP stack */
  if (__sbrk_heap_end + incr > max_heap)
 8000872:	4b10      	ldr	r3, [pc, #64]	@ (80008b4 <_sbrk+0x64>)
 8000874:	681a      	ldr	r2, [r3, #0]
 8000876:	687b      	ldr	r3, [r7, #4]
 8000878:	4413      	add	r3, r2
 800087a:	693a      	ldr	r2, [r7, #16]
 800087c:	429a      	cmp	r2, r3
 800087e:	d207      	bcs.n	8000890 <_sbrk+0x40>
  {
    errno = ENOMEM;
 8000880:	f005 ff58 	bl	8006734 <__errno>
 8000884:	4603      	mov	r3, r0
 8000886:	220c      	movs	r2, #12
 8000888:	601a      	str	r2, [r3, #0]
    return (void *)-1;
 800088a:	f04f 33ff 	mov.w	r3, #4294967295	@ 0xffffffff
 800088e:	e009      	b.n	80008a4 <_sbrk+0x54>
  }

  prev_heap_end = __sbrk_heap_end;
 8000890:	4b08      	ldr	r3, [pc, #32]	@ (80008b4 <_sbrk+0x64>)
 8000892:	681b      	ldr	r3, [r3, #0]
 8000894:	60fb      	str	r3, [r7, #12]
  __sbrk_heap_end += incr;
 8000896:	4b07      	ldr	r3, [pc, #28]	@ (80008b4 <_sbrk+0x64>)
 8000898:	681a      	ldr	r2, [r3, #0]
 800089a:	687b      	ldr	r3, [r7, #4]
 800089c:	4413      	add	r3, r2
 800089e:	4a05      	ldr	r2, [pc, #20]	@ (80008b4 <_sbrk+0x64>)
 80008a0:	6013      	str	r3, [r2, #0]

  return (void *)prev_heap_end;
 80008a2:	68fb      	ldr	r3, [r7, #12]
}
 80008a4:	4618      	mov	r0, r3
 80008a6:	3718      	adds	r7, #24
 80008a8:	46bd      	mov	sp, r7
 80008aa:	bd80      	pop	{r7, pc}
 80008ac:	20010000 	.word	0x20010000
 80008b0:	00000400 	.word	0x00000400
 80008b4:	20000094 	.word	0x20000094
 80008b8:	200003e8 	.word	0x200003e8

080008bc <SystemInit>:
  * @brief  Setup the microcontroller system.
  * @param  None
  * @retval None
  */
void SystemInit(void)
{
 80008bc:	b480      	push	{r7}
 80008be:	af00      	add	r7, sp, #0

  /* FPU settings ------------------------------------------------------------*/
#if (__FPU_PRESENT == 1) && (__FPU_USED == 1)
  SCB->CPACR |= ((3UL << (10UL*2UL))|(3UL << (11UL*2UL)));  /* set CP10 and CP11 Full Access */
#endif
}
 80008c0:	bf00      	nop
 80008c2:	46bd      	mov	sp, r7
 80008c4:	bc80      	pop	{r7}
 80008c6:	4770      	bx	lr

080008c8 <TIMER_IF_Init>:

/* USER CODE END PFP */

/* Exported functions ---------------------------------------------------------*/
UTIL_TIMER_Status_t TIMER_IF_Init(void)
{
 80008c8:	b480      	push	{r7}
 80008ca:	b083      	sub	sp, #12
 80008cc:	af00      	add	r7, sp, #0
  UTIL_TIMER_Status_t ret = UTIL_TIMER_OK;
 80008ce:	2300      	movs	r3, #0
 80008d0:	71fb      	strb	r3, [r7, #7]
  /* USER CODE BEGIN TIMER_IF_Init */

  /* USER CODE END TIMER_IF_Init */
  return ret;
 80008d2:	79fb      	ldrb	r3, [r7, #7]
}
 80008d4:	4618      	mov	r0, r3
 80008d6:	370c      	adds	r7, #12
 80008d8:	46bd      	mov	sp, r7
 80008da:	bc80      	pop	{r7}
 80008dc:	4770      	bx	lr

080008de <TIMER_IF_StartTimer>:

UTIL_TIMER_Status_t TIMER_IF_StartTimer(uint32_t timeout)
{
 80008de:	b480      	push	{r7}
 80008e0:	b085      	sub	sp, #20
 80008e2:	af00      	add	r7, sp, #0
 80008e4:	6078      	str	r0, [r7, #4]
  UTIL_TIMER_Status_t ret = UTIL_TIMER_OK;
 80008e6:	2300      	movs	r3, #0
 80008e8:	73fb      	strb	r3, [r7, #15]
  /* USER CODE BEGIN TIMER_IF_StartTimer */

  /* USER CODE END TIMER_IF_StartTimer */
  return ret;
 80008ea:	7bfb      	ldrb	r3, [r7, #15]
}
 80008ec:	4618      	mov	r0, r3
 80008ee:	3714      	adds	r7, #20
 80008f0:	46bd      	mov	sp, r7
 80008f2:	bc80      	pop	{r7}
 80008f4:	4770      	bx	lr

080008f6 <TIMER_IF_StopTimer>:

UTIL_TIMER_Status_t TIMER_IF_StopTimer(void)
{
 80008f6:	b480      	push	{r7}
 80008f8:	b083      	sub	sp, #12
 80008fa:	af00      	add	r7, sp, #0
  UTIL_TIMER_Status_t ret = UTIL_TIMER_OK;
 80008fc:	2300      	movs	r3, #0
 80008fe:	71fb      	strb	r3, [r7, #7]
  /* USER CODE BEGIN TIMER_IF_StopTimer */

  /* USER CODE END TIMER_IF_StopTimer */
  return ret;
 8000900:	79fb      	ldrb	r3, [r7, #7]
}
 8000902:	4618      	mov	r0, r3
 8000904:	370c      	adds	r7, #12
 8000906:	46bd      	mov	sp, r7
 8000908:	bc80      	pop	{r7}
 800090a:	4770      	bx	lr

0800090c <TIMER_IF_SetTimerContext>:

uint32_t TIMER_IF_SetTimerContext(void)
{
 800090c:	b480      	push	{r7}
 800090e:	af00      	add	r7, sp, #0
  /* USER CODE BEGIN TIMER_IF_SetTimerContext */

  /* USER CODE END TIMER_IF_SetTimerContext */

  /*return time context*/
  return RtcTimerContext;
 8000910:	4b02      	ldr	r3, [pc, #8]	@ (800091c <TIMER_IF_SetTimerContext+0x10>)
 8000912:	681b      	ldr	r3, [r3, #0]
}
 8000914:	4618      	mov	r0, r3
 8000916:	46bd      	mov	sp, r7
 8000918:	bc80      	pop	{r7}
 800091a:	4770      	bx	lr
 800091c:	20000098 	.word	0x20000098

08000920 <TIMER_IF_GetTimerContext>:

uint32_t TIMER_IF_GetTimerContext(void)
{
 8000920:	b480      	push	{r7}
 8000922:	af00      	add	r7, sp, #0
  /* USER CODE BEGIN TIMER_IF_GetTimerContext */

  /* USER CODE END TIMER_IF_GetTimerContext */

  /*return time context*/
  return RtcTimerContext;
 8000924:	4b02      	ldr	r3, [pc, #8]	@ (8000930 <TIMER_IF_GetTimerContext+0x10>)
 8000926:	681b      	ldr	r3, [r3, #0]
}
 8000928:	4618      	mov	r0, r3
 800092a:	46bd      	mov	sp, r7
 800092c:	bc80      	pop	{r7}
 800092e:	4770      	bx	lr
 8000930:	20000098 	.word	0x20000098

08000934 <TIMER_IF_GetTimerElapsedTime>:

uint32_t TIMER_IF_GetTimerElapsedTime(void)
{
 8000934:	b480      	push	{r7}
 8000936:	b083      	sub	sp, #12
 8000938:	af00      	add	r7, sp, #0
  uint32_t ret = 0;
 800093a:	2300      	movs	r3, #0
 800093c:	607b      	str	r3, [r7, #4]
  /* USER CODE BEGIN TIMER_IF_GetTimerElapsedTime */

  /* USER CODE END TIMER_IF_GetTimerElapsedTime */
  return ret;
 800093e:	687b      	ldr	r3, [r7, #4]
}
 8000940:	4618      	mov	r0, r3
 8000942:	370c      	adds	r7, #12
 8000944:	46bd      	mov	sp, r7
 8000946:	bc80      	pop	{r7}
 8000948:	4770      	bx	lr

0800094a <TIMER_IF_GetTimerValue>:

uint32_t TIMER_IF_GetTimerValue(void)
{
 800094a:	b480      	push	{r7}
 800094c:	b083      	sub	sp, #12
 800094e:	af00      	add	r7, sp, #0
  uint32_t ret = 0;
 8000950:	2300      	movs	r3, #0
 8000952:	607b      	str	r3, [r7, #4]
  /* USER CODE BEGIN TIMER_IF_GetTimerValue */

  /* USER CODE END TIMER_IF_GetTimerValue */
  return ret;
 8000954:	687b      	ldr	r3, [r7, #4]
}
 8000956:	4618      	mov	r0, r3
 8000958:	370c      	adds	r7, #12
 800095a:	46bd      	mov	sp, r7
 800095c:	bc80      	pop	{r7}
 800095e:	4770      	bx	lr

08000960 <TIMER_IF_GetMinimumTimeout>:

uint32_t TIMER_IF_GetMinimumTimeout(void)
{
 8000960:	b480      	push	{r7}
 8000962:	b083      	sub	sp, #12
 8000964:	af00      	add	r7, sp, #0
  uint32_t ret = 0;
 8000966:	2300      	movs	r3, #0
 8000968:	607b      	str	r3, [r7, #4]
  /* USER CODE BEGIN TIMER_IF_GetMinimumTimeout */

  /* USER CODE END TIMER_IF_GetMinimumTimeout */
  return ret;
 800096a:	687b      	ldr	r3, [r7, #4]
}
 800096c:	4618      	mov	r0, r3
 800096e:	370c      	adds	r7, #12
 8000970:	46bd      	mov	sp, r7
 8000972:	bc80      	pop	{r7}
 8000974:	4770      	bx	lr

08000976 <TIMER_IF_Convert_ms2Tick>:

uint32_t TIMER_IF_Convert_ms2Tick(uint32_t timeMilliSec)
{
 8000976:	b480      	push	{r7}
 8000978:	b085      	sub	sp, #20
 800097a:	af00      	add	r7, sp, #0
 800097c:	6078      	str	r0, [r7, #4]
  uint32_t ret = 0;
 800097e:	2300      	movs	r3, #0
 8000980:	60fb      	str	r3, [r7, #12]
  /* USER CODE BEGIN TIMER_IF_Convert_ms2Tick */

  /* USER CODE END TIMER_IF_Convert_ms2Tick */
  return ret;
 8000982:	68fb      	ldr	r3, [r7, #12]
}
 8000984:	4618      	mov	r0, r3
 8000986:	3714      	adds	r7, #20
 8000988:	46bd      	mov	sp, r7
 800098a:	bc80      	pop	{r7}
 800098c:	4770      	bx	lr

0800098e <TIMER_IF_Convert_Tick2ms>:

uint32_t TIMER_IF_Convert_Tick2ms(uint32_t tick)
{
 800098e:	b480      	push	{r7}
 8000990:	b085      	sub	sp, #20
 8000992:	af00      	add	r7, sp, #0
 8000994:	6078      	str	r0, [r7, #4]
  uint32_t ret = 0;
 8000996:	2300      	movs	r3, #0
 8000998:	60fb      	str	r3, [r7, #12]
  /* USER CODE BEGIN TIMER_IF_Convert_Tick2ms */

  /* USER CODE END TIMER_IF_Convert_Tick2ms */
  return ret;
 800099a:	68fb      	ldr	r3, [r7, #12]
}
 800099c:	4618      	mov	r0, r3
 800099e:	3714      	adds	r7, #20
 80009a0:	46bd      	mov	sp, r7
 80009a2:	bc80      	pop	{r7}
 80009a4:	4770      	bx	lr

080009a6 <TIMER_IF_DelayMs>:

void TIMER_IF_DelayMs(uint32_t delay)
{
 80009a6:	b480      	push	{r7}
 80009a8:	b083      	sub	sp, #12
 80009aa:	af00      	add	r7, sp, #0
 80009ac:	6078      	str	r0, [r7, #4]
  /* USER CODE BEGIN TIMER_IF_DelayMs */

  /* USER CODE END TIMER_IF_DelayMs */
}
 80009ae:	bf00      	nop
 80009b0:	370c      	adds	r7, #12
 80009b2:	46bd      	mov	sp, r7
 80009b4:	bc80      	pop	{r7}
 80009b6:	4770      	bx	lr

080009b8 <Reset_Handler>:

  .section .text.Reset_Handler
  .weak Reset_Handler
  .type Reset_Handler, %function
Reset_Handler:
  ldr   r0, =_estack
 80009b8:	480d      	ldr	r0, [pc, #52]	@ (80009f0 <LoopForever+0x2>)
  mov   sp, r0          /* set stack pointer */
 80009ba:	4685      	mov	sp, r0

/* Call the clock system initialization function.*/
  bl  SystemInit
 80009bc:	f7ff ff7e 	bl	80008bc <SystemInit>

/* Copy the data segment initializers from flash to SRAM */
  ldr r0, =_sdata
 80009c0:	480c      	ldr	r0, [pc, #48]	@ (80009f4 <LoopForever+0x6>)
  ldr r1, =_edata
 80009c2:	490d      	ldr	r1, [pc, #52]	@ (80009f8 <LoopForever+0xa>)
  ldr r2, =_sidata
 80009c4:	4a0d      	ldr	r2, [pc, #52]	@ (80009fc <LoopForever+0xe>)
  movs r3, #0
 80009c6:	2300      	movs	r3, #0
  b LoopCopyDataInit
 80009c8:	e002      	b.n	80009d0 <LoopCopyDataInit>

080009ca <CopyDataInit>:

CopyDataInit:
  ldr r4, [r2, r3]
 80009ca:	58d4      	ldr	r4, [r2, r3]
  str r4, [r0, r3]
 80009cc:	50c4      	str	r4, [r0, r3]
  adds r3, r3, #4
 80009ce:	3304      	adds	r3, #4

080009d0 <LoopCopyDataInit>:

LoopCopyDataInit:
  adds r4, r0, r3
 80009d0:	18c4      	adds	r4, r0, r3
  cmp r4, r1
 80009d2:	428c      	cmp	r4, r1
  bcc CopyDataInit
 80009d4:	d3f9      	bcc.n	80009ca <CopyDataInit>

/* Zero fill the bss segment. */
  ldr r2, =_sbss
 80009d6:	4a0a      	ldr	r2, [pc, #40]	@ (8000a00 <LoopForever+0x12>)
  ldr r4, =_ebss
 80009d8:	4c0a      	ldr	r4, [pc, #40]	@ (8000a04 <LoopForever+0x16>)
  movs r3, #0
 80009da:	2300      	movs	r3, #0
  b LoopFillZerobss
 80009dc:	e001      	b.n	80009e2 <LoopFillZerobss>

080009de <FillZerobss>:

FillZerobss:
  str  r3, [r2]
 80009de:	6013      	str	r3, [r2, #0]
  adds r2, r2, #4
 80009e0:	3204      	adds	r2, #4

080009e2 <LoopFillZerobss>:

LoopFillZerobss:
  cmp r2, r4
 80009e2:	42a2      	cmp	r2, r4
  bcc FillZerobss
 80009e4:	d3fb      	bcc.n	80009de <FillZerobss>

/* Call static constructors */
  bl __libc_init_array
 80009e6:	f005 feab 	bl	8006740 <__libc_init_array>
/* Call the application's entry point.*/
  bl main
 80009ea:	f7ff fda9 	bl	8000540 <main>

080009ee <LoopForever>:

LoopForever:
    b LoopForever
 80009ee:	e7fe      	b.n	80009ee <LoopForever>
  ldr   r0, =_estack
 80009f0:	20010000 	.word	0x20010000
  ldr r0, =_sdata
 80009f4:	20000000 	.word	0x20000000
  ldr r1, =_edata
 80009f8:	20000068 	.word	0x20000068
  ldr r2, =_sidata
 80009fc:	0800744c 	.word	0x0800744c
  ldr r2, =_sbss
 8000a00:	20000068 	.word	0x20000068
  ldr r4, =_ebss
 8000a04:	200003e4 	.word	0x200003e4

08000a08 <ADC_IRQHandler>:
 * @retval : None
*/
  .section .text.Default_Handler,"ax",%progbits
Default_Handler:
Infinite_Loop:
  b Infinite_Loop
 8000a08:	e7fe      	b.n	8000a08 <ADC_IRQHandler>
	...

08000a0c <HAL_Init>:
  *         need to ensure that the SysTick time base is always set to 1 millisecond
  *         to have correct HAL operation.
  * @retval HAL status
  */
HAL_StatusTypeDef HAL_Init(void)
{
 8000a0c:	b580      	push	{r7, lr}
 8000a0e:	b082      	sub	sp, #8
 8000a10:	af00      	add	r7, sp, #0
  HAL_StatusTypeDef  status = HAL_OK;
 8000a12:	2300      	movs	r3, #0
 8000a14:	71fb      	strb	r3, [r7, #7]
#endif /* PREFETCH_ENABLE */

#ifdef CORE_CM0PLUS
#else
  /* Set Interrupt Group Priority */
  HAL_NVIC_SetPriorityGrouping(NVIC_PRIORITYGROUP_4);
 8000a16:	2003      	movs	r0, #3
 8000a18:	f000 f914 	bl	8000c44 <HAL_NVIC_SetPriorityGrouping>

  /* Update the SystemCoreClock global variable */
#if defined(DUAL_CORE) && defined(CORE_CM0PLUS)
  SystemCoreClock = HAL_RCC_GetHCLK2Freq();
#else
  SystemCoreClock = HAL_RCC_GetHCLKFreq();
 8000a1c:	f001 fa96 	bl	8001f4c <HAL_RCC_GetHCLKFreq>
 8000a20:	4603      	mov	r3, r0
 8000a22:	4a09      	ldr	r2, [pc, #36]	@ (8000a48 <HAL_Init+0x3c>)
 8000a24:	6013      	str	r3, [r2, #0]
#endif

  /* Use SysTick as time base source and configure 1ms tick (default clock after Reset is MSI) */
  if (HAL_InitTick(TICK_INT_PRIORITY) != HAL_OK)
 8000a26:	200f      	movs	r0, #15
 8000a28:	f000 f810 	bl	8000a4c <HAL_InitTick>
 8000a2c:	4603      	mov	r3, r0
 8000a2e:	2b00      	cmp	r3, #0
 8000a30:	d002      	beq.n	8000a38 <HAL_Init+0x2c>
  {
    status = HAL_ERROR;
 8000a32:	2301      	movs	r3, #1
 8000a34:	71fb      	strb	r3, [r7, #7]
 8000a36:	e001      	b.n	8000a3c <HAL_Init+0x30>
  }
  else
  {
    /* Init the low level hardware */
    HAL_MspInit();
 8000a38:	f7ff fe3c 	bl	80006b4 <HAL_MspInit>
  }

  /* Return function status */
  return status;
 8000a3c:	79fb      	ldrb	r3, [r7, #7]
}
 8000a3e:	4618      	mov	r0, r3
 8000a40:	3708      	adds	r7, #8
 8000a42:	46bd      	mov	sp, r7
 8000a44:	bd80      	pop	{r7, pc}
 8000a46:	bf00      	nop
 8000a48:	20000000 	.word	0x20000000

08000a4c <HAL_InitTick>:
  *       implementation  in user file.
  * @param TickPriority Tick interrupt priority.
  * @retval HAL status
  */
__weak HAL_StatusTypeDef HAL_InitTick(uint32_t TickPriority)
{
 8000a4c:	b580      	push	{r7, lr}
 8000a4e:	b084      	sub	sp, #16
 8000a50:	af00      	add	r7, sp, #0
 8000a52:	6078      	str	r0, [r7, #4]
  HAL_StatusTypeDef  status = HAL_OK;
 8000a54:	2300      	movs	r3, #0
 8000a56:	73fb      	strb	r3, [r7, #15]

  /* Check uwTickFreq for MisraC 2012 (even if uwTickFreq is a enum type that don't take the value zero)*/
  if ((uint32_t)uwTickFreq != 0U)
 8000a58:	4b17      	ldr	r3, [pc, #92]	@ (8000ab8 <HAL_InitTick+0x6c>)
 8000a5a:	781b      	ldrb	r3, [r3, #0]
 8000a5c:	2b00      	cmp	r3, #0
 8000a5e:	d024      	beq.n	8000aaa <HAL_InitTick+0x5e>
  {
    /*Configure the SysTick to have interrupt in 1ms time basis*/
#ifdef CORE_CM0PLUS
    if (HAL_SYSTICK_Config(HAL_RCC_GetHCLK2Freq() / (1000U / (uint32_t)uwTickFreq)) == 0U)
#else
    if (HAL_SYSTICK_Config(HAL_RCC_GetHCLKFreq() / (1000U / (uint32_t)uwTickFreq)) == 0U)
 8000a60:	f001 fa74 	bl	8001f4c <HAL_RCC_GetHCLKFreq>
 8000a64:	4602      	mov	r2, r0
 8000a66:	4b14      	ldr	r3, [pc, #80]	@ (8000ab8 <HAL_InitTick+0x6c>)
 8000a68:	781b      	ldrb	r3, [r3, #0]
 8000a6a:	4619      	mov	r1, r3
 8000a6c:	f44f 737a 	mov.w	r3, #1000	@ 0x3e8
 8000a70:	fbb3 f3f1 	udiv	r3, r3, r1
 8000a74:	fbb2 f3f3 	udiv	r3, r2, r3
 8000a78:	4618      	mov	r0, r3
 8000a7a:	f000 f908 	bl	8000c8e <HAL_SYSTICK_Config>
 8000a7e:	4603      	mov	r3, r0
 8000a80:	2b00      	cmp	r3, #0
 8000a82:	d10f      	bne.n	8000aa4 <HAL_InitTick+0x58>
#endif
    {
      /* Configure the SysTick IRQ priority */
      if (TickPriority < (1UL << __NVIC_PRIO_BITS))
 8000a84:	687b      	ldr	r3, [r7, #4]
 8000a86:	2b0f      	cmp	r3, #15
 8000a88:	d809      	bhi.n	8000a9e <HAL_InitTick+0x52>
      {
        HAL_NVIC_SetPriority(SysTick_IRQn, TickPriority, 0U);
 8000a8a:	2200      	movs	r2, #0
 8000a8c:	6879      	ldr	r1, [r7, #4]
 8000a8e:	f04f 30ff 	mov.w	r0, #4294967295	@ 0xffffffff
 8000a92:	f000 f8e2 	bl	8000c5a <HAL_NVIC_SetPriority>
        uwTickPrio = TickPriority;
 8000a96:	4a09      	ldr	r2, [pc, #36]	@ (8000abc <HAL_InitTick+0x70>)
 8000a98:	687b      	ldr	r3, [r7, #4]
 8000a9a:	6013      	str	r3, [r2, #0]
 8000a9c:	e007      	b.n	8000aae <HAL_InitTick+0x62>
      }
      else
      {
        status = HAL_ERROR;
 8000a9e:	2301      	movs	r3, #1
 8000aa0:	73fb      	strb	r3, [r7, #15]
 8000aa2:	e004      	b.n	8000aae <HAL_InitTick+0x62>
      }
    }
    else
    {
      status = HAL_ERROR;
 8000aa4:	2301      	movs	r3, #1
 8000aa6:	73fb      	strb	r3, [r7, #15]
 8000aa8:	e001      	b.n	8000aae <HAL_InitTick+0x62>
    }
  }
  else
  {
    status = HAL_ERROR;
 8000aaa:	2301      	movs	r3, #1
 8000aac:	73fb      	strb	r3, [r7, #15]
  }

  /* Return function status */
  return status;
 8000aae:	7bfb      	ldrb	r3, [r7, #15]
}
 8000ab0:	4618      	mov	r0, r3
 8000ab2:	3710      	adds	r7, #16
 8000ab4:	46bd      	mov	sp, r7
 8000ab6:	bd80      	pop	{r7, pc}
 8000ab8:	20000008 	.word	0x20000008
 8000abc:	20000004 	.word	0x20000004

08000ac0 <HAL_IncTick>:
  * @note This function is declared as __weak to be overwritten in case of other
  *      implementations in user file.
  * @retval None
  */
__weak void HAL_IncTick(void)
{
 8000ac0:	b480      	push	{r7}
 8000ac2:	af00      	add	r7, sp, #0
  uwTick += (uint32_t)uwTickFreq;
 8000ac4:	4b05      	ldr	r3, [pc, #20]	@ (8000adc <HAL_IncTick+0x1c>)
 8000ac6:	781b      	ldrb	r3, [r3, #0]
 8000ac8:	461a      	mov	r2, r3
 8000aca:	4b05      	ldr	r3, [pc, #20]	@ (8000ae0 <HAL_IncTick+0x20>)
 8000acc:	681b      	ldr	r3, [r3, #0]
 8000ace:	4413      	add	r3, r2
 8000ad0:	4a03      	ldr	r2, [pc, #12]	@ (8000ae0 <HAL_IncTick+0x20>)
 8000ad2:	6013      	str	r3, [r2, #0]
}
 8000ad4:	bf00      	nop
 8000ad6:	46bd      	mov	sp, r7
 8000ad8:	bc80      	pop	{r7}
 8000ada:	4770      	bx	lr
 8000adc:	20000008 	.word	0x20000008
 8000ae0:	2000009c 	.word	0x2000009c

08000ae4 <__NVIC_SetPriorityGrouping>:
           In case of a conflict between priority grouping and available
           priority bits (__NVIC_PRIO_BITS), the smallest possible priority group is set.
  \param [in]      PriorityGroup  Priority grouping field.
 */
__STATIC_INLINE void __NVIC_SetPriorityGrouping(uint32_t PriorityGroup)
{
 8000ae4:	b480      	push	{r7}
 8000ae6:	b085      	sub	sp, #20
 8000ae8:	af00      	add	r7, sp, #0
 8000aea:	6078      	str	r0, [r7, #4]
  uint32_t reg_value;
  uint32_t PriorityGroupTmp = (PriorityGroup & (uint32_t)0x07UL);             /* only values 0..7 are used          */
 8000aec:	687b      	ldr	r3, [r7, #4]
 8000aee:	f003 0307 	and.w	r3, r3, #7
 8000af2:	60fb      	str	r3, [r7, #12]

  reg_value  =  SCB->AIRCR;                                                   /* read old register configuration    */
 8000af4:	4b0c      	ldr	r3, [pc, #48]	@ (8000b28 <__NVIC_SetPriorityGrouping+0x44>)
 8000af6:	68db      	ldr	r3, [r3, #12]
 8000af8:	60bb      	str	r3, [r7, #8]
  reg_value &= ~((uint32_t)(SCB_AIRCR_VECTKEY_Msk | SCB_AIRCR_PRIGROUP_Msk)); /* clear bits to change               */
 8000afa:	68ba      	ldr	r2, [r7, #8]
 8000afc:	f64f 03ff 	movw	r3, #63743	@ 0xf8ff
 8000b00:	4013      	ands	r3, r2
 8000b02:	60bb      	str	r3, [r7, #8]
  reg_value  =  (reg_value                                   |
                ((uint32_t)0x5FAUL << SCB_AIRCR_VECTKEY_Pos) |
                (PriorityGroupTmp << SCB_AIRCR_PRIGROUP_Pos)  );              /* Insert write key and priority group */
 8000b04:	68fb      	ldr	r3, [r7, #12]
 8000b06:	021a      	lsls	r2, r3, #8
                ((uint32_t)0x5FAUL << SCB_AIRCR_VECTKEY_Pos) |
 8000b08:	68bb      	ldr	r3, [r7, #8]
 8000b0a:	4313      	orrs	r3, r2
  reg_value  =  (reg_value                                   |
 8000b0c:	f043 63bf 	orr.w	r3, r3, #100139008	@ 0x5f80000
 8000b10:	f443 3300 	orr.w	r3, r3, #131072	@ 0x20000
 8000b14:	60bb      	str	r3, [r7, #8]
  SCB->AIRCR =  reg_value;
 8000b16:	4a04      	ldr	r2, [pc, #16]	@ (8000b28 <__NVIC_SetPriorityGrouping+0x44>)
 8000b18:	68bb      	ldr	r3, [r7, #8]
 8000b1a:	60d3      	str	r3, [r2, #12]
}
 8000b1c:	bf00      	nop
 8000b1e:	3714      	adds	r7, #20
 8000b20:	46bd      	mov	sp, r7
 8000b22:	bc80      	pop	{r7}
 8000b24:	4770      	bx	lr
 8000b26:	bf00      	nop
 8000b28:	e000ed00 	.word	0xe000ed00

08000b2c <__NVIC_GetPriorityGrouping>:
  \brief   Get Priority Grouping
  \details Reads the priority grouping field from the NVIC Interrupt Controller.
  \return                Priority grouping field (SCB->AIRCR [10:8] PRIGROUP field).
 */
__STATIC_INLINE uint32_t __NVIC_GetPriorityGrouping(void)
{
 8000b2c:	b480      	push	{r7}
 8000b2e:	af00      	add	r7, sp, #0
  return ((uint32_t)((SCB->AIRCR & SCB_AIRCR_PRIGROUP_Msk) >> SCB_AIRCR_PRIGROUP_Pos));
 8000b30:	4b04      	ldr	r3, [pc, #16]	@ (8000b44 <__NVIC_GetPriorityGrouping+0x18>)
 8000b32:	68db      	ldr	r3, [r3, #12]
 8000b34:	0a1b      	lsrs	r3, r3, #8
 8000b36:	f003 0307 	and.w	r3, r3, #7
}
 8000b3a:	4618      	mov	r0, r3
 8000b3c:	46bd      	mov	sp, r7
 8000b3e:	bc80      	pop	{r7}
 8000b40:	4770      	bx	lr
 8000b42:	bf00      	nop
 8000b44:	e000ed00 	.word	0xe000ed00

08000b48 <__NVIC_SetPriority>:
  \param [in]      IRQn  Interrupt number.
  \param [in]  priority  Priority to set.
  \note    The priority cannot be set for every processor exception.
 */
__STATIC_INLINE void __NVIC_SetPriority(IRQn_Type IRQn, uint32_t priority)
{
 8000b48:	b480      	push	{r7}
 8000b4a:	b083      	sub	sp, #12
 8000b4c:	af00      	add	r7, sp, #0
 8000b4e:	4603      	mov	r3, r0
 8000b50:	6039      	str	r1, [r7, #0]
 8000b52:	71fb      	strb	r3, [r7, #7]
  if ((int32_t)(IRQn) >= 0)
 8000b54:	f997 3007 	ldrsb.w	r3, [r7, #7]
 8000b58:	2b00      	cmp	r3, #0
 8000b5a:	db0a      	blt.n	8000b72 <__NVIC_SetPriority+0x2a>
  {
    NVIC->IP[((uint32_t)IRQn)]               = (uint8_t)((priority << (8U - __NVIC_PRIO_BITS)) & (uint32_t)0xFFUL);
 8000b5c:	683b      	ldr	r3, [r7, #0]
 8000b5e:	b2da      	uxtb	r2, r3
 8000b60:	490c      	ldr	r1, [pc, #48]	@ (8000b94 <__NVIC_SetPriority+0x4c>)
 8000b62:	f997 3007 	ldrsb.w	r3, [r7, #7]
 8000b66:	0112      	lsls	r2, r2, #4
 8000b68:	b2d2      	uxtb	r2, r2
 8000b6a:	440b      	add	r3, r1
 8000b6c:	f883 2300 	strb.w	r2, [r3, #768]	@ 0x300
  }
  else
  {
    SCB->SHP[(((uint32_t)IRQn) & 0xFUL)-4UL] = (uint8_t)((priority << (8U - __NVIC_PRIO_BITS)) & (uint32_t)0xFFUL);
  }
}
 8000b70:	e00a      	b.n	8000b88 <__NVIC_SetPriority+0x40>
    SCB->SHP[(((uint32_t)IRQn) & 0xFUL)-4UL] = (uint8_t)((priority << (8U - __NVIC_PRIO_BITS)) & (uint32_t)0xFFUL);
 8000b72:	683b      	ldr	r3, [r7, #0]
 8000b74:	b2da      	uxtb	r2, r3
 8000b76:	4908      	ldr	r1, [pc, #32]	@ (8000b98 <__NVIC_SetPriority+0x50>)
 8000b78:	79fb      	ldrb	r3, [r7, #7]
 8000b7a:	f003 030f 	and.w	r3, r3, #15
 8000b7e:	3b04      	subs	r3, #4
 8000b80:	0112      	lsls	r2, r2, #4
 8000b82:	b2d2      	uxtb	r2, r2
 8000b84:	440b      	add	r3, r1
 8000b86:	761a      	strb	r2, [r3, #24]
}
 8000b88:	bf00      	nop
 8000b8a:	370c      	adds	r7, #12
 8000b8c:	46bd      	mov	sp, r7
 8000b8e:	bc80      	pop	{r7}
 8000b90:	4770      	bx	lr
 8000b92:	bf00      	nop
 8000b94:	e000e100 	.word	0xe000e100
 8000b98:	e000ed00 	.word	0xe000ed00

08000b9c <NVIC_EncodePriority>:
  \param [in]   PreemptPriority  Preemptive priority value (starting from 0).
  \param [in]       SubPriority  Subpriority value (starting from 0).
  \return                        Encoded priority. Value can be used in the function \ref NVIC_SetPriority().
 */
__STATIC_INLINE uint32_t NVIC_EncodePriority (uint32_t PriorityGroup, uint32_t PreemptPriority, uint32_t SubPriority)
{
 8000b9c:	b480      	push	{r7}
 8000b9e:	b089      	sub	sp, #36	@ 0x24
 8000ba0:	af00      	add	r7, sp, #0
 8000ba2:	60f8      	str	r0, [r7, #12]
 8000ba4:	60b9      	str	r1, [r7, #8]
 8000ba6:	607a      	str	r2, [r7, #4]
  uint32_t PriorityGroupTmp = (PriorityGroup & (uint32_t)0x07UL);   /* only values 0..7 are used          */
 8000ba8:	68fb      	ldr	r3, [r7, #12]
 8000baa:	f003 0307 	and.w	r3, r3, #7
 8000bae:	61fb      	str	r3, [r7, #28]
  uint32_t PreemptPriorityBits;
  uint32_t SubPriorityBits;

  PreemptPriorityBits = ((7UL - PriorityGroupTmp) > (uint32_t)(__NVIC_PRIO_BITS)) ? (uint32_t)(__NVIC_PRIO_BITS) : (uint32_t)(7UL - PriorityGroupTmp);
 8000bb0:	69fb      	ldr	r3, [r7, #28]
 8000bb2:	f1c3 0307 	rsb	r3, r3, #7
 8000bb6:	2b04      	cmp	r3, #4
 8000bb8:	bf28      	it	cs
 8000bba:	2304      	movcs	r3, #4
 8000bbc:	61bb      	str	r3, [r7, #24]
  SubPriorityBits     = ((PriorityGroupTmp + (uint32_t)(__NVIC_PRIO_BITS)) < (uint32_t)7UL) ? (uint32_t)0UL : (uint32_t)((PriorityGroupTmp - 7UL) + (uint32_t)(__NVIC_PRIO_BITS));
 8000bbe:	69fb      	ldr	r3, [r7, #28]
 8000bc0:	3304      	adds	r3, #4
 8000bc2:	2b06      	cmp	r3, #6
 8000bc4:	d902      	bls.n	8000bcc <NVIC_EncodePriority+0x30>
 8000bc6:	69fb      	ldr	r3, [r7, #28]
 8000bc8:	3b03      	subs	r3, #3
 8000bca:	e000      	b.n	8000bce <NVIC_EncodePriority+0x32>
 8000bcc:	2300      	movs	r3, #0
 8000bce:	617b      	str	r3, [r7, #20]

  return (
           ((PreemptPriority & (uint32_t)((1UL << (PreemptPriorityBits)) - 1UL)) << SubPriorityBits) |
 8000bd0:	f04f 32ff 	mov.w	r2, #4294967295	@ 0xffffffff
 8000bd4:	69bb      	ldr	r3, [r7, #24]
 8000bd6:	fa02 f303 	lsl.w	r3, r2, r3
 8000bda:	43da      	mvns	r2, r3
 8000bdc:	68bb      	ldr	r3, [r7, #8]
 8000bde:	401a      	ands	r2, r3
 8000be0:	697b      	ldr	r3, [r7, #20]
 8000be2:	409a      	lsls	r2, r3
           ((SubPriority     & (uint32_t)((1UL << (SubPriorityBits    )) - 1UL)))
 8000be4:	f04f 31ff 	mov.w	r1, #4294967295	@ 0xffffffff
 8000be8:	697b      	ldr	r3, [r7, #20]
 8000bea:	fa01 f303 	lsl.w	r3, r1, r3
 8000bee:	43d9      	mvns	r1, r3
 8000bf0:	687b      	ldr	r3, [r7, #4]
 8000bf2:	400b      	ands	r3, r1
           ((PreemptPriority & (uint32_t)((1UL << (PreemptPriorityBits)) - 1UL)) << SubPriorityBits) |
 8000bf4:	4313      	orrs	r3, r2
         );
}
 8000bf6:	4618      	mov	r0, r3
 8000bf8:	3724      	adds	r7, #36	@ 0x24
 8000bfa:	46bd      	mov	sp, r7
 8000bfc:	bc80      	pop	{r7}
 8000bfe:	4770      	bx	lr

08000c00 <SysTick_Config>:
  \note    When the variable <b>__Vendor_SysTickConfig</b> is set to 1, then the
           function <b>SysTick_Config</b> is not included. In this case, the file <b><i>device</i>.h</b>
           must contain a vendor-specific implementation of this function.
 */
__STATIC_INLINE uint32_t SysTick_Config(uint32_t ticks)
{
 8000c00:	b580      	push	{r7, lr}
 8000c02:	b082      	sub	sp, #8
 8000c04:	af00      	add	r7, sp, #0
 8000c06:	6078      	str	r0, [r7, #4]
  if ((ticks - 1UL) > SysTick_LOAD_RELOAD_Msk)
 8000c08:	687b      	ldr	r3, [r7, #4]
 8000c0a:	3b01      	subs	r3, #1
 8000c0c:	f1b3 7f80 	cmp.w	r3, #16777216	@ 0x1000000
 8000c10:	d301      	bcc.n	8000c16 <SysTick_Config+0x16>
  {
    return (1UL);                                                   /* Reload value impossible */
 8000c12:	2301      	movs	r3, #1
 8000c14:	e00f      	b.n	8000c36 <SysTick_Config+0x36>
  }

  SysTick->LOAD  = (uint32_t)(ticks - 1UL);                         /* set reload register */
 8000c16:	4a0a      	ldr	r2, [pc, #40]	@ (8000c40 <SysTick_Config+0x40>)
 8000c18:	687b      	ldr	r3, [r7, #4]
 8000c1a:	3b01      	subs	r3, #1
 8000c1c:	6053      	str	r3, [r2, #4]
  NVIC_SetPriority (SysTick_IRQn, (1UL << __NVIC_PRIO_BITS) - 1UL); /* set Priority for Systick Interrupt */
 8000c1e:	210f      	movs	r1, #15
 8000c20:	f04f 30ff 	mov.w	r0, #4294967295	@ 0xffffffff
 8000c24:	f7ff ff90 	bl	8000b48 <__NVIC_SetPriority>
  SysTick->VAL   = 0UL;                                             /* Load the SysTick Counter Value */
 8000c28:	4b05      	ldr	r3, [pc, #20]	@ (8000c40 <SysTick_Config+0x40>)
 8000c2a:	2200      	movs	r2, #0
 8000c2c:	609a      	str	r2, [r3, #8]
  SysTick->CTRL  = SysTick_CTRL_CLKSOURCE_Msk |
 8000c2e:	4b04      	ldr	r3, [pc, #16]	@ (8000c40 <SysTick_Config+0x40>)
 8000c30:	2207      	movs	r2, #7
 8000c32:	601a      	str	r2, [r3, #0]
                   SysTick_CTRL_TICKINT_Msk   |
                   SysTick_CTRL_ENABLE_Msk;                         /* Enable SysTick IRQ and SysTick Timer */
  return (0UL);                                                     /* Function successful */
 8000c34:	2300      	movs	r3, #0
}
 8000c36:	4618      	mov	r0, r3
 8000c38:	3708      	adds	r7, #8
 8000c3a:	46bd      	mov	sp, r7
 8000c3c:	bd80      	pop	{r7, pc}
 8000c3e:	bf00      	nop
 8000c40:	e000e010 	.word	0xe000e010

08000c44 <HAL_NVIC_SetPriorityGrouping>:
  * @note   When the NVIC_PriorityGroup_0 is selected, IRQ pre-emption is no more possible.
  *         The pending IRQ priority will be managed only by the subpriority.
  * @retval None
  */
void HAL_NVIC_SetPriorityGrouping(uint32_t PriorityGroup)
{
 8000c44:	b580      	push	{r7, lr}
 8000c46:	b082      	sub	sp, #8
 8000c48:	af00      	add	r7, sp, #0
 8000c4a:	6078      	str	r0, [r7, #4]
  /* Check the parameters */
  assert_param(IS_NVIC_PRIORITY_GROUP(PriorityGroup));

  /* Set the PRIGROUP[10:8] bits according to the PriorityGroup parameter value */
  NVIC_SetPriorityGrouping(PriorityGroup);
 8000c4c:	6878      	ldr	r0, [r7, #4]
 8000c4e:	f7ff ff49 	bl	8000ae4 <__NVIC_SetPriorityGrouping>
}
 8000c52:	bf00      	nop
 8000c54:	3708      	adds	r7, #8
 8000c56:	46bd      	mov	sp, r7
 8000c58:	bd80      	pop	{r7, pc}

08000c5a <HAL_NVIC_SetPriority>:
  *         This parameter can be a value between 0 and 15
  *         A lower priority value indicates a higher priority.
  * @retval None
  */
void HAL_NVIC_SetPriority(IRQn_Type IRQn, uint32_t PreemptPriority, uint32_t SubPriority)
{
 8000c5a:	b580      	push	{r7, lr}
 8000c5c:	b086      	sub	sp, #24
 8000c5e:	af00      	add	r7, sp, #0
 8000c60:	4603      	mov	r3, r0
 8000c62:	60b9      	str	r1, [r7, #8]
 8000c64:	607a      	str	r2, [r7, #4]
 8000c66:	73fb      	strb	r3, [r7, #15]

  /* Check the parameters */
  assert_param(IS_NVIC_SUB_PRIORITY(SubPriority));
  assert_param(IS_NVIC_PREEMPTION_PRIORITY(PreemptPriority));

  prioritygroup = NVIC_GetPriorityGrouping();
 8000c68:	f7ff ff60 	bl	8000b2c <__NVIC_GetPriorityGrouping>
 8000c6c:	6178      	str	r0, [r7, #20]

  NVIC_SetPriority(IRQn, NVIC_EncodePriority(prioritygroup, PreemptPriority, SubPriority));
 8000c6e:	687a      	ldr	r2, [r7, #4]
 8000c70:	68b9      	ldr	r1, [r7, #8]
 8000c72:	6978      	ldr	r0, [r7, #20]
 8000c74:	f7ff ff92 	bl	8000b9c <NVIC_EncodePriority>
 8000c78:	4602      	mov	r2, r0
 8000c7a:	f997 300f 	ldrsb.w	r3, [r7, #15]
 8000c7e:	4611      	mov	r1, r2
 8000c80:	4618      	mov	r0, r3
 8000c82:	f7ff ff61 	bl	8000b48 <__NVIC_SetPriority>
}
 8000c86:	bf00      	nop
 8000c88:	3718      	adds	r7, #24
 8000c8a:	46bd      	mov	sp, r7
 8000c8c:	bd80      	pop	{r7, pc}

08000c8e <HAL_SYSTICK_Config>:
  * @param TicksNumb Specifies the ticks Number of ticks between two interrupts.
  * @retval status:  - 0  Function succeeded.
  *                  - 1  Function failed.
  */
uint32_t HAL_SYSTICK_Config(uint32_t TicksNumb)
{
 8000c8e:	b580      	push	{r7, lr}
 8000c90:	b082      	sub	sp, #8
 8000c92:	af00      	add	r7, sp, #0
 8000c94:	6078      	str	r0, [r7, #4]
  return SysTick_Config(TicksNumb);
 8000c96:	6878      	ldr	r0, [r7, #4]
 8000c98:	f7ff ffb2 	bl	8000c00 <SysTick_Config>
 8000c9c:	4603      	mov	r3, r0
}
 8000c9e:	4618      	mov	r0, r3
 8000ca0:	3708      	adds	r7, #8
 8000ca2:	46bd      	mov	sp, r7
 8000ca4:	bd80      	pop	{r7, pc}
	...

08000ca8 <HAL_GPIO_Init>:
  * @param GPIO_Init pointer to a GPIO_InitTypeDef structure that contains
  *         the configuration information for the specified GPIO peripheral.
  * @retval None
  */
void HAL_GPIO_Init(GPIO_TypeDef  *GPIOx, GPIO_InitTypeDef *GPIO_Init)
{
 8000ca8:	b480      	push	{r7}
 8000caa:	b087      	sub	sp, #28
 8000cac:	af00      	add	r7, sp, #0
 8000cae:	6078      	str	r0, [r7, #4]
 8000cb0:	6039      	str	r1, [r7, #0]
  uint32_t position = 0x00u;
 8000cb2:	2300      	movs	r3, #0
 8000cb4:	617b      	str	r3, [r7, #20]
  assert_param(IS_GPIO_PIN(GPIO_Init->Pin));
  assert_param(IS_GPIO_MODE(GPIO_Init->Mode));
  assert_param(IS_GPIO_PULL(GPIO_Init->Pull));

  /* Configure the port pins */
  while (((GPIO_Init->Pin) >> position) != 0x00u)
 8000cb6:	e140      	b.n	8000f3a <HAL_GPIO_Init+0x292>
  {
    /* Get current io position */
    iocurrent = (GPIO_Init->Pin) & (1uL << position);
 8000cb8:	683b      	ldr	r3, [r7, #0]
 8000cba:	681a      	ldr	r2, [r3, #0]
 8000cbc:	2101      	movs	r1, #1
 8000cbe:	697b      	ldr	r3, [r7, #20]
 8000cc0:	fa01 f303 	lsl.w	r3, r1, r3
 8000cc4:	4013      	ands	r3, r2
 8000cc6:	60fb      	str	r3, [r7, #12]

    if (iocurrent != 0x00u)
 8000cc8:	68fb      	ldr	r3, [r7, #12]
 8000cca:	2b00      	cmp	r3, #0
 8000ccc:	f000 8132 	beq.w	8000f34 <HAL_GPIO_Init+0x28c>
    {
      /*--------------------- GPIO Mode Configuration ------------------------*/
      /* In case of Output or Alternate function mode selection */
      if (((GPIO_Init->Mode & GPIO_MODE) == MODE_OUTPUT) || ((GPIO_Init->Mode & GPIO_MODE) == MODE_AF))
 8000cd0:	683b      	ldr	r3, [r7, #0]
 8000cd2:	685b      	ldr	r3, [r3, #4]
 8000cd4:	f003 0303 	and.w	r3, r3, #3
 8000cd8:	2b01      	cmp	r3, #1
 8000cda:	d005      	beq.n	8000ce8 <HAL_GPIO_Init+0x40>
 8000cdc:	683b      	ldr	r3, [r7, #0]
 8000cde:	685b      	ldr	r3, [r3, #4]
 8000ce0:	f003 0303 	and.w	r3, r3, #3
 8000ce4:	2b02      	cmp	r3, #2
 8000ce6:	d130      	bne.n	8000d4a <HAL_GPIO_Init+0xa2>
      {
        /* Check the Speed parameter */
        assert_param(IS_GPIO_SPEED(GPIO_Init->Speed));
        /* Configure the IO Speed */
        temp = GPIOx->OSPEEDR;
 8000ce8:	687b      	ldr	r3, [r7, #4]
 8000cea:	689b      	ldr	r3, [r3, #8]
 8000cec:	613b      	str	r3, [r7, #16]
        temp &= ~(GPIO_OSPEEDR_OSPEED0 << (position * 2U));
 8000cee:	697b      	ldr	r3, [r7, #20]
 8000cf0:	005b      	lsls	r3, r3, #1
 8000cf2:	2203      	movs	r2, #3
 8000cf4:	fa02 f303 	lsl.w	r3, r2, r3
 8000cf8:	43db      	mvns	r3, r3
 8000cfa:	693a      	ldr	r2, [r7, #16]
 8000cfc:	4013      	ands	r3, r2
 8000cfe:	613b      	str	r3, [r7, #16]
        temp |= (GPIO_Init->Speed << (position * 2U));
 8000d00:	683b      	ldr	r3, [r7, #0]
 8000d02:	68da      	ldr	r2, [r3, #12]
 8000d04:	697b      	ldr	r3, [r7, #20]
 8000d06:	005b      	lsls	r3, r3, #1
 8000d08:	fa02 f303 	lsl.w	r3, r2, r3
 8000d0c:	693a      	ldr	r2, [r7, #16]
 8000d0e:	4313      	orrs	r3, r2
 8000d10:	613b      	str	r3, [r7, #16]
        GPIOx->OSPEEDR = temp;
 8000d12:	687b      	ldr	r3, [r7, #4]
 8000d14:	693a      	ldr	r2, [r7, #16]
 8000d16:	609a      	str	r2, [r3, #8]

        /* Configure the IO Output Type */
        temp = GPIOx->OTYPER;
 8000d18:	687b      	ldr	r3, [r7, #4]
 8000d1a:	685b      	ldr	r3, [r3, #4]
 8000d1c:	613b      	str	r3, [r7, #16]
        temp &= ~(GPIO_OTYPER_OT0 << position) ;
 8000d1e:	2201      	movs	r2, #1
 8000d20:	697b      	ldr	r3, [r7, #20]
 8000d22:	fa02 f303 	lsl.w	r3, r2, r3
 8000d26:	43db      	mvns	r3, r3
 8000d28:	693a      	ldr	r2, [r7, #16]
 8000d2a:	4013      	ands	r3, r2
 8000d2c:	613b      	str	r3, [r7, #16]
        temp |= (((GPIO_Init->Mode & OUTPUT_TYPE) >> OUTPUT_TYPE_Pos) << position);
 8000d2e:	683b      	ldr	r3, [r7, #0]
 8000d30:	685b      	ldr	r3, [r3, #4]
 8000d32:	091b      	lsrs	r3, r3, #4
 8000d34:	f003 0201 	and.w	r2, r3, #1
 8000d38:	697b      	ldr	r3, [r7, #20]
 8000d3a:	fa02 f303 	lsl.w	r3, r2, r3
 8000d3e:	693a      	ldr	r2, [r7, #16]
 8000d40:	4313      	orrs	r3, r2
 8000d42:	613b      	str	r3, [r7, #16]
        GPIOx->OTYPER = temp;
 8000d44:	687b      	ldr	r3, [r7, #4]
 8000d46:	693a      	ldr	r2, [r7, #16]
 8000d48:	605a      	str	r2, [r3, #4]
      }

      /* Activate the Pull-up or Pull down resistor for the current IO */
      if ((GPIO_Init->Mode & GPIO_MODE) != MODE_ANALOG)
 8000d4a:	683b      	ldr	r3, [r7, #0]
 8000d4c:	685b      	ldr	r3, [r3, #4]
 8000d4e:	f003 0303 	and.w	r3, r3, #3
 8000d52:	2b03      	cmp	r3, #3
 8000d54:	d017      	beq.n	8000d86 <HAL_GPIO_Init+0xde>
      {
        temp = GPIOx->PUPDR;
 8000d56:	687b      	ldr	r3, [r7, #4]
 8000d58:	68db      	ldr	r3, [r3, #12]
 8000d5a:	613b      	str	r3, [r7, #16]
        temp &= ~(GPIO_PUPDR_PUPD0 << (position * 2U));
 8000d5c:	697b      	ldr	r3, [r7, #20]
 8000d5e:	005b      	lsls	r3, r3, #1
 8000d60:	2203      	movs	r2, #3
 8000d62:	fa02 f303 	lsl.w	r3, r2, r3
 8000d66:	43db      	mvns	r3, r3
 8000d68:	693a      	ldr	r2, [r7, #16]
 8000d6a:	4013      	ands	r3, r2
 8000d6c:	613b      	str	r3, [r7, #16]
        temp |= ((GPIO_Init->Pull) << (position * 2U));
 8000d6e:	683b      	ldr	r3, [r7, #0]
 8000d70:	689a      	ldr	r2, [r3, #8]
 8000d72:	697b      	ldr	r3, [r7, #20]
 8000d74:	005b      	lsls	r3, r3, #1
 8000d76:	fa02 f303 	lsl.w	r3, r2, r3
 8000d7a:	693a      	ldr	r2, [r7, #16]
 8000d7c:	4313      	orrs	r3, r2
 8000d7e:	613b      	str	r3, [r7, #16]
        GPIOx->PUPDR = temp;
 8000d80:	687b      	ldr	r3, [r7, #4]
 8000d82:	693a      	ldr	r2, [r7, #16]
 8000d84:	60da      	str	r2, [r3, #12]
      }

      /* In case of Alternate function mode selection */
      if ((GPIO_Init->Mode & GPIO_MODE) == MODE_AF)
 8000d86:	683b      	ldr	r3, [r7, #0]
 8000d88:	685b      	ldr	r3, [r3, #4]
 8000d8a:	f003 0303 	and.w	r3, r3, #3
 8000d8e:	2b02      	cmp	r3, #2
 8000d90:	d123      	bne.n	8000dda <HAL_GPIO_Init+0x132>
        /* Check the Alternate function parameters */
        assert_param(IS_GPIO_AF_INSTANCE(GPIOx));
        assert_param(IS_GPIO_AF(GPIO_Init->Alternate));

        /* Configure Alternate function mapped with the current IO */
        temp = GPIOx->AFR[position >> 3U];
 8000d92:	697b      	ldr	r3, [r7, #20]
 8000d94:	08da      	lsrs	r2, r3, #3
 8000d96:	687b      	ldr	r3, [r7, #4]
 8000d98:	3208      	adds	r2, #8
 8000d9a:	f853 3022 	ldr.w	r3, [r3, r2, lsl #2]
 8000d9e:	613b      	str	r3, [r7, #16]
        temp &= ~(0xFU << ((position & 0x07U) * 4U));
 8000da0:	697b      	ldr	r3, [r7, #20]
 8000da2:	f003 0307 	and.w	r3, r3, #7
 8000da6:	009b      	lsls	r3, r3, #2
 8000da8:	220f      	movs	r2, #15
 8000daa:	fa02 f303 	lsl.w	r3, r2, r3
 8000dae:	43db      	mvns	r3, r3
 8000db0:	693a      	ldr	r2, [r7, #16]
 8000db2:	4013      	ands	r3, r2
 8000db4:	613b      	str	r3, [r7, #16]
        temp |= ((GPIO_Init->Alternate) << ((position & 0x07U) * 4U));
 8000db6:	683b      	ldr	r3, [r7, #0]
 8000db8:	691a      	ldr	r2, [r3, #16]
 8000dba:	697b      	ldr	r3, [r7, #20]
 8000dbc:	f003 0307 	and.w	r3, r3, #7
 8000dc0:	009b      	lsls	r3, r3, #2
 8000dc2:	fa02 f303 	lsl.w	r3, r2, r3
 8000dc6:	693a      	ldr	r2, [r7, #16]
 8000dc8:	4313      	orrs	r3, r2
 8000dca:	613b      	str	r3, [r7, #16]
        GPIOx->AFR[position >> 3u] = temp;
 8000dcc:	697b      	ldr	r3, [r7, #20]
 8000dce:	08da      	lsrs	r2, r3, #3
 8000dd0:	687b      	ldr	r3, [r7, #4]
 8000dd2:	3208      	adds	r2, #8
 8000dd4:	6939      	ldr	r1, [r7, #16]
 8000dd6:	f843 1022 	str.w	r1, [r3, r2, lsl #2]
      }

      /* Configure IO Direction mode (Input, Output, Alternate or Analog) */
      temp = GPIOx->MODER;
 8000dda:	687b      	ldr	r3, [r7, #4]
 8000ddc:	681b      	ldr	r3, [r3, #0]
 8000dde:	613b      	str	r3, [r7, #16]
      temp &= ~(GPIO_MODER_MODE0 << (position * 2U));
 8000de0:	697b      	ldr	r3, [r7, #20]
 8000de2:	005b      	lsls	r3, r3, #1
 8000de4:	2203      	movs	r2, #3
 8000de6:	fa02 f303 	lsl.w	r3, r2, r3
 8000dea:	43db      	mvns	r3, r3
 8000dec:	693a      	ldr	r2, [r7, #16]
 8000dee:	4013      	ands	r3, r2
 8000df0:	613b      	str	r3, [r7, #16]
      temp |= ((GPIO_Init->Mode & GPIO_MODE) << (position * 2U));
 8000df2:	683b      	ldr	r3, [r7, #0]
 8000df4:	685b      	ldr	r3, [r3, #4]
 8000df6:	f003 0203 	and.w	r2, r3, #3
 8000dfa:	697b      	ldr	r3, [r7, #20]
 8000dfc:	005b      	lsls	r3, r3, #1
 8000dfe:	fa02 f303 	lsl.w	r3, r2, r3
 8000e02:	693a      	ldr	r2, [r7, #16]
 8000e04:	4313      	orrs	r3, r2
 8000e06:	613b      	str	r3, [r7, #16]
      GPIOx->MODER = temp;
 8000e08:	687b      	ldr	r3, [r7, #4]
 8000e0a:	693a      	ldr	r2, [r7, #16]
 8000e0c:	601a      	str	r2, [r3, #0]

      /*--------------------- EXTI Mode Configuration ------------------------*/
      /* Configure the External Interrupt or event for the current IO */
      if ((GPIO_Init->Mode & EXTI_MODE) != 0x00u)
 8000e0e:	683b      	ldr	r3, [r7, #0]
 8000e10:	685b      	ldr	r3, [r3, #4]
 8000e12:	f403 3340 	and.w	r3, r3, #196608	@ 0x30000
 8000e16:	2b00      	cmp	r3, #0
 8000e18:	f000 808c 	beq.w	8000f34 <HAL_GPIO_Init+0x28c>
      {
        temp = SYSCFG->EXTICR[position >> 2u];
 8000e1c:	4a4e      	ldr	r2, [pc, #312]	@ (8000f58 <HAL_GPIO_Init+0x2b0>)
 8000e1e:	697b      	ldr	r3, [r7, #20]
 8000e20:	089b      	lsrs	r3, r3, #2
 8000e22:	3302      	adds	r3, #2
 8000e24:	f852 3023 	ldr.w	r3, [r2, r3, lsl #2]
 8000e28:	613b      	str	r3, [r7, #16]
        temp &= ~(0x07uL << (4U * (position & 0x03U)));
 8000e2a:	697b      	ldr	r3, [r7, #20]
 8000e2c:	f003 0303 	and.w	r3, r3, #3
 8000e30:	009b      	lsls	r3, r3, #2
 8000e32:	2207      	movs	r2, #7
 8000e34:	fa02 f303 	lsl.w	r3, r2, r3
 8000e38:	43db      	mvns	r3, r3
 8000e3a:	693a      	ldr	r2, [r7, #16]
 8000e3c:	4013      	ands	r3, r2
 8000e3e:	613b      	str	r3, [r7, #16]
        temp |= (GPIO_GET_INDEX(GPIOx) << (4U * (position & 0x03U)));
 8000e40:	687b      	ldr	r3, [r7, #4]
 8000e42:	f1b3 4f90 	cmp.w	r3, #1207959552	@ 0x48000000
 8000e46:	d00d      	beq.n	8000e64 <HAL_GPIO_Init+0x1bc>
 8000e48:	687b      	ldr	r3, [r7, #4]
 8000e4a:	4a44      	ldr	r2, [pc, #272]	@ (8000f5c <HAL_GPIO_Init+0x2b4>)
 8000e4c:	4293      	cmp	r3, r2
 8000e4e:	d007      	beq.n	8000e60 <HAL_GPIO_Init+0x1b8>
 8000e50:	687b      	ldr	r3, [r7, #4]
 8000e52:	4a43      	ldr	r2, [pc, #268]	@ (8000f60 <HAL_GPIO_Init+0x2b8>)
 8000e54:	4293      	cmp	r3, r2
 8000e56:	d101      	bne.n	8000e5c <HAL_GPIO_Init+0x1b4>
 8000e58:	2302      	movs	r3, #2
 8000e5a:	e004      	b.n	8000e66 <HAL_GPIO_Init+0x1be>
 8000e5c:	2307      	movs	r3, #7
 8000e5e:	e002      	b.n	8000e66 <HAL_GPIO_Init+0x1be>
 8000e60:	2301      	movs	r3, #1
 8000e62:	e000      	b.n	8000e66 <HAL_GPIO_Init+0x1be>
 8000e64:	2300      	movs	r3, #0
 8000e66:	697a      	ldr	r2, [r7, #20]
 8000e68:	f002 0203 	and.w	r2, r2, #3
 8000e6c:	0092      	lsls	r2, r2, #2
 8000e6e:	4093      	lsls	r3, r2
 8000e70:	693a      	ldr	r2, [r7, #16]
 8000e72:	4313      	orrs	r3, r2
 8000e74:	613b      	str	r3, [r7, #16]
        SYSCFG->EXTICR[position >> 2u] = temp;
 8000e76:	4938      	ldr	r1, [pc, #224]	@ (8000f58 <HAL_GPIO_Init+0x2b0>)
 8000e78:	697b      	ldr	r3, [r7, #20]
 8000e7a:	089b      	lsrs	r3, r3, #2
 8000e7c:	3302      	adds	r3, #2
 8000e7e:	693a      	ldr	r2, [r7, #16]
 8000e80:	f841 2023 	str.w	r2, [r1, r3, lsl #2]

        /* Clear Rising Falling edge configuration */
        temp = EXTI->RTSR1;
 8000e84:	4b37      	ldr	r3, [pc, #220]	@ (8000f64 <HAL_GPIO_Init+0x2bc>)
 8000e86:	681b      	ldr	r3, [r3, #0]
 8000e88:	613b      	str	r3, [r7, #16]
        temp &= ~(iocurrent);
 8000e8a:	68fb      	ldr	r3, [r7, #12]
 8000e8c:	43db      	mvns	r3, r3
 8000e8e:	693a      	ldr	r2, [r7, #16]
 8000e90:	4013      	ands	r3, r2
 8000e92:	613b      	str	r3, [r7, #16]
        if ((GPIO_Init->Mode & TRIGGER_RISING) != 0x00u)
 8000e94:	683b      	ldr	r3, [r7, #0]
 8000e96:	685b      	ldr	r3, [r3, #4]
 8000e98:	f403 1380 	and.w	r3, r3, #1048576	@ 0x100000
 8000e9c:	2b00      	cmp	r3, #0
 8000e9e:	d003      	beq.n	8000ea8 <HAL_GPIO_Init+0x200>
        {
          temp |= iocurrent;
 8000ea0:	693a      	ldr	r2, [r7, #16]
 8000ea2:	68fb      	ldr	r3, [r7, #12]
 8000ea4:	4313      	orrs	r3, r2
 8000ea6:	613b      	str	r3, [r7, #16]
        }
        EXTI->RTSR1 = temp;
 8000ea8:	4a2e      	ldr	r2, [pc, #184]	@ (8000f64 <HAL_GPIO_Init+0x2bc>)
 8000eaa:	693b      	ldr	r3, [r7, #16]
 8000eac:	6013      	str	r3, [r2, #0]

        temp = EXTI->FTSR1;
 8000eae:	4b2d      	ldr	r3, [pc, #180]	@ (8000f64 <HAL_GPIO_Init+0x2bc>)
 8000eb0:	685b      	ldr	r3, [r3, #4]
 8000eb2:	613b      	str	r3, [r7, #16]
        temp &= ~(iocurrent);
 8000eb4:	68fb      	ldr	r3, [r7, #12]
 8000eb6:	43db      	mvns	r3, r3
 8000eb8:	693a      	ldr	r2, [r7, #16]
 8000eba:	4013      	ands	r3, r2
 8000ebc:	613b      	str	r3, [r7, #16]
        if ((GPIO_Init->Mode & TRIGGER_FALLING) != 0x00u)
 8000ebe:	683b      	ldr	r3, [r7, #0]
 8000ec0:	685b      	ldr	r3, [r3, #4]
 8000ec2:	f403 1300 	and.w	r3, r3, #2097152	@ 0x200000
 8000ec6:	2b00      	cmp	r3, #0
 8000ec8:	d003      	beq.n	8000ed2 <HAL_GPIO_Init+0x22a>
        {
          temp |= iocurrent;
 8000eca:	693a      	ldr	r2, [r7, #16]
 8000ecc:	68fb      	ldr	r3, [r7, #12]
 8000ece:	4313      	orrs	r3, r2
 8000ed0:	613b      	str	r3, [r7, #16]
        }
        EXTI->FTSR1 = temp;
 8000ed2:	4a24      	ldr	r2, [pc, #144]	@ (8000f64 <HAL_GPIO_Init+0x2bc>)
 8000ed4:	693b      	ldr	r3, [r7, #16]
 8000ed6:	6053      	str	r3, [r2, #4]

        /* Clear EXTI line configuration */
#ifdef CORE_CM0PLUS
        temp = EXTI->C2IMR1;
#else
        temp = EXTI->IMR1;
 8000ed8:	4b22      	ldr	r3, [pc, #136]	@ (8000f64 <HAL_GPIO_Init+0x2bc>)
 8000eda:	f8d3 3080 	ldr.w	r3, [r3, #128]	@ 0x80
 8000ede:	613b      	str	r3, [r7, #16]
#endif /* CORE_CM0PLUS */
        temp &= ~(iocurrent);
 8000ee0:	68fb      	ldr	r3, [r7, #12]
 8000ee2:	43db      	mvns	r3, r3
 8000ee4:	693a      	ldr	r2, [r7, #16]
 8000ee6:	4013      	ands	r3, r2
 8000ee8:	613b      	str	r3, [r7, #16]
        if ((GPIO_Init->Mode & EXTI_IT) != 0x00u)
 8000eea:	683b      	ldr	r3, [r7, #0]
 8000eec:	685b      	ldr	r3, [r3, #4]
 8000eee:	f403 3380 	and.w	r3, r3, #65536	@ 0x10000
 8000ef2:	2b00      	cmp	r3, #0
 8000ef4:	d003      	beq.n	8000efe <HAL_GPIO_Init+0x256>
        {
          temp |= iocurrent;
 8000ef6:	693a      	ldr	r2, [r7, #16]
 8000ef8:	68fb      	ldr	r3, [r7, #12]
 8000efa:	4313      	orrs	r3, r2
 8000efc:	613b      	str	r3, [r7, #16]
        }
#ifdef CORE_CM0PLUS
        EXTI->C2IMR1 = temp;
#else
        EXTI->IMR1 = temp;
 8000efe:	4a19      	ldr	r2, [pc, #100]	@ (8000f64 <HAL_GPIO_Init+0x2bc>)
 8000f00:	693b      	ldr	r3, [r7, #16]
 8000f02:	f8c2 3080 	str.w	r3, [r2, #128]	@ 0x80
#endif /* CORE_CM0PLUS */

#ifdef CORE_CM0PLUS
        temp = EXTI->C2EMR1;
#else
        temp = EXTI->EMR1;
 8000f06:	4b17      	ldr	r3, [pc, #92]	@ (8000f64 <HAL_GPIO_Init+0x2bc>)
 8000f08:	f8d3 3084 	ldr.w	r3, [r3, #132]	@ 0x84
 8000f0c:	613b      	str	r3, [r7, #16]
#endif /* CORE_CM0PLUS */
        temp &= ~(iocurrent);
 8000f0e:	68fb      	ldr	r3, [r7, #12]
 8000f10:	43db      	mvns	r3, r3
 8000f12:	693a      	ldr	r2, [r7, #16]
 8000f14:	4013      	ands	r3, r2
 8000f16:	613b      	str	r3, [r7, #16]
        if ((GPIO_Init->Mode & EXTI_EVT) != 0x00u)
 8000f18:	683b      	ldr	r3, [r7, #0]
 8000f1a:	685b      	ldr	r3, [r3, #4]
 8000f1c:	f403 3300 	and.w	r3, r3, #131072	@ 0x20000
 8000f20:	2b00      	cmp	r3, #0
 8000f22:	d003      	beq.n	8000f2c <HAL_GPIO_Init+0x284>
        {
          temp |= iocurrent;
 8000f24:	693a      	ldr	r2, [r7, #16]
 8000f26:	68fb      	ldr	r3, [r7, #12]
 8000f28:	4313      	orrs	r3, r2
 8000f2a:	613b      	str	r3, [r7, #16]
        }
#ifdef CORE_CM0PLUS
        EXTI->C2EMR1 = temp;
#else
        EXTI->EMR1 = temp;
 8000f2c:	4a0d      	ldr	r2, [pc, #52]	@ (8000f64 <HAL_GPIO_Init+0x2bc>)
 8000f2e:	693b      	ldr	r3, [r7, #16]
 8000f30:	f8c2 3084 	str.w	r3, [r2, #132]	@ 0x84
#endif /* CORE_CM0PLUS */
      }
    }

    position++;
 8000f34:	697b      	ldr	r3, [r7, #20]
 8000f36:	3301      	adds	r3, #1
 8000f38:	617b      	str	r3, [r7, #20]
  while (((GPIO_Init->Pin) >> position) != 0x00u)
 8000f3a:	683b      	ldr	r3, [r7, #0]
 8000f3c:	681a      	ldr	r2, [r3, #0]
 8000f3e:	697b      	ldr	r3, [r7, #20]
 8000f40:	fa22 f303 	lsr.w	r3, r2, r3
 8000f44:	2b00      	cmp	r3, #0
 8000f46:	f47f aeb7 	bne.w	8000cb8 <HAL_GPIO_Init+0x10>
  }
}
 8000f4a:	bf00      	nop
 8000f4c:	bf00      	nop
 8000f4e:	371c      	adds	r7, #28
 8000f50:	46bd      	mov	sp, r7
 8000f52:	bc80      	pop	{r7}
 8000f54:	4770      	bx	lr
 8000f56:	bf00      	nop
 8000f58:	40010000 	.word	0x40010000
 8000f5c:	48000400 	.word	0x48000400
 8000f60:	48000800 	.word	0x48000800
 8000f64:	58000800 	.word	0x58000800

08000f68 <HAL_GPIO_WritePin>:
  *            @arg GPIO_PIN_RESET: to clear the port pin
  *            @arg GPIO_PIN_SET: to set the port pin
  * @retval None
  */
void HAL_GPIO_WritePin(GPIO_TypeDef *GPIOx, uint16_t GPIO_Pin, GPIO_PinState PinState)
{
 8000f68:	b480      	push	{r7}
 8000f6a:	b083      	sub	sp, #12
 8000f6c:	af00      	add	r7, sp, #0
 8000f6e:	6078      	str	r0, [r7, #4]
 8000f70:	460b      	mov	r3, r1
 8000f72:	807b      	strh	r3, [r7, #2]
 8000f74:	4613      	mov	r3, r2
 8000f76:	707b      	strb	r3, [r7, #1]
  /* Check the parameters */
  assert_param(IS_GPIO_PIN(GPIO_Pin));
  assert_param(IS_GPIO_PIN_ACTION(PinState));

  if (PinState != GPIO_PIN_RESET)
 8000f78:	787b      	ldrb	r3, [r7, #1]
 8000f7a:	2b00      	cmp	r3, #0
 8000f7c:	d003      	beq.n	8000f86 <HAL_GPIO_WritePin+0x1e>
  {
    GPIOx->BSRR = (uint32_t)GPIO_Pin;
 8000f7e:	887a      	ldrh	r2, [r7, #2]
 8000f80:	687b      	ldr	r3, [r7, #4]
 8000f82:	619a      	str	r2, [r3, #24]
  }
  else
  {
    GPIOx->BRR = (uint32_t)GPIO_Pin;
  }
}
 8000f84:	e002      	b.n	8000f8c <HAL_GPIO_WritePin+0x24>
    GPIOx->BRR = (uint32_t)GPIO_Pin;
 8000f86:	887a      	ldrh	r2, [r7, #2]
 8000f88:	687b      	ldr	r3, [r7, #4]
 8000f8a:	629a      	str	r2, [r3, #40]	@ 0x28
}
 8000f8c:	bf00      	nop
 8000f8e:	370c      	adds	r7, #12
 8000f90:	46bd      	mov	sp, r7
 8000f92:	bc80      	pop	{r7}
 8000f94:	4770      	bx	lr
	...

08000f98 <HAL_PWR_EnableBkUpAccess>:
  * @note   LSEON bit that switches on and off the LSE crystal belongs as well to the
  *         backup domain.
  * @retval None
  */
void HAL_PWR_EnableBkUpAccess(void)
{
 8000f98:	b480      	push	{r7}
 8000f9a:	af00      	add	r7, sp, #0
  SET_BIT(PWR->CR1, PWR_CR1_DBP);
 8000f9c:	4b04      	ldr	r3, [pc, #16]	@ (8000fb0 <HAL_PWR_EnableBkUpAccess+0x18>)
 8000f9e:	681b      	ldr	r3, [r3, #0]
 8000fa0:	4a03      	ldr	r2, [pc, #12]	@ (8000fb0 <HAL_PWR_EnableBkUpAccess+0x18>)
 8000fa2:	f443 7380 	orr.w	r3, r3, #256	@ 0x100
 8000fa6:	6013      	str	r3, [r2, #0]
}
 8000fa8:	bf00      	nop
 8000faa:	46bd      	mov	sp, r7
 8000fac:	bc80      	pop	{r7}
 8000fae:	4770      	bx	lr
 8000fb0:	58000400 	.word	0x58000400

08000fb4 <HAL_PWREx_GetVoltageRange>:
/**
  * @brief Return Voltage Scaling Range.
  * @retval VOS bit field (PWR_REGULATOR_VOLTAGE_SCALE1 or PWPWR_REGULATOR_VOLTAGE_SCALE2)
  */
uint32_t HAL_PWREx_GetVoltageRange(void)
{
 8000fb4:	b480      	push	{r7}
 8000fb6:	af00      	add	r7, sp, #0
  return (PWR->CR1 & PWR_CR1_VOS);
 8000fb8:	4b03      	ldr	r3, [pc, #12]	@ (8000fc8 <HAL_PWREx_GetVoltageRange+0x14>)
 8000fba:	681b      	ldr	r3, [r3, #0]
 8000fbc:	f403 63c0 	and.w	r3, r3, #1536	@ 0x600
}
 8000fc0:	4618      	mov	r0, r3
 8000fc2:	46bd      	mov	sp, r7
 8000fc4:	bc80      	pop	{r7}
 8000fc6:	4770      	bx	lr
 8000fc8:	58000400 	.word	0x58000400

08000fcc <LL_PWR_IsEnabledBkUpAccess>:
  * @brief  Check if the backup domain is enabled
  * @rmtoll CR1          DBP           LL_PWR_IsEnabledBkUpAccess
  * @retval State of bit (1 or 0).
  */
__STATIC_INLINE uint32_t LL_PWR_IsEnabledBkUpAccess(void)
{
 8000fcc:	b480      	push	{r7}
 8000fce:	af00      	add	r7, sp, #0
  return ((READ_BIT(PWR->CR1, PWR_CR1_DBP) == (PWR_CR1_DBP)) ? 1UL : 0UL);
 8000fd0:	4b06      	ldr	r3, [pc, #24]	@ (8000fec <LL_PWR_IsEnabledBkUpAccess+0x20>)
 8000fd2:	681b      	ldr	r3, [r3, #0]
 8000fd4:	f403 7380 	and.w	r3, r3, #256	@ 0x100
 8000fd8:	f5b3 7f80 	cmp.w	r3, #256	@ 0x100
 8000fdc:	d101      	bne.n	8000fe2 <LL_PWR_IsEnabledBkUpAccess+0x16>
 8000fde:	2301      	movs	r3, #1
 8000fe0:	e000      	b.n	8000fe4 <LL_PWR_IsEnabledBkUpAccess+0x18>
 8000fe2:	2300      	movs	r3, #0
}
 8000fe4:	4618      	mov	r0, r3
 8000fe6:	46bd      	mov	sp, r7
 8000fe8:	bc80      	pop	{r7}
 8000fea:	4770      	bx	lr
 8000fec:	58000400 	.word	0x58000400

08000ff0 <LL_RCC_HSE_EnableTcxo>:
  * @note PB0 must be configured in analog mode prior enabling VDDTCXO supply
  * @rmtoll CR           HSEBYPPWR        LL_RCC_HSE_EnableTcxo
  * @retval None
  */
__STATIC_INLINE void LL_RCC_HSE_EnableTcxo(void)
{
 8000ff0:	b480      	push	{r7}
 8000ff2:	af00      	add	r7, sp, #0
  SET_BIT(RCC->CR, RCC_CR_HSEBYPPWR);
 8000ff4:	f04f 43b0 	mov.w	r3, #1476395008	@ 0x58000000
 8000ff8:	681b      	ldr	r3, [r3, #0]
 8000ffa:	f04f 42b0 	mov.w	r2, #1476395008	@ 0x58000000
 8000ffe:	f443 1300 	orr.w	r3, r3, #2097152	@ 0x200000
 8001002:	6013      	str	r3, [r2, #0]
}
 8001004:	bf00      	nop
 8001006:	46bd      	mov	sp, r7
 8001008:	bc80      	pop	{r7}
 800100a:	4770      	bx	lr

0800100c <LL_RCC_HSE_DisableTcxo>:
  * @brief  Disable HSE VDDTCXO output on package pin PB0-VDDTCXO
  * @rmtoll CR           HSEBYPPWR        LL_RCC_HSE_DisableTcxo
  * @retval None
  */
__STATIC_INLINE void LL_RCC_HSE_DisableTcxo(void)
{
 800100c:	b480      	push	{r7}
 800100e:	af00      	add	r7, sp, #0
  CLEAR_BIT(RCC->CR, RCC_CR_HSEBYPPWR);
 8001010:	f04f 43b0 	mov.w	r3, #1476395008	@ 0x58000000
 8001014:	681b      	ldr	r3, [r3, #0]
 8001016:	f04f 42b0 	mov.w	r2, #1476395008	@ 0x58000000
 800101a:	f423 1300 	bic.w	r3, r3, #2097152	@ 0x200000
 800101e:	6013      	str	r3, [r2, #0]
}
 8001020:	bf00      	nop
 8001022:	46bd      	mov	sp, r7
 8001024:	bc80      	pop	{r7}
 8001026:	4770      	bx	lr

08001028 <LL_RCC_HSE_IsEnabledDiv2>:
  * @brief  Get HSE sysclk and pll prescaler  division by 2
  * @rmtoll CR           HSEPRE        LL_RCC_HSE_IsEnabledDiv2
  * @retval None
  */
__STATIC_INLINE uint32_t LL_RCC_HSE_IsEnabledDiv2(void)
{
 8001028:	b480      	push	{r7}
 800102a:	af00      	add	r7, sp, #0
  return ((READ_BIT(RCC->CR, RCC_CR_HSEPRE) == (RCC_CR_HSEPRE)) ? 1UL : 0UL);
 800102c:	f04f 43b0 	mov.w	r3, #1476395008	@ 0x58000000
 8001030:	681b      	ldr	r3, [r3, #0]
 8001032:	f403 1380 	and.w	r3, r3, #1048576	@ 0x100000
 8001036:	f5b3 1f80 	cmp.w	r3, #1048576	@ 0x100000
 800103a:	d101      	bne.n	8001040 <LL_RCC_HSE_IsEnabledDiv2+0x18>
 800103c:	2301      	movs	r3, #1
 800103e:	e000      	b.n	8001042 <LL_RCC_HSE_IsEnabledDiv2+0x1a>
 8001040:	2300      	movs	r3, #0
}
 8001042:	4618      	mov	r0, r3
 8001044:	46bd      	mov	sp, r7
 8001046:	bc80      	pop	{r7}
 8001048:	4770      	bx	lr

0800104a <LL_RCC_HSE_Enable>:
  * @brief  Enable HSE crystal oscillator (HSE ON)
  * @rmtoll CR           HSEON         LL_RCC_HSE_Enable
  * @retval None
  */
__STATIC_INLINE void LL_RCC_HSE_Enable(void)
{
 800104a:	b480      	push	{r7}
 800104c:	af00      	add	r7, sp, #0
  SET_BIT(RCC->CR, RCC_CR_HSEON);
 800104e:	f04f 43b0 	mov.w	r3, #1476395008	@ 0x58000000
 8001052:	681b      	ldr	r3, [r3, #0]
 8001054:	f04f 42b0 	mov.w	r2, #1476395008	@ 0x58000000
 8001058:	f443 3380 	orr.w	r3, r3, #65536	@ 0x10000
 800105c:	6013      	str	r3, [r2, #0]
}
 800105e:	bf00      	nop
 8001060:	46bd      	mov	sp, r7
 8001062:	bc80      	pop	{r7}
 8001064:	4770      	bx	lr

08001066 <LL_RCC_HSE_Disable>:
  * @brief  Disable HSE crystal oscillator (HSE ON)
  * @rmtoll CR           HSEON         LL_RCC_HSE_Disable
  * @retval None
  */
__STATIC_INLINE void LL_RCC_HSE_Disable(void)
{
 8001066:	b480      	push	{r7}
 8001068:	af00      	add	r7, sp, #0
  CLEAR_BIT(RCC->CR, RCC_CR_HSEON);
 800106a:	f04f 43b0 	mov.w	r3, #1476395008	@ 0x58000000
 800106e:	681b      	ldr	r3, [r3, #0]
 8001070:	f04f 42b0 	mov.w	r2, #1476395008	@ 0x58000000
 8001074:	f423 3380 	bic.w	r3, r3, #65536	@ 0x10000
 8001078:	6013      	str	r3, [r2, #0]
}
 800107a:	bf00      	nop
 800107c:	46bd      	mov	sp, r7
 800107e:	bc80      	pop	{r7}
 8001080:	4770      	bx	lr

08001082 <LL_RCC_HSE_IsReady>:
  * @brief  Check if HSE oscillator Ready
  * @rmtoll CR           HSERDY        LL_RCC_HSE_IsReady
  * @retval State of bit (1 or 0).
  */
__STATIC_INLINE uint32_t LL_RCC_HSE_IsReady(void)
{
 8001082:	b480      	push	{r7}
 8001084:	af00      	add	r7, sp, #0
  return ((READ_BIT(RCC->CR, RCC_CR_HSERDY) == (RCC_CR_HSERDY)) ? 1UL : 0UL);
 8001086:	f04f 43b0 	mov.w	r3, #1476395008	@ 0x58000000
 800108a:	681b      	ldr	r3, [r3, #0]
 800108c:	f403 3300 	and.w	r3, r3, #131072	@ 0x20000
 8001090:	f5b3 3f00 	cmp.w	r3, #131072	@ 0x20000
 8001094:	d101      	bne.n	800109a <LL_RCC_HSE_IsReady+0x18>
 8001096:	2301      	movs	r3, #1
 8001098:	e000      	b.n	800109c <LL_RCC_HSE_IsReady+0x1a>
 800109a:	2300      	movs	r3, #0
}
 800109c:	4618      	mov	r0, r3
 800109e:	46bd      	mov	sp, r7
 80010a0:	bc80      	pop	{r7}
 80010a2:	4770      	bx	lr

080010a4 <LL_RCC_HSI_Enable>:
  * @brief  Enable HSI oscillator
  * @rmtoll CR           HSION         LL_RCC_HSI_Enable
  * @retval None
  */
__STATIC_INLINE void LL_RCC_HSI_Enable(void)
{
 80010a4:	b480      	push	{r7}
 80010a6:	af00      	add	r7, sp, #0
  SET_BIT(RCC->CR, RCC_CR_HSION);
 80010a8:	f04f 43b0 	mov.w	r3, #1476395008	@ 0x58000000
 80010ac:	681b      	ldr	r3, [r3, #0]
 80010ae:	f04f 42b0 	mov.w	r2, #1476395008	@ 0x58000000
 80010b2:	f443 7380 	orr.w	r3, r3, #256	@ 0x100
 80010b6:	6013      	str	r3, [r2, #0]
}
 80010b8:	bf00      	nop
 80010ba:	46bd      	mov	sp, r7
 80010bc:	bc80      	pop	{r7}
 80010be:	4770      	bx	lr

080010c0 <LL_RCC_HSI_Disable>:
  * @brief  Disable HSI oscillator
  * @rmtoll CR           HSION         LL_RCC_HSI_Disable
  * @retval None
  */
__STATIC_INLINE void LL_RCC_HSI_Disable(void)
{
 80010c0:	b480      	push	{r7}
 80010c2:	af00      	add	r7, sp, #0
  CLEAR_BIT(RCC->CR, RCC_CR_HSION);
 80010c4:	f04f 43b0 	mov.w	r3, #1476395008	@ 0x58000000
 80010c8:	681b      	ldr	r3, [r3, #0]
 80010ca:	f04f 42b0 	mov.w	r2, #1476395008	@ 0x58000000
 80010ce:	f423 7380 	bic.w	r3, r3, #256	@ 0x100
 80010d2:	6013      	str	r3, [r2, #0]
}
 80010d4:	bf00      	nop
 80010d6:	46bd      	mov	sp, r7
 80010d8:	bc80      	pop	{r7}
 80010da:	4770      	bx	lr

080010dc <LL_RCC_HSI_IsReady>:
  * @brief  Check if HSI clock is ready
  * @rmtoll CR           HSIRDY        LL_RCC_HSI_IsReady
  * @retval State of bit (1 or 0).
  */
__STATIC_INLINE uint32_t LL_RCC_HSI_IsReady(void)
{
 80010dc:	b480      	push	{r7}
 80010de:	af00      	add	r7, sp, #0
  return ((READ_BIT(RCC->CR, RCC_CR_HSIRDY) == (RCC_CR_HSIRDY)) ? 1UL : 0UL);
 80010e0:	f04f 43b0 	mov.w	r3, #1476395008	@ 0x58000000
 80010e4:	681b      	ldr	r3, [r3, #0]
 80010e6:	f403 6380 	and.w	r3, r3, #1024	@ 0x400
 80010ea:	f5b3 6f80 	cmp.w	r3, #1024	@ 0x400
 80010ee:	d101      	bne.n	80010f4 <LL_RCC_HSI_IsReady+0x18>
 80010f0:	2301      	movs	r3, #1
 80010f2:	e000      	b.n	80010f6 <LL_RCC_HSI_IsReady+0x1a>
 80010f4:	2300      	movs	r3, #0
}
 80010f6:	4618      	mov	r0, r3
 80010f8:	46bd      	mov	sp, r7
 80010fa:	bc80      	pop	{r7}
 80010fc:	4770      	bx	lr

080010fe <LL_RCC_HSI_SetCalibTrimming>:
  * @rmtoll ICSCR        HSITRIM       LL_RCC_HSI_SetCalibTrimming
  * @param  Value Between Min_Data = 0 and Max_Data = 127
  * @retval None
  */
__STATIC_INLINE void LL_RCC_HSI_SetCalibTrimming(uint32_t Value)
{
 80010fe:	b480      	push	{r7}
 8001100:	b083      	sub	sp, #12
 8001102:	af00      	add	r7, sp, #0
 8001104:	6078      	str	r0, [r7, #4]
  MODIFY_REG(RCC->ICSCR, RCC_ICSCR_HSITRIM, Value << RCC_ICSCR_HSITRIM_Pos);
 8001106:	f04f 43b0 	mov.w	r3, #1476395008	@ 0x58000000
 800110a:	685b      	ldr	r3, [r3, #4]
 800110c:	f023 42fe 	bic.w	r2, r3, #2130706432	@ 0x7f000000
 8001110:	687b      	ldr	r3, [r7, #4]
 8001112:	061b      	lsls	r3, r3, #24
 8001114:	f04f 41b0 	mov.w	r1, #1476395008	@ 0x58000000
 8001118:	4313      	orrs	r3, r2
 800111a:	604b      	str	r3, [r1, #4]
}
 800111c:	bf00      	nop
 800111e:	370c      	adds	r7, #12
 8001120:	46bd      	mov	sp, r7
 8001122:	bc80      	pop	{r7}
 8001124:	4770      	bx	lr

08001126 <LL_RCC_LSE_IsReady>:
  * @brief  Check if LSE oscillator Ready
  * @rmtoll BDCR         LSERDY        LL_RCC_LSE_IsReady
  * @retval State of bit (1 or 0).
  */
__STATIC_INLINE uint32_t LL_RCC_LSE_IsReady(void)
{
 8001126:	b480      	push	{r7}
 8001128:	af00      	add	r7, sp, #0
  return ((READ_BIT(RCC->BDCR, RCC_BDCR_LSERDY) == (RCC_BDCR_LSERDY)) ? 1UL : 0UL);
 800112a:	f04f 43b0 	mov.w	r3, #1476395008	@ 0x58000000
 800112e:	f8d3 3090 	ldr.w	r3, [r3, #144]	@ 0x90
 8001132:	f003 0302 	and.w	r3, r3, #2
 8001136:	2b02      	cmp	r3, #2
 8001138:	d101      	bne.n	800113e <LL_RCC_LSE_IsReady+0x18>
 800113a:	2301      	movs	r3, #1
 800113c:	e000      	b.n	8001140 <LL_RCC_LSE_IsReady+0x1a>
 800113e:	2300      	movs	r3, #0
}
 8001140:	4618      	mov	r0, r3
 8001142:	46bd      	mov	sp, r7
 8001144:	bc80      	pop	{r7}
 8001146:	4770      	bx	lr

08001148 <LL_RCC_LSI_Enable>:
  * @brief  Enable LSI Oscillator
  * @rmtoll CSR          LSION         LL_RCC_LSI_Enable
  * @retval None
  */
__STATIC_INLINE void LL_RCC_LSI_Enable(void)
{
 8001148:	b480      	push	{r7}
 800114a:	af00      	add	r7, sp, #0
  SET_BIT(RCC->CSR, RCC_CSR_LSION);
 800114c:	f04f 43b0 	mov.w	r3, #1476395008	@ 0x58000000
 8001150:	f8d3 3094 	ldr.w	r3, [r3, #148]	@ 0x94
 8001154:	f04f 42b0 	mov.w	r2, #1476395008	@ 0x58000000
 8001158:	f043 0301 	orr.w	r3, r3, #1
 800115c:	f8c2 3094 	str.w	r3, [r2, #148]	@ 0x94
}
 8001160:	bf00      	nop
 8001162:	46bd      	mov	sp, r7
 8001164:	bc80      	pop	{r7}
 8001166:	4770      	bx	lr

08001168 <LL_RCC_LSI_Disable>:
  * @brief  Disable LSI Oscillator
  * @rmtoll CSR          LSION         LL_RCC_LSI_Disable
  * @retval None
  */
__STATIC_INLINE void LL_RCC_LSI_Disable(void)
{
 8001168:	b480      	push	{r7}
 800116a:	af00      	add	r7, sp, #0
  CLEAR_BIT(RCC->CSR, RCC_CSR_LSION);
 800116c:	f04f 43b0 	mov.w	r3, #1476395008	@ 0x58000000
 8001170:	f8d3 3094 	ldr.w	r3, [r3, #148]	@ 0x94
 8001174:	f04f 42b0 	mov.w	r2, #1476395008	@ 0x58000000
 8001178:	f023 0301 	bic.w	r3, r3, #1
 800117c:	f8c2 3094 	str.w	r3, [r2, #148]	@ 0x94
}
 8001180:	bf00      	nop
 8001182:	46bd      	mov	sp, r7
 8001184:	bc80      	pop	{r7}
 8001186:	4770      	bx	lr

08001188 <LL_RCC_LSI_IsReady>:
  * @brief  Check if LSI is Ready
  * @rmtoll CSR          LSIRDY        LL_RCC_LSI_IsReady
  * @retval State of bit (1 or 0).
  */
__STATIC_INLINE uint32_t LL_RCC_LSI_IsReady(void)
{
 8001188:	b480      	push	{r7}
 800118a:	af00      	add	r7, sp, #0
  return ((READ_BIT(RCC->CSR, RCC_CSR_LSIRDY) == (RCC_CSR_LSIRDY)) ? 1UL : 0UL);
 800118c:	f04f 43b0 	mov.w	r3, #1476395008	@ 0x58000000
 8001190:	f8d3 3094 	ldr.w	r3, [r3, #148]	@ 0x94
 8001194:	f003 0302 	and.w	r3, r3, #2
 8001198:	2b02      	cmp	r3, #2
 800119a:	d101      	bne.n	80011a0 <LL_RCC_LSI_IsReady+0x18>
 800119c:	2301      	movs	r3, #1
 800119e:	e000      	b.n	80011a2 <LL_RCC_LSI_IsReady+0x1a>
 80011a0:	2300      	movs	r3, #0
}
 80011a2:	4618      	mov	r0, r3
 80011a4:	46bd      	mov	sp, r7
 80011a6:	bc80      	pop	{r7}
 80011a8:	4770      	bx	lr

080011aa <LL_RCC_MSI_Enable>:
  * @brief  Enable MSI oscillator
  * @rmtoll CR           MSION         LL_RCC_MSI_Enable
  * @retval None
  */
__STATIC_INLINE void LL_RCC_MSI_Enable(void)
{
 80011aa:	b480      	push	{r7}
 80011ac:	af00      	add	r7, sp, #0
  SET_BIT(RCC->CR, RCC_CR_MSION);
 80011ae:	f04f 43b0 	mov.w	r3, #1476395008	@ 0x58000000
 80011b2:	681b      	ldr	r3, [r3, #0]
 80011b4:	f04f 42b0 	mov.w	r2, #1476395008	@ 0x58000000
 80011b8:	f043 0301 	orr.w	r3, r3, #1
 80011bc:	6013      	str	r3, [r2, #0]
}
 80011be:	bf00      	nop
 80011c0:	46bd      	mov	sp, r7
 80011c2:	bc80      	pop	{r7}
 80011c4:	4770      	bx	lr

080011c6 <LL_RCC_MSI_Disable>:
  * @brief  Disable MSI oscillator
  * @rmtoll CR           MSION         LL_RCC_MSI_Disable
  * @retval None
  */
__STATIC_INLINE void LL_RCC_MSI_Disable(void)
{
 80011c6:	b480      	push	{r7}
 80011c8:	af00      	add	r7, sp, #0
  CLEAR_BIT(RCC->CR, RCC_CR_MSION);
 80011ca:	f04f 43b0 	mov.w	r3, #1476395008	@ 0x58000000
 80011ce:	681b      	ldr	r3, [r3, #0]
 80011d0:	f04f 42b0 	mov.w	r2, #1476395008	@ 0x58000000
 80011d4:	f023 0301 	bic.w	r3, r3, #1
 80011d8:	6013      	str	r3, [r2, #0]
}
 80011da:	bf00      	nop
 80011dc:	46bd      	mov	sp, r7
 80011de:	bc80      	pop	{r7}
 80011e0:	4770      	bx	lr

080011e2 <LL_RCC_MSI_IsReady>:
  * @brief  Check if MSI oscillator Ready
  * @rmtoll CR           MSIRDY        LL_RCC_MSI_IsReady
  * @retval State of bit (1 or 0).
  */
__STATIC_INLINE uint32_t LL_RCC_MSI_IsReady(void)
{
 80011e2:	b480      	push	{r7}
 80011e4:	af00      	add	r7, sp, #0
  return ((READ_BIT(RCC->CR, RCC_CR_MSIRDY) == (RCC_CR_MSIRDY)) ? 1UL : 0UL);
 80011e6:	f04f 43b0 	mov.w	r3, #1476395008	@ 0x58000000
 80011ea:	681b      	ldr	r3, [r3, #0]
 80011ec:	f003 0302 	and.w	r3, r3, #2
 80011f0:	2b02      	cmp	r3, #2
 80011f2:	d101      	bne.n	80011f8 <LL_RCC_MSI_IsReady+0x16>
 80011f4:	2301      	movs	r3, #1
 80011f6:	e000      	b.n	80011fa <LL_RCC_MSI_IsReady+0x18>
 80011f8:	2300      	movs	r3, #0
}
 80011fa:	4618      	mov	r0, r3
 80011fc:	46bd      	mov	sp, r7
 80011fe:	bc80      	pop	{r7}
 8001200:	4770      	bx	lr

08001202 <LL_RCC_MSI_IsEnabledRangeSelect>:
  * @brief  Check if MSI clock range is selected with MSIRANGE register
  * @rmtoll CR           MSIRGSEL      LL_RCC_MSI_IsEnabledRangeSelect
  * @retval State of bit (1 or 0).
  */
__STATIC_INLINE uint32_t LL_RCC_MSI_IsEnabledRangeSelect(void)
{
 8001202:	b480      	push	{r7}
 8001204:	af00      	add	r7, sp, #0
  return ((READ_BIT(RCC->CR, RCC_CR_MSIRGSEL) == (RCC_CR_MSIRGSEL)) ? 1UL : 0UL);
 8001206:	f04f 43b0 	mov.w	r3, #1476395008	@ 0x58000000
 800120a:	681b      	ldr	r3, [r3, #0]
 800120c:	f003 0308 	and.w	r3, r3, #8
 8001210:	2b08      	cmp	r3, #8
 8001212:	d101      	bne.n	8001218 <LL_RCC_MSI_IsEnabledRangeSelect+0x16>
 8001214:	2301      	movs	r3, #1
 8001216:	e000      	b.n	800121a <LL_RCC_MSI_IsEnabledRangeSelect+0x18>
 8001218:	2300      	movs	r3, #0
}
 800121a:	4618      	mov	r0, r3
 800121c:	46bd      	mov	sp, r7
 800121e:	bc80      	pop	{r7}
 8001220:	4770      	bx	lr

08001222 <LL_RCC_MSI_GetRange>:
  *         @arg @ref LL_RCC_MSIRANGE_9
  *         @arg @ref LL_RCC_MSIRANGE_10
  *         @arg @ref LL_RCC_MSIRANGE_11
  */
__STATIC_INLINE uint32_t LL_RCC_MSI_GetRange(void)
{
 8001222:	b480      	push	{r7}
 8001224:	af00      	add	r7, sp, #0
  return (uint32_t)(READ_BIT(RCC->CR, RCC_CR_MSIRANGE));
 8001226:	f04f 43b0 	mov.w	r3, #1476395008	@ 0x58000000
 800122a:	681b      	ldr	r3, [r3, #0]
 800122c:	f003 03f0 	and.w	r3, r3, #240	@ 0xf0
}
 8001230:	4618      	mov	r0, r3
 8001232:	46bd      	mov	sp, r7
 8001234:	bc80      	pop	{r7}
 8001236:	4770      	bx	lr

08001238 <LL_RCC_MSI_GetRangeAfterStandby>:
  *         @arg @ref LL_RCC_MSISRANGE_5
  *         @arg @ref LL_RCC_MSISRANGE_6
  *         @arg @ref LL_RCC_MSISRANGE_7
  */
__STATIC_INLINE uint32_t LL_RCC_MSI_GetRangeAfterStandby(void)
{
 8001238:	b480      	push	{r7}
 800123a:	af00      	add	r7, sp, #0
  return (uint32_t)(READ_BIT(RCC->CSR, RCC_CSR_MSISRANGE));
 800123c:	f04f 43b0 	mov.w	r3, #1476395008	@ 0x58000000
 8001240:	f8d3 3094 	ldr.w	r3, [r3, #148]	@ 0x94
 8001244:	f403 6370 	and.w	r3, r3, #3840	@ 0xf00
}
 8001248:	4618      	mov	r0, r3
 800124a:	46bd      	mov	sp, r7
 800124c:	bc80      	pop	{r7}
 800124e:	4770      	bx	lr

08001250 <LL_RCC_MSI_SetCalibTrimming>:
  * @rmtoll ICSCR        MSITRIM       LL_RCC_MSI_SetCalibTrimming
  * @param  Value Between Min_Data = 0 and Max_Data = 255
  * @retval None
  */
__STATIC_INLINE void LL_RCC_MSI_SetCalibTrimming(uint32_t Value)
{
 8001250:	b480      	push	{r7}
 8001252:	b083      	sub	sp, #12
 8001254:	af00      	add	r7, sp, #0
 8001256:	6078      	str	r0, [r7, #4]
  MODIFY_REG(RCC->ICSCR, RCC_ICSCR_MSITRIM, Value << RCC_ICSCR_MSITRIM_Pos);
 8001258:	f04f 43b0 	mov.w	r3, #1476395008	@ 0x58000000
 800125c:	685b      	ldr	r3, [r3, #4]
 800125e:	f423 427f 	bic.w	r2, r3, #65280	@ 0xff00
 8001262:	687b      	ldr	r3, [r7, #4]
 8001264:	021b      	lsls	r3, r3, #8
 8001266:	f04f 41b0 	mov.w	r1, #1476395008	@ 0x58000000
 800126a:	4313      	orrs	r3, r2
 800126c:	604b      	str	r3, [r1, #4]
}
 800126e:	bf00      	nop
 8001270:	370c      	adds	r7, #12
 8001272:	46bd      	mov	sp, r7
 8001274:	bc80      	pop	{r7}
 8001276:	4770      	bx	lr

08001278 <LL_RCC_SetSysClkSource>:
  *         @arg @ref LL_RCC_SYS_CLKSOURCE_HSE
  *         @arg @ref LL_RCC_SYS_CLKSOURCE_PLL
  * @retval None
  */
__STATIC_INLINE void LL_RCC_SetSysClkSource(uint32_t Source)
{
 8001278:	b480      	push	{r7}
 800127a:	b083      	sub	sp, #12
 800127c:	af00      	add	r7, sp, #0
 800127e:	6078      	str	r0, [r7, #4]
  MODIFY_REG(RCC->CFGR, RCC_CFGR_SW, Source);
 8001280:	f04f 43b0 	mov.w	r3, #1476395008	@ 0x58000000
 8001284:	689b      	ldr	r3, [r3, #8]
 8001286:	f023 0203 	bic.w	r2, r3, #3
 800128a:	f04f 41b0 	mov.w	r1, #1476395008	@ 0x58000000
 800128e:	687b      	ldr	r3, [r7, #4]
 8001290:	4313      	orrs	r3, r2
 8001292:	608b      	str	r3, [r1, #8]
}
 8001294:	bf00      	nop
 8001296:	370c      	adds	r7, #12
 8001298:	46bd      	mov	sp, r7
 800129a:	bc80      	pop	{r7}
 800129c:	4770      	bx	lr

0800129e <LL_RCC_GetSysClkSource>:
  *         @arg @ref LL_RCC_SYS_CLKSOURCE_STATUS_HSI
  *         @arg @ref LL_RCC_SYS_CLKSOURCE_STATUS_HSE
  *         @arg @ref LL_RCC_SYS_CLKSOURCE_STATUS_PLL
  */
__STATIC_INLINE uint32_t LL_RCC_GetSysClkSource(void)
{
 800129e:	b480      	push	{r7}
 80012a0:	af00      	add	r7, sp, #0
  return (uint32_t)(READ_BIT(RCC->CFGR, RCC_CFGR_SWS));
 80012a2:	f04f 43b0 	mov.w	r3, #1476395008	@ 0x58000000
 80012a6:	689b      	ldr	r3, [r3, #8]
 80012a8:	f003 030c 	and.w	r3, r3, #12
}
 80012ac:	4618      	mov	r0, r3
 80012ae:	46bd      	mov	sp, r7
 80012b0:	bc80      	pop	{r7}
 80012b2:	4770      	bx	lr

080012b4 <LL_RCC_SetAHBPrescaler>:
  *         @arg @ref LL_RCC_SYSCLK_DIV_256
  *         @arg @ref LL_RCC_SYSCLK_DIV_512
  * @retval None
  */
__STATIC_INLINE void LL_RCC_SetAHBPrescaler(uint32_t Prescaler)
{
 80012b4:	b480      	push	{r7}
 80012b6:	b083      	sub	sp, #12
 80012b8:	af00      	add	r7, sp, #0
 80012ba:	6078      	str	r0, [r7, #4]
  MODIFY_REG(RCC->CFGR, RCC_CFGR_HPRE, Prescaler);
 80012bc:	f04f 43b0 	mov.w	r3, #1476395008	@ 0x58000000
 80012c0:	689b      	ldr	r3, [r3, #8]
 80012c2:	f023 02f0 	bic.w	r2, r3, #240	@ 0xf0
 80012c6:	f04f 41b0 	mov.w	r1, #1476395008	@ 0x58000000
 80012ca:	687b      	ldr	r3, [r7, #4]
 80012cc:	4313      	orrs	r3, r2
 80012ce:	608b      	str	r3, [r1, #8]
}
 80012d0:	bf00      	nop
 80012d2:	370c      	adds	r7, #12
 80012d4:	46bd      	mov	sp, r7
 80012d6:	bc80      	pop	{r7}
 80012d8:	4770      	bx	lr

080012da <LL_RCC_SetAHB3Prescaler>:
  *         @arg @ref LL_RCC_SYSCLK_DIV_256
  *         @arg @ref LL_RCC_SYSCLK_DIV_512
  * @retval None
  */
__STATIC_INLINE void LL_RCC_SetAHB3Prescaler(uint32_t Prescaler)
{
 80012da:	b480      	push	{r7}
 80012dc:	b083      	sub	sp, #12
 80012de:	af00      	add	r7, sp, #0
 80012e0:	6078      	str	r0, [r7, #4]
  MODIFY_REG(RCC->EXTCFGR, RCC_EXTCFGR_SHDHPRE, Prescaler >> 4);
 80012e2:	f04f 43b0 	mov.w	r3, #1476395008	@ 0x58000000
 80012e6:	f8d3 3108 	ldr.w	r3, [r3, #264]	@ 0x108
 80012ea:	f023 020f 	bic.w	r2, r3, #15
 80012ee:	687b      	ldr	r3, [r7, #4]
 80012f0:	091b      	lsrs	r3, r3, #4
 80012f2:	f04f 41b0 	mov.w	r1, #1476395008	@ 0x58000000
 80012f6:	4313      	orrs	r3, r2
 80012f8:	f8c1 3108 	str.w	r3, [r1, #264]	@ 0x108
}
 80012fc:	bf00      	nop
 80012fe:	370c      	adds	r7, #12
 8001300:	46bd      	mov	sp, r7
 8001302:	bc80      	pop	{r7}
 8001304:	4770      	bx	lr

08001306 <LL_RCC_SetAPB1Prescaler>:
  *         @arg @ref LL_RCC_APB1_DIV_8
  *         @arg @ref LL_RCC_APB1_DIV_16
  * @retval None
  */
__STATIC_INLINE void LL_RCC_SetAPB1Prescaler(uint32_t Prescaler)
{
 8001306:	b480      	push	{r7}
 8001308:	b083      	sub	sp, #12
 800130a:	af00      	add	r7, sp, #0
 800130c:	6078      	str	r0, [r7, #4]
  MODIFY_REG(RCC->CFGR, RCC_CFGR_PPRE1, Prescaler);
 800130e:	f04f 43b0 	mov.w	r3, #1476395008	@ 0x58000000
 8001312:	689b      	ldr	r3, [r3, #8]
 8001314:	f423 62e0 	bic.w	r2, r3, #1792	@ 0x700
 8001318:	f04f 41b0 	mov.w	r1, #1476395008	@ 0x58000000
 800131c:	687b      	ldr	r3, [r7, #4]
 800131e:	4313      	orrs	r3, r2
 8001320:	608b      	str	r3, [r1, #8]
}
 8001322:	bf00      	nop
 8001324:	370c      	adds	r7, #12
 8001326:	46bd      	mov	sp, r7
 8001328:	bc80      	pop	{r7}
 800132a:	4770      	bx	lr

0800132c <LL_RCC_SetAPB2Prescaler>:
  *         @arg @ref LL_RCC_APB2_DIV_8
  *         @arg @ref LL_RCC_APB2_DIV_16
  * @retval None
  */
__STATIC_INLINE void LL_RCC_SetAPB2Prescaler(uint32_t Prescaler)
{
 800132c:	b480      	push	{r7}
 800132e:	b083      	sub	sp, #12
 8001330:	af00      	add	r7, sp, #0
 8001332:	6078      	str	r0, [r7, #4]
  MODIFY_REG(RCC->CFGR, RCC_CFGR_PPRE2, Prescaler);
 8001334:	f04f 43b0 	mov.w	r3, #1476395008	@ 0x58000000
 8001338:	689b      	ldr	r3, [r3, #8]
 800133a:	f423 5260 	bic.w	r2, r3, #14336	@ 0x3800
 800133e:	f04f 41b0 	mov.w	r1, #1476395008	@ 0x58000000
 8001342:	687b      	ldr	r3, [r7, #4]
 8001344:	4313      	orrs	r3, r2
 8001346:	608b      	str	r3, [r1, #8]
}
 8001348:	bf00      	nop
 800134a:	370c      	adds	r7, #12
 800134c:	46bd      	mov	sp, r7
 800134e:	bc80      	pop	{r7}
 8001350:	4770      	bx	lr

08001352 <LL_RCC_GetAHBPrescaler>:
  *         @arg @ref LL_RCC_SYSCLK_DIV_128
  *         @arg @ref LL_RCC_SYSCLK_DIV_256
  *         @arg @ref LL_RCC_SYSCLK_DIV_512
  */
__STATIC_INLINE uint32_t LL_RCC_GetAHBPrescaler(void)
{
 8001352:	b480      	push	{r7}
 8001354:	af00      	add	r7, sp, #0
  return (uint32_t)(READ_BIT(RCC->CFGR, RCC_CFGR_HPRE));
 8001356:	f04f 43b0 	mov.w	r3, #1476395008	@ 0x58000000
 800135a:	689b      	ldr	r3, [r3, #8]
 800135c:	f003 03f0 	and.w	r3, r3, #240	@ 0xf0
}
 8001360:	4618      	mov	r0, r3
 8001362:	46bd      	mov	sp, r7
 8001364:	bc80      	pop	{r7}
 8001366:	4770      	bx	lr

08001368 <LL_RCC_GetAHB3Prescaler>:
  *         @arg @ref LL_RCC_SYSCLK_DIV_128
  *         @arg @ref LL_RCC_SYSCLK_DIV_256
  *         @arg @ref LL_RCC_SYSCLK_DIV_512
  */
__STATIC_INLINE uint32_t LL_RCC_GetAHB3Prescaler(void)
{
 8001368:	b480      	push	{r7}
 800136a:	af00      	add	r7, sp, #0
  return (uint32_t)(READ_BIT(RCC->EXTCFGR, RCC_EXTCFGR_SHDHPRE) << 4);
 800136c:	f04f 43b0 	mov.w	r3, #1476395008	@ 0x58000000
 8001370:	f8d3 3108 	ldr.w	r3, [r3, #264]	@ 0x108
 8001374:	011b      	lsls	r3, r3, #4
 8001376:	f003 03f0 	and.w	r3, r3, #240	@ 0xf0
}
 800137a:	4618      	mov	r0, r3
 800137c:	46bd      	mov	sp, r7
 800137e:	bc80      	pop	{r7}
 8001380:	4770      	bx	lr

08001382 <LL_RCC_PLL_Enable>:
  * @brief  Enable PLL
  * @rmtoll CR           PLLON         LL_RCC_PLL_Enable
  * @retval None
  */
__STATIC_INLINE void LL_RCC_PLL_Enable(void)
{
 8001382:	b480      	push	{r7}
 8001384:	af00      	add	r7, sp, #0
  SET_BIT(RCC->CR, RCC_CR_PLLON);
 8001386:	f04f 43b0 	mov.w	r3, #1476395008	@ 0x58000000
 800138a:	681b      	ldr	r3, [r3, #0]
 800138c:	f04f 42b0 	mov.w	r2, #1476395008	@ 0x58000000
 8001390:	f043 7380 	orr.w	r3, r3, #16777216	@ 0x1000000
 8001394:	6013      	str	r3, [r2, #0]
}
 8001396:	bf00      	nop
 8001398:	46bd      	mov	sp, r7
 800139a:	bc80      	pop	{r7}
 800139c:	4770      	bx	lr

0800139e <LL_RCC_PLL_Disable>:
  * @note Cannot be disabled if the PLL clock is used as the system clock
  * @rmtoll CR           PLLON         LL_RCC_PLL_Disable
  * @retval None
  */
__STATIC_INLINE void LL_RCC_PLL_Disable(void)
{
 800139e:	b480      	push	{r7}
 80013a0:	af00      	add	r7, sp, #0
  CLEAR_BIT(RCC->CR, RCC_CR_PLLON);
 80013a2:	f04f 43b0 	mov.w	r3, #1476395008	@ 0x58000000
 80013a6:	681b      	ldr	r3, [r3, #0]
 80013a8:	f04f 42b0 	mov.w	r2, #1476395008	@ 0x58000000
 80013ac:	f023 7380 	bic.w	r3, r3, #16777216	@ 0x1000000
 80013b0:	6013      	str	r3, [r2, #0]
}
 80013b2:	bf00      	nop
 80013b4:	46bd      	mov	sp, r7
 80013b6:	bc80      	pop	{r7}
 80013b8:	4770      	bx	lr

080013ba <LL_RCC_PLL_IsReady>:
  * @brief  Check if PLL Ready
  * @rmtoll CR           PLLRDY        LL_RCC_PLL_IsReady
  * @retval State of bit (1 or 0).
  */
__STATIC_INLINE uint32_t LL_RCC_PLL_IsReady(void)
{
 80013ba:	b480      	push	{r7}
 80013bc:	af00      	add	r7, sp, #0
  return ((READ_BIT(RCC->CR, RCC_CR_PLLRDY) == (RCC_CR_PLLRDY)) ? 1UL : 0UL);
 80013be:	f04f 43b0 	mov.w	r3, #1476395008	@ 0x58000000
 80013c2:	681b      	ldr	r3, [r3, #0]
 80013c4:	f003 7300 	and.w	r3, r3, #33554432	@ 0x2000000
 80013c8:	f1b3 7f00 	cmp.w	r3, #33554432	@ 0x2000000
 80013cc:	d101      	bne.n	80013d2 <LL_RCC_PLL_IsReady+0x18>
 80013ce:	2301      	movs	r3, #1
 80013d0:	e000      	b.n	80013d4 <LL_RCC_PLL_IsReady+0x1a>
 80013d2:	2300      	movs	r3, #0
}
 80013d4:	4618      	mov	r0, r3
 80013d6:	46bd      	mov	sp, r7
 80013d8:	bc80      	pop	{r7}
 80013da:	4770      	bx	lr

080013dc <LL_RCC_PLL_GetN>:
  * @brief  Get Main PLL multiplication factor for VCO
  * @rmtoll PLLCFGR      PLLN          LL_RCC_PLL_GetN
  * @retval Between 6 and 127
  */
__STATIC_INLINE uint32_t LL_RCC_PLL_GetN(void)
{
 80013dc:	b480      	push	{r7}
 80013de:	af00      	add	r7, sp, #0
  return (uint32_t)(READ_BIT(RCC->PLLCFGR, RCC_PLLCFGR_PLLN) >>  RCC_PLLCFGR_PLLN_Pos);
 80013e0:	f04f 43b0 	mov.w	r3, #1476395008	@ 0x58000000
 80013e4:	68db      	ldr	r3, [r3, #12]
 80013e6:	0a1b      	lsrs	r3, r3, #8
 80013e8:	f003 037f 	and.w	r3, r3, #127	@ 0x7f
}
 80013ec:	4618      	mov	r0, r3
 80013ee:	46bd      	mov	sp, r7
 80013f0:	bc80      	pop	{r7}
 80013f2:	4770      	bx	lr

080013f4 <LL_RCC_PLL_GetR>:
  *         @arg @ref LL_RCC_PLLR_DIV_6
  *         @arg @ref LL_RCC_PLLR_DIV_7
  *         @arg @ref LL_RCC_PLLR_DIV_8
  */
__STATIC_INLINE uint32_t LL_RCC_PLL_GetR(void)
{
 80013f4:	b480      	push	{r7}
 80013f6:	af00      	add	r7, sp, #0
  return (uint32_t)(READ_BIT(RCC->PLLCFGR, RCC_PLLCFGR_PLLR));
 80013f8:	f04f 43b0 	mov.w	r3, #1476395008	@ 0x58000000
 80013fc:	68db      	ldr	r3, [r3, #12]
 80013fe:	f003 4360 	and.w	r3, r3, #3758096384	@ 0xe0000000
}
 8001402:	4618      	mov	r0, r3
 8001404:	46bd      	mov	sp, r7
 8001406:	bc80      	pop	{r7}
 8001408:	4770      	bx	lr

0800140a <LL_RCC_PLL_GetDivider>:
  *         @arg @ref LL_RCC_PLLM_DIV_6
  *         @arg @ref LL_RCC_PLLM_DIV_7
  *         @arg @ref LL_RCC_PLLM_DIV_8
  */
__STATIC_INLINE uint32_t LL_RCC_PLL_GetDivider(void)
{
 800140a:	b480      	push	{r7}
 800140c:	af00      	add	r7, sp, #0
  return (uint32_t)(READ_BIT(RCC->PLLCFGR, RCC_PLLCFGR_PLLM));
 800140e:	f04f 43b0 	mov.w	r3, #1476395008	@ 0x58000000
 8001412:	68db      	ldr	r3, [r3, #12]
 8001414:	f003 0370 	and.w	r3, r3, #112	@ 0x70
}
 8001418:	4618      	mov	r0, r3
 800141a:	46bd      	mov	sp, r7
 800141c:	bc80      	pop	{r7}
 800141e:	4770      	bx	lr

08001420 <LL_RCC_PLL_GetMainSource>:
  *         @arg @ref LL_RCC_PLLSOURCE_MSI
  *         @arg @ref LL_RCC_PLLSOURCE_HSI
  *         @arg @ref LL_RCC_PLLSOURCE_HSE
  */
__STATIC_INLINE uint32_t LL_RCC_PLL_GetMainSource(void)
{
 8001420:	b480      	push	{r7}
 8001422:	af00      	add	r7, sp, #0
  return (uint32_t)(READ_BIT(RCC->PLLCFGR, RCC_PLLCFGR_PLLSRC));
 8001424:	f04f 43b0 	mov.w	r3, #1476395008	@ 0x58000000
 8001428:	68db      	ldr	r3, [r3, #12]
 800142a:	f003 0303 	and.w	r3, r3, #3
}
 800142e:	4618      	mov	r0, r3
 8001430:	46bd      	mov	sp, r7
 8001432:	bc80      	pop	{r7}
 8001434:	4770      	bx	lr

08001436 <LL_RCC_IsActiveFlag_HPRE>:
  * @brief  Check if HCLK1 prescaler flag value has been applied or not
  * @rmtoll CFGR         HPREF       LL_RCC_IsActiveFlag_HPRE
  * @retval State of bit (1 or 0).
  */
__STATIC_INLINE uint32_t LL_RCC_IsActiveFlag_HPRE(void)
{
 8001436:	b480      	push	{r7}
 8001438:	af00      	add	r7, sp, #0
  return ((READ_BIT(RCC->CFGR, RCC_CFGR_HPREF) == (RCC_CFGR_HPREF)) ? 1UL : 0UL);
 800143a:	f04f 43b0 	mov.w	r3, #1476395008	@ 0x58000000
 800143e:	689b      	ldr	r3, [r3, #8]
 8001440:	f403 3380 	and.w	r3, r3, #65536	@ 0x10000
 8001444:	f5b3 3f80 	cmp.w	r3, #65536	@ 0x10000
 8001448:	d101      	bne.n	800144e <LL_RCC_IsActiveFlag_HPRE+0x18>
 800144a:	2301      	movs	r3, #1
 800144c:	e000      	b.n	8001450 <LL_RCC_IsActiveFlag_HPRE+0x1a>
 800144e:	2300      	movs	r3, #0
}
 8001450:	4618      	mov	r0, r3
 8001452:	46bd      	mov	sp, r7
 8001454:	bc80      	pop	{r7}
 8001456:	4770      	bx	lr

08001458 <LL_RCC_IsActiveFlag_SHDHPRE>:
  * @brief  Check if HCLK3 prescaler flag value has been applied or not
  * @rmtoll EXTCFGR         SHDHPREF       LL_RCC_IsActiveFlag_SHDHPRE
  * @retval State of bit (1 or 0).
  */
__STATIC_INLINE uint32_t LL_RCC_IsActiveFlag_SHDHPRE(void)
{
 8001458:	b480      	push	{r7}
 800145a:	af00      	add	r7, sp, #0
  return ((READ_BIT(RCC->EXTCFGR, RCC_EXTCFGR_SHDHPREF) == (RCC_EXTCFGR_SHDHPREF)) ? 1UL : 0UL);
 800145c:	f04f 43b0 	mov.w	r3, #1476395008	@ 0x58000000
 8001460:	f8d3 3108 	ldr.w	r3, [r3, #264]	@ 0x108
 8001464:	f403 3380 	and.w	r3, r3, #65536	@ 0x10000
 8001468:	f5b3 3f80 	cmp.w	r3, #65536	@ 0x10000
 800146c:	d101      	bne.n	8001472 <LL_RCC_IsActiveFlag_SHDHPRE+0x1a>
 800146e:	2301      	movs	r3, #1
 8001470:	e000      	b.n	8001474 <LL_RCC_IsActiveFlag_SHDHPRE+0x1c>
 8001472:	2300      	movs	r3, #0
}
 8001474:	4618      	mov	r0, r3
 8001476:	46bd      	mov	sp, r7
 8001478:	bc80      	pop	{r7}
 800147a:	4770      	bx	lr

0800147c <LL_RCC_IsActiveFlag_PPRE1>:
  * @brief  Check if PLCK1 prescaler flag value has been applied or not
  * @rmtoll CFGR         PPRE1F       LL_RCC_IsActiveFlag_PPRE1
  * @retval State of bit (1 or 0).
  */
__STATIC_INLINE uint32_t LL_RCC_IsActiveFlag_PPRE1(void)
{
 800147c:	b480      	push	{r7}
 800147e:	af00      	add	r7, sp, #0
  return ((READ_BIT(RCC->CFGR, RCC_CFGR_PPRE1F) == (RCC_CFGR_PPRE1F)) ? 1UL : 0UL);
 8001480:	f04f 43b0 	mov.w	r3, #1476395008	@ 0x58000000
 8001484:	689b      	ldr	r3, [r3, #8]
 8001486:	f403 3300 	and.w	r3, r3, #131072	@ 0x20000
 800148a:	f5b3 3f00 	cmp.w	r3, #131072	@ 0x20000
 800148e:	d101      	bne.n	8001494 <LL_RCC_IsActiveFlag_PPRE1+0x18>
 8001490:	2301      	movs	r3, #1
 8001492:	e000      	b.n	8001496 <LL_RCC_IsActiveFlag_PPRE1+0x1a>
 8001494:	2300      	movs	r3, #0
}
 8001496:	4618      	mov	r0, r3
 8001498:	46bd      	mov	sp, r7
 800149a:	bc80      	pop	{r7}
 800149c:	4770      	bx	lr

0800149e <LL_RCC_IsActiveFlag_PPRE2>:
  * @brief  Check if PLCK2 prescaler flag value has been applied or not
  * @rmtoll CFGR         PPRE2F       LL_RCC_IsActiveFlag_PPRE2
  * @retval State of bit (1 or 0).
  */
__STATIC_INLINE uint32_t LL_RCC_IsActiveFlag_PPRE2(void)
{
 800149e:	b480      	push	{r7}
 80014a0:	af00      	add	r7, sp, #0
  return ((READ_BIT(RCC->CFGR, RCC_CFGR_PPRE2F) == (RCC_CFGR_PPRE2F)) ? 1UL : 0UL);
 80014a2:	f04f 43b0 	mov.w	r3, #1476395008	@ 0x58000000
 80014a6:	689b      	ldr	r3, [r3, #8]
 80014a8:	f403 2380 	and.w	r3, r3, #262144	@ 0x40000
 80014ac:	f5b3 2f80 	cmp.w	r3, #262144	@ 0x40000
 80014b0:	d101      	bne.n	80014b6 <LL_RCC_IsActiveFlag_PPRE2+0x18>
 80014b2:	2301      	movs	r3, #1
 80014b4:	e000      	b.n	80014b8 <LL_RCC_IsActiveFlag_PPRE2+0x1a>
 80014b6:	2300      	movs	r3, #0
}
 80014b8:	4618      	mov	r0, r3
 80014ba:	46bd      	mov	sp, r7
 80014bc:	bc80      	pop	{r7}
 80014be:	4770      	bx	lr

080014c0 <HAL_RCC_OscConfig>:
  *         contains the configuration information for the RCC Oscillators.
  * @note   The PLL is not disabled when used as system clock.
  * @retval HAL status
  */
HAL_StatusTypeDef HAL_RCC_OscConfig(RCC_OscInitTypeDef  *RCC_OscInitStruct)
{
 80014c0:	b580      	push	{r7, lr}
 80014c2:	b088      	sub	sp, #32
 80014c4:	af00      	add	r7, sp, #0
 80014c6:	6078      	str	r0, [r7, #4]
  uint32_t sysclk_source;
  uint32_t pll_config;
  HAL_StatusTypeDef status;

  /* Check Null pointer */
  if (RCC_OscInitStruct == NULL)
 80014c8:	687b      	ldr	r3, [r7, #4]
 80014ca:	2b00      	cmp	r3, #0
 80014cc:	d101      	bne.n	80014d2 <HAL_RCC_OscConfig+0x12>
  {
    return HAL_ERROR;
 80014ce:	2301      	movs	r3, #1
 80014d0:	e36f      	b.n	8001bb2 <HAL_RCC_OscConfig+0x6f2>
  }

  /* Check the parameters */
  assert_param(IS_RCC_OSCILLATORTYPE(RCC_OscInitStruct->OscillatorType));

  sysclk_source = __HAL_RCC_GET_SYSCLK_SOURCE();
 80014d2:	f7ff fee4 	bl	800129e <LL_RCC_GetSysClkSource>
 80014d6:	61f8      	str	r0, [r7, #28]
  pll_config = __HAL_RCC_GET_PLL_OSCSOURCE();
 80014d8:	f7ff ffa2 	bl	8001420 <LL_RCC_PLL_GetMainSource>
 80014dc:	61b8      	str	r0, [r7, #24]

  /*----------------------------- MSI Configuration --------------------------*/
  if (((RCC_OscInitStruct->OscillatorType) & RCC_OSCILLATORTYPE_MSI) == RCC_OSCILLATORTYPE_MSI)
 80014de:	687b      	ldr	r3, [r7, #4]
 80014e0:	681b      	ldr	r3, [r3, #0]
 80014e2:	f003 0320 	and.w	r3, r3, #32
 80014e6:	2b00      	cmp	r3, #0
 80014e8:	f000 80c4 	beq.w	8001674 <HAL_RCC_OscConfig+0x1b4>
    assert_param(IS_RCC_MSI(RCC_OscInitStruct->MSIState));
    assert_param(IS_RCC_MSI_CALIBRATION_VALUE(RCC_OscInitStruct->MSICalibrationValue));
    assert_param(IS_RCC_MSI_CLOCK_RANGE(RCC_OscInitStruct->MSIClockRange));

    /* When the MSI is used as system clock it will not be disabled */
    if ((sysclk_source == RCC_SYSCLKSOURCE_STATUS_MSI) ||
 80014ec:	69fb      	ldr	r3, [r7, #28]
 80014ee:	2b00      	cmp	r3, #0
 80014f0:	d005      	beq.n	80014fe <HAL_RCC_OscConfig+0x3e>
 80014f2:	69fb      	ldr	r3, [r7, #28]
 80014f4:	2b0c      	cmp	r3, #12
 80014f6:	d176      	bne.n	80015e6 <HAL_RCC_OscConfig+0x126>
        ((sysclk_source == RCC_SYSCLKSOURCE_STATUS_PLLCLK) && (pll_config == RCC_PLLSOURCE_MSI)))
 80014f8:	69bb      	ldr	r3, [r7, #24]
 80014fa:	2b01      	cmp	r3, #1
 80014fc:	d173      	bne.n	80015e6 <HAL_RCC_OscConfig+0x126>
    {
      if (RCC_OscInitStruct->MSIState == RCC_MSI_OFF)
 80014fe:	687b      	ldr	r3, [r7, #4]
 8001500:	6a1b      	ldr	r3, [r3, #32]
 8001502:	2b00      	cmp	r3, #0
 8001504:	d101      	bne.n	800150a <HAL_RCC_OscConfig+0x4a>
      {
        return HAL_ERROR;
 8001506:	2301      	movs	r3, #1
 8001508:	e353      	b.n	8001bb2 <HAL_RCC_OscConfig+0x6f2>
      else
      {
        /* To correctly read data from FLASH memory, the number of wait states (LATENCY)
           must be correctly programmed according to the frequency of the AHB3 clock
           and the supply voltage of the device. */
        if (RCC_OscInitStruct->MSIClockRange > __HAL_RCC_GET_MSI_RANGE())
 800150a:	687b      	ldr	r3, [r7, #4]
 800150c:	6a9a      	ldr	r2, [r3, #40]	@ 0x28
 800150e:	f04f 43b0 	mov.w	r3, #1476395008	@ 0x58000000
 8001512:	681b      	ldr	r3, [r3, #0]
 8001514:	f003 0308 	and.w	r3, r3, #8
 8001518:	2b00      	cmp	r3, #0
 800151a:	d005      	beq.n	8001528 <HAL_RCC_OscConfig+0x68>
 800151c:	f04f 43b0 	mov.w	r3, #1476395008	@ 0x58000000
 8001520:	681b      	ldr	r3, [r3, #0]
 8001522:	f003 03f0 	and.w	r3, r3, #240	@ 0xf0
 8001526:	e006      	b.n	8001536 <HAL_RCC_OscConfig+0x76>
 8001528:	f04f 43b0 	mov.w	r3, #1476395008	@ 0x58000000
 800152c:	f8d3 3094 	ldr.w	r3, [r3, #148]	@ 0x94
 8001530:	091b      	lsrs	r3, r3, #4
 8001532:	f003 03f0 	and.w	r3, r3, #240	@ 0xf0
 8001536:	4293      	cmp	r3, r2
 8001538:	d222      	bcs.n	8001580 <HAL_RCC_OscConfig+0xc0>
        {
          /* First increase number of wait states update if necessary */
          if (RCC_SetFlashLatencyFromMSIRange(RCC_OscInitStruct->MSIClockRange) != HAL_OK)
 800153a:	687b      	ldr	r3, [r7, #4]
 800153c:	6a9b      	ldr	r3, [r3, #40]	@ 0x28
 800153e:	4618      	mov	r0, r3
 8001540:	f000 fd18 	bl	8001f74 <RCC_SetFlashLatencyFromMSIRange>
 8001544:	4603      	mov	r3, r0
 8001546:	2b00      	cmp	r3, #0
 8001548:	d001      	beq.n	800154e <HAL_RCC_OscConfig+0x8e>
          {
            return HAL_ERROR;
 800154a:	2301      	movs	r3, #1
 800154c:	e331      	b.n	8001bb2 <HAL_RCC_OscConfig+0x6f2>
          }

          /* Selects the Multiple Speed oscillator (MSI) clock range .*/
          __HAL_RCC_MSI_RANGE_CONFIG(RCC_OscInitStruct->MSIClockRange);
 800154e:	f04f 43b0 	mov.w	r3, #1476395008	@ 0x58000000
 8001552:	681b      	ldr	r3, [r3, #0]
 8001554:	f04f 42b0 	mov.w	r2, #1476395008	@ 0x58000000
 8001558:	f043 0308 	orr.w	r3, r3, #8
 800155c:	6013      	str	r3, [r2, #0]
 800155e:	f04f 43b0 	mov.w	r3, #1476395008	@ 0x58000000
 8001562:	681b      	ldr	r3, [r3, #0]
 8001564:	f023 02f0 	bic.w	r2, r3, #240	@ 0xf0
 8001568:	687b      	ldr	r3, [r7, #4]
 800156a:	6a9b      	ldr	r3, [r3, #40]	@ 0x28
 800156c:	f04f 41b0 	mov.w	r1, #1476395008	@ 0x58000000
 8001570:	4313      	orrs	r3, r2
 8001572:	600b      	str	r3, [r1, #0]
          /* Adjusts the Multiple Speed oscillator (MSI) calibration value.*/
          __HAL_RCC_MSI_CALIBRATIONVALUE_ADJUST(RCC_OscInitStruct->MSICalibrationValue);
 8001574:	687b      	ldr	r3, [r7, #4]
 8001576:	6a5b      	ldr	r3, [r3, #36]	@ 0x24
 8001578:	4618      	mov	r0, r3
 800157a:	f7ff fe69 	bl	8001250 <LL_RCC_MSI_SetCalibTrimming>
 800157e:	e021      	b.n	80015c4 <HAL_RCC_OscConfig+0x104>
        }
        else
        {
          /* Else, keep current flash latency while decreasing applies */
          /* Selects the Multiple Speed oscillator (MSI) clock range. */
          __HAL_RCC_MSI_RANGE_CONFIG(RCC_OscInitStruct->MSIClockRange);
 8001580:	f04f 43b0 	mov.w	r3, #1476395008	@ 0x58000000
 8001584:	681b      	ldr	r3, [r3, #0]
 8001586:	f04f 42b0 	mov.w	r2, #1476395008	@ 0x58000000
 800158a:	f043 0308 	orr.w	r3, r3, #8
 800158e:	6013      	str	r3, [r2, #0]
 8001590:	f04f 43b0 	mov.w	r3, #1476395008	@ 0x58000000
 8001594:	681b      	ldr	r3, [r3, #0]
 8001596:	f023 02f0 	bic.w	r2, r3, #240	@ 0xf0
 800159a:	687b      	ldr	r3, [r7, #4]
 800159c:	6a9b      	ldr	r3, [r3, #40]	@ 0x28
 800159e:	f04f 41b0 	mov.w	r1, #1476395008	@ 0x58000000
 80015a2:	4313      	orrs	r3, r2
 80015a4:	600b      	str	r3, [r1, #0]
          /* Adjusts the Multiple Speed oscillator (MSI) calibration value.*/
          __HAL_RCC_MSI_CALIBRATIONVALUE_ADJUST(RCC_OscInitStruct->MSICalibrationValue);
 80015a6:	687b      	ldr	r3, [r7, #4]
 80015a8:	6a5b      	ldr	r3, [r3, #36]	@ 0x24
 80015aa:	4618      	mov	r0, r3
 80015ac:	f7ff fe50 	bl	8001250 <LL_RCC_MSI_SetCalibTrimming>

          /* Decrease number of wait states update if necessary */
          if (RCC_SetFlashLatencyFromMSIRange(RCC_OscInitStruct->MSIClockRange) != HAL_OK)
 80015b0:	687b      	ldr	r3, [r7, #4]
 80015b2:	6a9b      	ldr	r3, [r3, #40]	@ 0x28
 80015b4:	4618      	mov	r0, r3
 80015b6:	f000 fcdd 	bl	8001f74 <RCC_SetFlashLatencyFromMSIRange>
 80015ba:	4603      	mov	r3, r0
 80015bc:	2b00      	cmp	r3, #0
 80015be:	d001      	beq.n	80015c4 <HAL_RCC_OscConfig+0x104>
          {
            return HAL_ERROR;
 80015c0:	2301      	movs	r3, #1
 80015c2:	e2f6      	b.n	8001bb2 <HAL_RCC_OscConfig+0x6f2>
          }
        }

        /* Update the SystemCoreClock global variable */
        SystemCoreClock = HAL_RCC_GetHCLKFreq();
 80015c4:	f000 fcc2 	bl	8001f4c <HAL_RCC_GetHCLKFreq>
 80015c8:	4603      	mov	r3, r0
 80015ca:	4aa7      	ldr	r2, [pc, #668]	@ (8001868 <HAL_RCC_OscConfig+0x3a8>)
 80015cc:	6013      	str	r3, [r2, #0]

        /* Configure the source of time base considering new system clocks settings */
        status = HAL_InitTick(uwTickPrio);
 80015ce:	4ba7      	ldr	r3, [pc, #668]	@ (800186c <HAL_RCC_OscConfig+0x3ac>)
 80015d0:	681b      	ldr	r3, [r3, #0]
 80015d2:	4618      	mov	r0, r3
 80015d4:	f7ff fa3a 	bl	8000a4c <HAL_InitTick>
 80015d8:	4603      	mov	r3, r0
 80015da:	74fb      	strb	r3, [r7, #19]
        if (status != HAL_OK)
 80015dc:	7cfb      	ldrb	r3, [r7, #19]
 80015de:	2b00      	cmp	r3, #0
 80015e0:	d047      	beq.n	8001672 <HAL_RCC_OscConfig+0x1b2>
        {
          return status;
 80015e2:	7cfb      	ldrb	r3, [r7, #19]
 80015e4:	e2e5      	b.n	8001bb2 <HAL_RCC_OscConfig+0x6f2>
      }
    }
    else
    {
      /* Check the MSI State */
      if (RCC_OscInitStruct->MSIState != RCC_MSI_OFF)
 80015e6:	687b      	ldr	r3, [r7, #4]
 80015e8:	6a1b      	ldr	r3, [r3, #32]
 80015ea:	2b00      	cmp	r3, #0
 80015ec:	d02c      	beq.n	8001648 <HAL_RCC_OscConfig+0x188>
      {
        /* Enable the Internal High Speed oscillator (MSI). */
        __HAL_RCC_MSI_ENABLE();
 80015ee:	f7ff fddc 	bl	80011aa <LL_RCC_MSI_Enable>

        /* Get timeout */
        tickstart = HAL_GetTick();
 80015f2:	f7ff f8a3 	bl	800073c <HAL_GetTick>
 80015f6:	6178      	str	r0, [r7, #20]

        /* Wait till MSI is ready */
        while (LL_RCC_MSI_IsReady() == 0U)
 80015f8:	e008      	b.n	800160c <HAL_RCC_OscConfig+0x14c>
        {
          if ((HAL_GetTick() - tickstart) > MSI_TIMEOUT_VALUE)
 80015fa:	f7ff f89f 	bl	800073c <HAL_GetTick>
 80015fe:	4602      	mov	r2, r0
 8001600:	697b      	ldr	r3, [r7, #20]
 8001602:	1ad3      	subs	r3, r2, r3
 8001604:	2b02      	cmp	r3, #2
 8001606:	d901      	bls.n	800160c <HAL_RCC_OscConfig+0x14c>
          {
            return HAL_TIMEOUT;
 8001608:	2303      	movs	r3, #3
 800160a:	e2d2      	b.n	8001bb2 <HAL_RCC_OscConfig+0x6f2>
        while (LL_RCC_MSI_IsReady() == 0U)
 800160c:	f7ff fde9 	bl	80011e2 <LL_RCC_MSI_IsReady>
 8001610:	4603      	mov	r3, r0
 8001612:	2b00      	cmp	r3, #0
 8001614:	d0f1      	beq.n	80015fa <HAL_RCC_OscConfig+0x13a>
          }
        }

        /* Selects the Multiple Speed oscillator (MSI) clock range. */
        __HAL_RCC_MSI_RANGE_CONFIG(RCC_OscInitStruct->MSIClockRange);
 8001616:	f04f 43b0 	mov.w	r3, #1476395008	@ 0x58000000
 800161a:	681b      	ldr	r3, [r3, #0]
 800161c:	f04f 42b0 	mov.w	r2, #1476395008	@ 0x58000000
 8001620:	f043 0308 	orr.w	r3, r3, #8
 8001624:	6013      	str	r3, [r2, #0]
 8001626:	f04f 43b0 	mov.w	r3, #1476395008	@ 0x58000000
 800162a:	681b      	ldr	r3, [r3, #0]
 800162c:	f023 02f0 	bic.w	r2, r3, #240	@ 0xf0
 8001630:	687b      	ldr	r3, [r7, #4]
 8001632:	6a9b      	ldr	r3, [r3, #40]	@ 0x28
 8001634:	f04f 41b0 	mov.w	r1, #1476395008	@ 0x58000000
 8001638:	4313      	orrs	r3, r2
 800163a:	600b      	str	r3, [r1, #0]
        /* Adjusts the Multiple Speed oscillator (MSI) calibration value. */
        __HAL_RCC_MSI_CALIBRATIONVALUE_ADJUST(RCC_OscInitStruct->MSICalibrationValue);
 800163c:	687b      	ldr	r3, [r7, #4]
 800163e:	6a5b      	ldr	r3, [r3, #36]	@ 0x24
 8001640:	4618      	mov	r0, r3
 8001642:	f7ff fe05 	bl	8001250 <LL_RCC_MSI_SetCalibTrimming>
 8001646:	e015      	b.n	8001674 <HAL_RCC_OscConfig+0x1b4>

      }
      else
      {
        /* Disable the Internal High Speed oscillator (MSI). */
        __HAL_RCC_MSI_DISABLE();
 8001648:	f7ff fdbd 	bl	80011c6 <LL_RCC_MSI_Disable>

        /* Get timeout */
        tickstart = HAL_GetTick();
 800164c:	f7ff f876 	bl	800073c <HAL_GetTick>
 8001650:	6178      	str	r0, [r7, #20]

        /* Wait till MSI is disabled */
        while (LL_RCC_MSI_IsReady() != 0U)
 8001652:	e008      	b.n	8001666 <HAL_RCC_OscConfig+0x1a6>
        {
          if ((HAL_GetTick() - tickstart) > MSI_TIMEOUT_VALUE)
 8001654:	f7ff f872 	bl	800073c <HAL_GetTick>
 8001658:	4602      	mov	r2, r0
 800165a:	697b      	ldr	r3, [r7, #20]
 800165c:	1ad3      	subs	r3, r2, r3
 800165e:	2b02      	cmp	r3, #2
 8001660:	d901      	bls.n	8001666 <HAL_RCC_OscConfig+0x1a6>
          {
            return HAL_TIMEOUT;
 8001662:	2303      	movs	r3, #3
 8001664:	e2a5      	b.n	8001bb2 <HAL_RCC_OscConfig+0x6f2>
        while (LL_RCC_MSI_IsReady() != 0U)
 8001666:	f7ff fdbc 	bl	80011e2 <LL_RCC_MSI_IsReady>
 800166a:	4603      	mov	r3, r0
 800166c:	2b00      	cmp	r3, #0
 800166e:	d1f1      	bne.n	8001654 <HAL_RCC_OscConfig+0x194>
 8001670:	e000      	b.n	8001674 <HAL_RCC_OscConfig+0x1b4>
      if (RCC_OscInitStruct->MSIState == RCC_MSI_OFF)
 8001672:	bf00      	nop
      }
    }
  }

  /*------------------------------- HSE Configuration ------------------------*/
  if (((RCC_OscInitStruct->OscillatorType) & RCC_OSCILLATORTYPE_HSE) == RCC_OSCILLATORTYPE_HSE)
 8001674:	687b      	ldr	r3, [r7, #4]
 8001676:	681b      	ldr	r3, [r3, #0]
 8001678:	f003 0301 	and.w	r3, r3, #1
 800167c:	2b00      	cmp	r3, #0
 800167e:	d058      	beq.n	8001732 <HAL_RCC_OscConfig+0x272>
  {
    /* Check the parameters */
    assert_param(IS_RCC_HSE(RCC_OscInitStruct->HSEState));

    /* When the HSE is used as system clock or clock source for PLL in these cases it is not allowed to be disabled */
    if ((sysclk_source == RCC_SYSCLKSOURCE_STATUS_HSE) ||
 8001680:	69fb      	ldr	r3, [r7, #28]
 8001682:	2b08      	cmp	r3, #8
 8001684:	d005      	beq.n	8001692 <HAL_RCC_OscConfig+0x1d2>
 8001686:	69fb      	ldr	r3, [r7, #28]
 8001688:	2b0c      	cmp	r3, #12
 800168a:	d108      	bne.n	800169e <HAL_RCC_OscConfig+0x1de>
        ((sysclk_source == RCC_SYSCLKSOURCE_STATUS_PLLCLK) && (pll_config == RCC_PLLSOURCE_HSE)))
 800168c:	69bb      	ldr	r3, [r7, #24]
 800168e:	2b03      	cmp	r3, #3
 8001690:	d105      	bne.n	800169e <HAL_RCC_OscConfig+0x1de>
    {
      if (RCC_OscInitStruct->HSEState == RCC_HSE_OFF)
 8001692:	687b      	ldr	r3, [r7, #4]
 8001694:	685b      	ldr	r3, [r3, #4]
 8001696:	2b00      	cmp	r3, #0
 8001698:	d14b      	bne.n	8001732 <HAL_RCC_OscConfig+0x272>
      {
        return HAL_ERROR;
 800169a:	2301      	movs	r3, #1
 800169c:	e289      	b.n	8001bb2 <HAL_RCC_OscConfig+0x6f2>
      /* Set the new HSE configuration ---------------------------------------*/
      /* Check HSE division factor */
      assert_param(IS_RCC_HSEDIV(RCC_OscInitStruct->HSEDiv));

      /* Set HSE division factor */
      MODIFY_REG(RCC->CR, RCC_CR_HSEPRE, RCC_OscInitStruct->HSEDiv);
 800169e:	f04f 43b0 	mov.w	r3, #1476395008	@ 0x58000000
 80016a2:	681b      	ldr	r3, [r3, #0]
 80016a4:	f423 1280 	bic.w	r2, r3, #1048576	@ 0x100000
 80016a8:	687b      	ldr	r3, [r7, #4]
 80016aa:	689b      	ldr	r3, [r3, #8]
 80016ac:	f04f 41b0 	mov.w	r1, #1476395008	@ 0x58000000
 80016b0:	4313      	orrs	r3, r2
 80016b2:	600b      	str	r3, [r1, #0]

      __HAL_RCC_HSE_CONFIG(RCC_OscInitStruct->HSEState);
 80016b4:	687b      	ldr	r3, [r7, #4]
 80016b6:	685b      	ldr	r3, [r3, #4]
 80016b8:	f5b3 3f80 	cmp.w	r3, #65536	@ 0x10000
 80016bc:	d102      	bne.n	80016c4 <HAL_RCC_OscConfig+0x204>
 80016be:	f7ff fcc4 	bl	800104a <LL_RCC_HSE_Enable>
 80016c2:	e00d      	b.n	80016e0 <HAL_RCC_OscConfig+0x220>
 80016c4:	687b      	ldr	r3, [r7, #4]
 80016c6:	685b      	ldr	r3, [r3, #4]
 80016c8:	f5b3 1f04 	cmp.w	r3, #2162688	@ 0x210000
 80016cc:	d104      	bne.n	80016d8 <HAL_RCC_OscConfig+0x218>
 80016ce:	f7ff fc8f 	bl	8000ff0 <LL_RCC_HSE_EnableTcxo>
 80016d2:	f7ff fcba 	bl	800104a <LL_RCC_HSE_Enable>
 80016d6:	e003      	b.n	80016e0 <HAL_RCC_OscConfig+0x220>
 80016d8:	f7ff fcc5 	bl	8001066 <LL_RCC_HSE_Disable>
 80016dc:	f7ff fc96 	bl	800100c <LL_RCC_HSE_DisableTcxo>

      /* Check the HSE State */
      if (RCC_OscInitStruct->HSEState != RCC_HSE_OFF)
 80016e0:	687b      	ldr	r3, [r7, #4]
 80016e2:	685b      	ldr	r3, [r3, #4]
 80016e4:	2b00      	cmp	r3, #0
 80016e6:	d012      	beq.n	800170e <HAL_RCC_OscConfig+0x24e>
      {
        /* Get Start Tick */
        tickstart = HAL_GetTick();
 80016e8:	f7ff f828 	bl	800073c <HAL_GetTick>
 80016ec:	6178      	str	r0, [r7, #20]

        /* Wait till HSE is ready */
        while (LL_RCC_HSE_IsReady() == 0U)
 80016ee:	e008      	b.n	8001702 <HAL_RCC_OscConfig+0x242>
        {
          if ((HAL_GetTick() - tickstart) > HSE_TIMEOUT_VALUE)
 80016f0:	f7ff f824 	bl	800073c <HAL_GetTick>
 80016f4:	4602      	mov	r2, r0
 80016f6:	697b      	ldr	r3, [r7, #20]
 80016f8:	1ad3      	subs	r3, r2, r3
 80016fa:	2b64      	cmp	r3, #100	@ 0x64
 80016fc:	d901      	bls.n	8001702 <HAL_RCC_OscConfig+0x242>
          {
            return HAL_TIMEOUT;
 80016fe:	2303      	movs	r3, #3
 8001700:	e257      	b.n	8001bb2 <HAL_RCC_OscConfig+0x6f2>
        while (LL_RCC_HSE_IsReady() == 0U)
 8001702:	f7ff fcbe 	bl	8001082 <LL_RCC_HSE_IsReady>
 8001706:	4603      	mov	r3, r0
 8001708:	2b00      	cmp	r3, #0
 800170a:	d0f1      	beq.n	80016f0 <HAL_RCC_OscConfig+0x230>
 800170c:	e011      	b.n	8001732 <HAL_RCC_OscConfig+0x272>
        }
      }
      else
      {
        /* Get Start Tick */
        tickstart = HAL_GetTick();
 800170e:	f7ff f815 	bl	800073c <HAL_GetTick>
 8001712:	6178      	str	r0, [r7, #20]

        /* Wait till HSE is disabled */
        while (LL_RCC_HSE_IsReady() != 0U)
 8001714:	e008      	b.n	8001728 <HAL_RCC_OscConfig+0x268>
        {
          if ((HAL_GetTick() - tickstart) > HSE_TIMEOUT_VALUE)
 8001716:	f7ff f811 	bl	800073c <HAL_GetTick>
 800171a:	4602      	mov	r2, r0
 800171c:	697b      	ldr	r3, [r7, #20]
 800171e:	1ad3      	subs	r3, r2, r3
 8001720:	2b64      	cmp	r3, #100	@ 0x64
 8001722:	d901      	bls.n	8001728 <HAL_RCC_OscConfig+0x268>
          {
            return HAL_TIMEOUT;
 8001724:	2303      	movs	r3, #3
 8001726:	e244      	b.n	8001bb2 <HAL_RCC_OscConfig+0x6f2>
        while (LL_RCC_HSE_IsReady() != 0U)
 8001728:	f7ff fcab 	bl	8001082 <LL_RCC_HSE_IsReady>
 800172c:	4603      	mov	r3, r0
 800172e:	2b00      	cmp	r3, #0
 8001730:	d1f1      	bne.n	8001716 <HAL_RCC_OscConfig+0x256>
      }
    }
  }

  /*----------------------------- HSI Configuration --------------------------*/
  if (((RCC_OscInitStruct->OscillatorType) & RCC_OSCILLATORTYPE_HSI) == RCC_OSCILLATORTYPE_HSI)
 8001732:	687b      	ldr	r3, [r7, #4]
 8001734:	681b      	ldr	r3, [r3, #0]
 8001736:	f003 0302 	and.w	r3, r3, #2
 800173a:	2b00      	cmp	r3, #0
 800173c:	d046      	beq.n	80017cc <HAL_RCC_OscConfig+0x30c>
    /* Check the parameters */
    assert_param(IS_RCC_HSI(RCC_OscInitStruct->HSIState));
    assert_param(IS_RCC_HSI_CALIBRATION_VALUE(RCC_OscInitStruct->HSICalibrationValue));

    /* Check if HSI is used as system clock or as PLL source when PLL is selected as system clock */
    if ((sysclk_source == RCC_SYSCLKSOURCE_STATUS_HSI) ||
 800173e:	69fb      	ldr	r3, [r7, #28]
 8001740:	2b04      	cmp	r3, #4
 8001742:	d005      	beq.n	8001750 <HAL_RCC_OscConfig+0x290>
 8001744:	69fb      	ldr	r3, [r7, #28]
 8001746:	2b0c      	cmp	r3, #12
 8001748:	d10e      	bne.n	8001768 <HAL_RCC_OscConfig+0x2a8>
        ((sysclk_source == RCC_SYSCLKSOURCE_STATUS_PLLCLK) && (pll_config == RCC_PLLSOURCE_HSI)))
 800174a:	69bb      	ldr	r3, [r7, #24]
 800174c:	2b02      	cmp	r3, #2
 800174e:	d10b      	bne.n	8001768 <HAL_RCC_OscConfig+0x2a8>
    {
      /* When HSI is used as system clock it will not be disabled */
      if (RCC_OscInitStruct->HSIState == RCC_HSI_OFF)
 8001750:	687b      	ldr	r3, [r7, #4]
 8001752:	691b      	ldr	r3, [r3, #16]
 8001754:	2b00      	cmp	r3, #0
 8001756:	d101      	bne.n	800175c <HAL_RCC_OscConfig+0x29c>
      {
        return HAL_ERROR;
 8001758:	2301      	movs	r3, #1
 800175a:	e22a      	b.n	8001bb2 <HAL_RCC_OscConfig+0x6f2>
      }
      /* Otherwise, just the calibration is allowed */
      else
      {
        /* Adjusts the Internal High Speed oscillator (HSI) calibration value. */
        __HAL_RCC_HSI_CALIBRATIONVALUE_ADJUST(RCC_OscInitStruct->HSICalibrationValue);
 800175c:	687b      	ldr	r3, [r7, #4]
 800175e:	695b      	ldr	r3, [r3, #20]
 8001760:	4618      	mov	r0, r3
 8001762:	f7ff fccc 	bl	80010fe <LL_RCC_HSI_SetCalibTrimming>
      if (RCC_OscInitStruct->HSIState == RCC_HSI_OFF)
 8001766:	e031      	b.n	80017cc <HAL_RCC_OscConfig+0x30c>
      }
    }
    else
    {
      /* Check the HSI State */
      if (RCC_OscInitStruct->HSIState != RCC_HSI_OFF)
 8001768:	687b      	ldr	r3, [r7, #4]
 800176a:	691b      	ldr	r3, [r3, #16]
 800176c:	2b00      	cmp	r3, #0
 800176e:	d019      	beq.n	80017a4 <HAL_RCC_OscConfig+0x2e4>
      {
        /* Enable the Internal High Speed oscillator (HSI). */
        __HAL_RCC_HSI_ENABLE();
 8001770:	f7ff fc98 	bl	80010a4 <LL_RCC_HSI_Enable>

        /* Get Start Tick*/
        tickstart = HAL_GetTick();
 8001774:	f7fe ffe2 	bl	800073c <HAL_GetTick>
 8001778:	6178      	str	r0, [r7, #20]

        /* Wait till HSI is ready */
        while (LL_RCC_HSI_IsReady() == 0U)
 800177a:	e008      	b.n	800178e <HAL_RCC_OscConfig+0x2ce>
        {
          if ((HAL_GetTick() - tickstart) > HSI_TIMEOUT_VALUE)
 800177c:	f7fe ffde 	bl	800073c <HAL_GetTick>
 8001780:	4602      	mov	r2, r0
 8001782:	697b      	ldr	r3, [r7, #20]
 8001784:	1ad3      	subs	r3, r2, r3
 8001786:	2b02      	cmp	r3, #2
 8001788:	d901      	bls.n	800178e <HAL_RCC_OscConfig+0x2ce>
          {
            return HAL_TIMEOUT;
 800178a:	2303      	movs	r3, #3
 800178c:	e211      	b.n	8001bb2 <HAL_RCC_OscConfig+0x6f2>
        while (LL_RCC_HSI_IsReady() == 0U)
 800178e:	f7ff fca5 	bl	80010dc <LL_RCC_HSI_IsReady>
 8001792:	4603      	mov	r3, r0
 8001794:	2b00      	cmp	r3, #0
 8001796:	d0f1      	beq.n	800177c <HAL_RCC_OscConfig+0x2bc>
          }
        }

        /* Adjusts the Internal High Speed oscillator (HSI) calibration value. */
        __HAL_RCC_HSI_CALIBRATIONVALUE_ADJUST(RCC_OscInitStruct->HSICalibrationValue);
 8001798:	687b      	ldr	r3, [r7, #4]
 800179a:	695b      	ldr	r3, [r3, #20]
 800179c:	4618      	mov	r0, r3
 800179e:	f7ff fcae 	bl	80010fe <LL_RCC_HSI_SetCalibTrimming>
 80017a2:	e013      	b.n	80017cc <HAL_RCC_OscConfig+0x30c>
      }
      else
      {
        /* Disable the Internal High Speed oscillator (HSI). */
        __HAL_RCC_HSI_DISABLE();
 80017a4:	f7ff fc8c 	bl	80010c0 <LL_RCC_HSI_Disable>

        /* Get Start Tick*/
        tickstart = HAL_GetTick();
 80017a8:	f7fe ffc8 	bl	800073c <HAL_GetTick>
 80017ac:	6178      	str	r0, [r7, #20]

        /* Wait till HSI is disabled */
        while (LL_RCC_HSI_IsReady() != 0U)
 80017ae:	e008      	b.n	80017c2 <HAL_RCC_OscConfig+0x302>
        {
          if ((HAL_GetTick() - tickstart) > HSI_TIMEOUT_VALUE)
 80017b0:	f7fe ffc4 	bl	800073c <HAL_GetTick>
 80017b4:	4602      	mov	r2, r0
 80017b6:	697b      	ldr	r3, [r7, #20]
 80017b8:	1ad3      	subs	r3, r2, r3
 80017ba:	2b02      	cmp	r3, #2
 80017bc:	d901      	bls.n	80017c2 <HAL_RCC_OscConfig+0x302>
          {
            return HAL_TIMEOUT;
 80017be:	2303      	movs	r3, #3
 80017c0:	e1f7      	b.n	8001bb2 <HAL_RCC_OscConfig+0x6f2>
        while (LL_RCC_HSI_IsReady() != 0U)
 80017c2:	f7ff fc8b 	bl	80010dc <LL_RCC_HSI_IsReady>
 80017c6:	4603      	mov	r3, r0
 80017c8:	2b00      	cmp	r3, #0
 80017ca:	d1f1      	bne.n	80017b0 <HAL_RCC_OscConfig+0x2f0>
      }
    }
  }

  /*------------------------------ LSI Configuration -------------------------*/
  if (((RCC_OscInitStruct->OscillatorType) & RCC_OSCILLATORTYPE_LSI) == RCC_OSCILLATORTYPE_LSI)
 80017cc:	687b      	ldr	r3, [r7, #4]
 80017ce:	681b      	ldr	r3, [r3, #0]
 80017d0:	f003 0308 	and.w	r3, r3, #8
 80017d4:	2b00      	cmp	r3, #0
 80017d6:	d06e      	beq.n	80018b6 <HAL_RCC_OscConfig+0x3f6>
  {
    /* Check the parameters */
    assert_param(IS_RCC_LSI(RCC_OscInitStruct->LSIState));

    /* Check the LSI State */
    if (RCC_OscInitStruct->LSIState != RCC_LSI_OFF)
 80017d8:	687b      	ldr	r3, [r7, #4]
 80017da:	699b      	ldr	r3, [r3, #24]
 80017dc:	2b00      	cmp	r3, #0
 80017de:	d056      	beq.n	800188e <HAL_RCC_OscConfig+0x3ce>
    {
      uint32_t csr_temp = RCC->CSR;
 80017e0:	f04f 43b0 	mov.w	r3, #1476395008	@ 0x58000000
 80017e4:	f8d3 3094 	ldr.w	r3, [r3, #148]	@ 0x94
 80017e8:	60fb      	str	r3, [r7, #12]

      /* Check LSI division factor */
      assert_param(IS_RCC_LSIDIV(RCC_OscInitStruct->LSIDiv));

      if (RCC_OscInitStruct->LSIDiv != (csr_temp & RCC_CSR_LSIPRE))
 80017ea:	687b      	ldr	r3, [r7, #4]
 80017ec:	69da      	ldr	r2, [r3, #28]
 80017ee:	68fb      	ldr	r3, [r7, #12]
 80017f0:	f003 0310 	and.w	r3, r3, #16
 80017f4:	429a      	cmp	r2, r3
 80017f6:	d031      	beq.n	800185c <HAL_RCC_OscConfig+0x39c>
      {
        if (((csr_temp & RCC_CSR_LSIRDY) == RCC_CSR_LSIRDY) && \
 80017f8:	68fb      	ldr	r3, [r7, #12]
 80017fa:	f003 0302 	and.w	r3, r3, #2
 80017fe:	2b00      	cmp	r3, #0
 8001800:	d006      	beq.n	8001810 <HAL_RCC_OscConfig+0x350>
            ((csr_temp & RCC_CSR_LSION) != RCC_CSR_LSION))
 8001802:	68fb      	ldr	r3, [r7, #12]
 8001804:	f003 0301 	and.w	r3, r3, #1
        if (((csr_temp & RCC_CSR_LSIRDY) == RCC_CSR_LSIRDY) && \
 8001808:	2b00      	cmp	r3, #0
 800180a:	d101      	bne.n	8001810 <HAL_RCC_OscConfig+0x350>
        {
          /* If LSIRDY is set while LSION is not enabled,
             LSIPRE can't be updated */
          return HAL_ERROR;
 800180c:	2301      	movs	r3, #1
 800180e:	e1d0      	b.n	8001bb2 <HAL_RCC_OscConfig+0x6f2>
        }

        /* Turn off LSI before changing RCC_CSR_LSIPRE */
        if ((csr_temp & RCC_CSR_LSION) == RCC_CSR_LSION)
 8001810:	68fb      	ldr	r3, [r7, #12]
 8001812:	f003 0301 	and.w	r3, r3, #1
 8001816:	2b00      	cmp	r3, #0
 8001818:	d013      	beq.n	8001842 <HAL_RCC_OscConfig+0x382>
        {
          __HAL_RCC_LSI_DISABLE();
 800181a:	f7ff fca5 	bl	8001168 <LL_RCC_LSI_Disable>

          /* Get Start Tick*/
          tickstart = HAL_GetTick();
 800181e:	f7fe ff8d 	bl	800073c <HAL_GetTick>
 8001822:	6178      	str	r0, [r7, #20]

          /* Wait till LSI is disabled */
          while (LL_RCC_LSI_IsReady() != 0U)
 8001824:	e008      	b.n	8001838 <HAL_RCC_OscConfig+0x378>
          {
            if ((HAL_GetTick() - tickstart) > LSI_TIMEOUT_VALUE)
 8001826:	f7fe ff89 	bl	800073c <HAL_GetTick>
 800182a:	4602      	mov	r2, r0
 800182c:	697b      	ldr	r3, [r7, #20]
 800182e:	1ad3      	subs	r3, r2, r3
 8001830:	2b11      	cmp	r3, #17
 8001832:	d901      	bls.n	8001838 <HAL_RCC_OscConfig+0x378>
            {
              return HAL_TIMEOUT;
 8001834:	2303      	movs	r3, #3
 8001836:	e1bc      	b.n	8001bb2 <HAL_RCC_OscConfig+0x6f2>
          while (LL_RCC_LSI_IsReady() != 0U)
 8001838:	f7ff fca6 	bl	8001188 <LL_RCC_LSI_IsReady>
 800183c:	4603      	mov	r3, r0
 800183e:	2b00      	cmp	r3, #0
 8001840:	d1f1      	bne.n	8001826 <HAL_RCC_OscConfig+0x366>
            }
          }
        }

        /* Set LSI division factor */
        MODIFY_REG(RCC->CSR, RCC_CSR_LSIPRE, RCC_OscInitStruct->LSIDiv);
 8001842:	f04f 43b0 	mov.w	r3, #1476395008	@ 0x58000000
 8001846:	f8d3 3094 	ldr.w	r3, [r3, #148]	@ 0x94
 800184a:	f023 0210 	bic.w	r2, r3, #16
 800184e:	687b      	ldr	r3, [r7, #4]
 8001850:	69db      	ldr	r3, [r3, #28]
 8001852:	f04f 41b0 	mov.w	r1, #1476395008	@ 0x58000000
 8001856:	4313      	orrs	r3, r2
 8001858:	f8c1 3094 	str.w	r3, [r1, #148]	@ 0x94
      }

      /* Enable the Internal Low Speed oscillator (LSI). */
      __HAL_RCC_LSI_ENABLE();
 800185c:	f7ff fc74 	bl	8001148 <LL_RCC_LSI_Enable>

      /* Get Start Tick */
      tickstart = HAL_GetTick();
 8001860:	f7fe ff6c 	bl	800073c <HAL_GetTick>
 8001864:	6178      	str	r0, [r7, #20]

      /* Wait till LSI is ready */
      while (LL_RCC_LSI_IsReady() == 0U)
 8001866:	e00c      	b.n	8001882 <HAL_RCC_OscConfig+0x3c2>
 8001868:	20000000 	.word	0x20000000
 800186c:	20000004 	.word	0x20000004
      {
        if ((HAL_GetTick() - tickstart) > LSI_TIMEOUT_VALUE)
 8001870:	f7fe ff64 	bl	800073c <HAL_GetTick>
 8001874:	4602      	mov	r2, r0
 8001876:	697b      	ldr	r3, [r7, #20]
 8001878:	1ad3      	subs	r3, r2, r3
 800187a:	2b11      	cmp	r3, #17
 800187c:	d901      	bls.n	8001882 <HAL_RCC_OscConfig+0x3c2>
        {
          return HAL_TIMEOUT;
 800187e:	2303      	movs	r3, #3
 8001880:	e197      	b.n	8001bb2 <HAL_RCC_OscConfig+0x6f2>
      while (LL_RCC_LSI_IsReady() == 0U)
 8001882:	f7ff fc81 	bl	8001188 <LL_RCC_LSI_IsReady>
 8001886:	4603      	mov	r3, r0
 8001888:	2b00      	cmp	r3, #0
 800188a:	d0f1      	beq.n	8001870 <HAL_RCC_OscConfig+0x3b0>
 800188c:	e013      	b.n	80018b6 <HAL_RCC_OscConfig+0x3f6>
      }
    }
    else
    {
      /* Disable the Internal Low Speed oscillator (LSI). */
      __HAL_RCC_LSI_DISABLE();
 800188e:	f7ff fc6b 	bl	8001168 <LL_RCC_LSI_Disable>

      /* Get Start Tick */
      tickstart = HAL_GetTick();
 8001892:	f7fe ff53 	bl	800073c <HAL_GetTick>
 8001896:	6178      	str	r0, [r7, #20]

      /* Wait till LSI is disabled */
      while (LL_RCC_LSI_IsReady() != 0U)
 8001898:	e008      	b.n	80018ac <HAL_RCC_OscConfig+0x3ec>
      {
        if ((HAL_GetTick() - tickstart) > LSI_TIMEOUT_VALUE)
 800189a:	f7fe ff4f 	bl	800073c <HAL_GetTick>
 800189e:	4602      	mov	r2, r0
 80018a0:	697b      	ldr	r3, [r7, #20]
 80018a2:	1ad3      	subs	r3, r2, r3
 80018a4:	2b11      	cmp	r3, #17
 80018a6:	d901      	bls.n	80018ac <HAL_RCC_OscConfig+0x3ec>
        {
          return HAL_TIMEOUT;
 80018a8:	2303      	movs	r3, #3
 80018aa:	e182      	b.n	8001bb2 <HAL_RCC_OscConfig+0x6f2>
      while (LL_RCC_LSI_IsReady() != 0U)
 80018ac:	f7ff fc6c 	bl	8001188 <LL_RCC_LSI_IsReady>
 80018b0:	4603      	mov	r3, r0
 80018b2:	2b00      	cmp	r3, #0
 80018b4:	d1f1      	bne.n	800189a <HAL_RCC_OscConfig+0x3da>
      }
    }
  }

  /*------------------------------ LSE Configuration -------------------------*/
  if (((RCC_OscInitStruct->OscillatorType) & RCC_OSCILLATORTYPE_LSE) == RCC_OSCILLATORTYPE_LSE)
 80018b6:	687b      	ldr	r3, [r7, #4]
 80018b8:	681b      	ldr	r3, [r3, #0]
 80018ba:	f003 0304 	and.w	r3, r3, #4
 80018be:	2b00      	cmp	r3, #0
 80018c0:	f000 80d8 	beq.w	8001a74 <HAL_RCC_OscConfig+0x5b4>
    assert_param(IS_RCC_LSE(RCC_OscInitStruct->LSEState));

    /* Update LSE configuration in Backup Domain control register    */
    /* Requires to enable write access to Backup Domain of necessary */

    if (LL_PWR_IsEnabledBkUpAccess() == 0U)
 80018c4:	f7ff fb82 	bl	8000fcc <LL_PWR_IsEnabledBkUpAccess>
 80018c8:	4603      	mov	r3, r0
 80018ca:	2b00      	cmp	r3, #0
 80018cc:	d113      	bne.n	80018f6 <HAL_RCC_OscConfig+0x436>
    {
      /* Enable write access to Backup domain */
      HAL_PWR_EnableBkUpAccess();
 80018ce:	f7ff fb63 	bl	8000f98 <HAL_PWR_EnableBkUpAccess>

      /* Wait for Backup domain Write protection disable */
      tickstart = HAL_GetTick();
 80018d2:	f7fe ff33 	bl	800073c <HAL_GetTick>
 80018d6:	6178      	str	r0, [r7, #20]

      while (LL_PWR_IsEnabledBkUpAccess() == 0U)
 80018d8:	e008      	b.n	80018ec <HAL_RCC_OscConfig+0x42c>
      {
        if ((HAL_GetTick() - tickstart) > RCC_DBP_TIMEOUT_VALUE)
 80018da:	f7fe ff2f 	bl	800073c <HAL_GetTick>
 80018de:	4602      	mov	r2, r0
 80018e0:	697b      	ldr	r3, [r7, #20]
 80018e2:	1ad3      	subs	r3, r2, r3
 80018e4:	2b02      	cmp	r3, #2
 80018e6:	d901      	bls.n	80018ec <HAL_RCC_OscConfig+0x42c>
        {
          return HAL_TIMEOUT;
 80018e8:	2303      	movs	r3, #3
 80018ea:	e162      	b.n	8001bb2 <HAL_RCC_OscConfig+0x6f2>
      while (LL_PWR_IsEnabledBkUpAccess() == 0U)
 80018ec:	f7ff fb6e 	bl	8000fcc <LL_PWR_IsEnabledBkUpAccess>
 80018f0:	4603      	mov	r3, r0
 80018f2:	2b00      	cmp	r3, #0
 80018f4:	d0f1      	beq.n	80018da <HAL_RCC_OscConfig+0x41a>
        }
      }
    }

    /* Set the new LSE configuration -----------------------------------------*/
    if (RCC_OscInitStruct->LSEState != RCC_LSE_OFF)
 80018f6:	687b      	ldr	r3, [r7, #4]
 80018f8:	68db      	ldr	r3, [r3, #12]
 80018fa:	2b00      	cmp	r3, #0
 80018fc:	d07b      	beq.n	80019f6 <HAL_RCC_OscConfig+0x536>
    {
      /* Enable LSE bypasss (if requested) */
      if ((RCC_OscInitStruct->LSEState == RCC_LSE_BYPASS)
 80018fe:	687b      	ldr	r3, [r7, #4]
 8001900:	68db      	ldr	r3, [r3, #12]
 8001902:	2b85      	cmp	r3, #133	@ 0x85
 8001904:	d003      	beq.n	800190e <HAL_RCC_OscConfig+0x44e>
          || (RCC_OscInitStruct->LSEState == RCC_LSE_BYPASS_RTC_ONLY))
 8001906:	687b      	ldr	r3, [r7, #4]
 8001908:	68db      	ldr	r3, [r3, #12]
 800190a:	2b05      	cmp	r3, #5
 800190c:	d109      	bne.n	8001922 <HAL_RCC_OscConfig+0x462>
      {
        /* LSE oscillator bypass enable */
        SET_BIT(RCC->BDCR, RCC_BDCR_LSEBYP);
 800190e:	f04f 43b0 	mov.w	r3, #1476395008	@ 0x58000000
 8001912:	f8d3 3090 	ldr.w	r3, [r3, #144]	@ 0x90
 8001916:	f04f 42b0 	mov.w	r2, #1476395008	@ 0x58000000
 800191a:	f043 0304 	orr.w	r3, r3, #4
 800191e:	f8c2 3090 	str.w	r3, [r2, #144]	@ 0x90
      }

      /* Get Start Tick */
      tickstart = HAL_GetTick();
 8001922:	f7fe ff0b 	bl	800073c <HAL_GetTick>
 8001926:	6178      	str	r0, [r7, #20]

      /* LSE oscillator enable */
      SET_BIT(RCC->BDCR, RCC_BDCR_LSEON);
 8001928:	f04f 43b0 	mov.w	r3, #1476395008	@ 0x58000000
 800192c:	f8d3 3090 	ldr.w	r3, [r3, #144]	@ 0x90
 8001930:	f04f 42b0 	mov.w	r2, #1476395008	@ 0x58000000
 8001934:	f043 0301 	orr.w	r3, r3, #1
 8001938:	f8c2 3090 	str.w	r3, [r2, #144]	@ 0x90

      /* Wait till LSE is ready */
      while (LL_RCC_LSE_IsReady() == 0U)
 800193c:	e00a      	b.n	8001954 <HAL_RCC_OscConfig+0x494>
      {
        if ((HAL_GetTick() - tickstart) > RCC_LSE_TIMEOUT_VALUE)
 800193e:	f7fe fefd 	bl	800073c <HAL_GetTick>
 8001942:	4602      	mov	r2, r0
 8001944:	697b      	ldr	r3, [r7, #20]
 8001946:	1ad3      	subs	r3, r2, r3
 8001948:	f241 3288 	movw	r2, #5000	@ 0x1388
 800194c:	4293      	cmp	r3, r2
 800194e:	d901      	bls.n	8001954 <HAL_RCC_OscConfig+0x494>
        {
          return HAL_TIMEOUT;
 8001950:	2303      	movs	r3, #3
 8001952:	e12e      	b.n	8001bb2 <HAL_RCC_OscConfig+0x6f2>
      while (LL_RCC_LSE_IsReady() == 0U)
 8001954:	f7ff fbe7 	bl	8001126 <LL_RCC_LSE_IsReady>
 8001958:	4603      	mov	r3, r0
 800195a:	2b00      	cmp	r3, #0
 800195c:	d0ef      	beq.n	800193e <HAL_RCC_OscConfig+0x47e>
        }
      }

      /* Enable LSE system clock (if requested) */
      if ((RCC_OscInitStruct->LSEState == RCC_LSE_ON)
 800195e:	687b      	ldr	r3, [r7, #4]
 8001960:	68db      	ldr	r3, [r3, #12]
 8001962:	2b81      	cmp	r3, #129	@ 0x81
 8001964:	d003      	beq.n	800196e <HAL_RCC_OscConfig+0x4ae>
          || (RCC_OscInitStruct->LSEState == RCC_LSE_BYPASS))
 8001966:	687b      	ldr	r3, [r7, #4]
 8001968:	68db      	ldr	r3, [r3, #12]
 800196a:	2b85      	cmp	r3, #133	@ 0x85
 800196c:	d121      	bne.n	80019b2 <HAL_RCC_OscConfig+0x4f2>
      {
        /* Get Start Tick */
        tickstart = HAL_GetTick();
 800196e:	f7fe fee5 	bl	800073c <HAL_GetTick>
 8001972:	6178      	str	r0, [r7, #20]

        SET_BIT(RCC->BDCR, RCC_BDCR_LSESYSEN);
 8001974:	f04f 43b0 	mov.w	r3, #1476395008	@ 0x58000000
 8001978:	f8d3 3090 	ldr.w	r3, [r3, #144]	@ 0x90
 800197c:	f04f 42b0 	mov.w	r2, #1476395008	@ 0x58000000
 8001980:	f043 0380 	orr.w	r3, r3, #128	@ 0x80
 8001984:	f8c2 3090 	str.w	r3, [r2, #144]	@ 0x90

        /* Wait till LSESYS is ready */
        while (READ_BIT(RCC->BDCR, RCC_BDCR_LSESYSRDY) == 0U)
 8001988:	e00a      	b.n	80019a0 <HAL_RCC_OscConfig+0x4e0>
        {
          if ((HAL_GetTick() - tickstart) > RCC_LSE_TIMEOUT_VALUE)
 800198a:	f7fe fed7 	bl	800073c <HAL_GetTick>
 800198e:	4602      	mov	r2, r0
 8001990:	697b      	ldr	r3, [r7, #20]
 8001992:	1ad3      	subs	r3, r2, r3
 8001994:	f241 3288 	movw	r2, #5000	@ 0x1388
 8001998:	4293      	cmp	r3, r2
 800199a:	d901      	bls.n	80019a0 <HAL_RCC_OscConfig+0x4e0>
          {
            return HAL_TIMEOUT;
 800199c:	2303      	movs	r3, #3
 800199e:	e108      	b.n	8001bb2 <HAL_RCC_OscConfig+0x6f2>
        while (READ_BIT(RCC->BDCR, RCC_BDCR_LSESYSRDY) == 0U)
 80019a0:	f04f 43b0 	mov.w	r3, #1476395008	@ 0x58000000
 80019a4:	f8d3 3090 	ldr.w	r3, [r3, #144]	@ 0x90
 80019a8:	f403 6300 	and.w	r3, r3, #2048	@ 0x800
 80019ac:	2b00      	cmp	r3, #0
 80019ae:	d0ec      	beq.n	800198a <HAL_RCC_OscConfig+0x4ca>
      if ((RCC_OscInitStruct->LSEState == RCC_LSE_ON)
 80019b0:	e060      	b.n	8001a74 <HAL_RCC_OscConfig+0x5b4>
        }
      }
      else
      {
        /* Get Start Tick */
        tickstart = HAL_GetTick();
 80019b2:	f7fe fec3 	bl	800073c <HAL_GetTick>
 80019b6:	6178      	str	r0, [r7, #20]

        CLEAR_BIT(RCC->BDCR, RCC_BDCR_LSESYSEN);
 80019b8:	f04f 43b0 	mov.w	r3, #1476395008	@ 0x58000000
 80019bc:	f8d3 3090 	ldr.w	r3, [r3, #144]	@ 0x90
 80019c0:	f04f 42b0 	mov.w	r2, #1476395008	@ 0x58000000
 80019c4:	f023 0380 	bic.w	r3, r3, #128	@ 0x80
 80019c8:	f8c2 3090 	str.w	r3, [r2, #144]	@ 0x90

        /* Wait till LSESYSRDY is cleared */
        while (READ_BIT(RCC->BDCR, RCC_BDCR_LSESYSRDY) != 0U)
 80019cc:	e00a      	b.n	80019e4 <HAL_RCC_OscConfig+0x524>
        {
          if ((HAL_GetTick() - tickstart) > RCC_LSE_TIMEOUT_VALUE)
 80019ce:	f7fe feb5 	bl	800073c <HAL_GetTick>
 80019d2:	4602      	mov	r2, r0
 80019d4:	697b      	ldr	r3, [r7, #20]
 80019d6:	1ad3      	subs	r3, r2, r3
 80019d8:	f241 3288 	movw	r2, #5000	@ 0x1388
 80019dc:	4293      	cmp	r3, r2
 80019de:	d901      	bls.n	80019e4 <HAL_RCC_OscConfig+0x524>
          {
            return HAL_TIMEOUT;
 80019e0:	2303      	movs	r3, #3
 80019e2:	e0e6      	b.n	8001bb2 <HAL_RCC_OscConfig+0x6f2>
        while (READ_BIT(RCC->BDCR, RCC_BDCR_LSESYSRDY) != 0U)
 80019e4:	f04f 43b0 	mov.w	r3, #1476395008	@ 0x58000000
 80019e8:	f8d3 3090 	ldr.w	r3, [r3, #144]	@ 0x90
 80019ec:	f403 6300 	and.w	r3, r3, #2048	@ 0x800
 80019f0:	2b00      	cmp	r3, #0
 80019f2:	d1ec      	bne.n	80019ce <HAL_RCC_OscConfig+0x50e>
 80019f4:	e03e      	b.n	8001a74 <HAL_RCC_OscConfig+0x5b4>
      }
    }
    else
    {
      /* Get Start Tick */
      tickstart = HAL_GetTick();
 80019f6:	f7fe fea1 	bl	800073c <HAL_GetTick>
 80019fa:	6178      	str	r0, [r7, #20]

      CLEAR_BIT(RCC->BDCR, RCC_BDCR_LSESYSEN);
 80019fc:	f04f 43b0 	mov.w	r3, #1476395008	@ 0x58000000
 8001a00:	f8d3 3090 	ldr.w	r3, [r3, #144]	@ 0x90
 8001a04:	f04f 42b0 	mov.w	r2, #1476395008	@ 0x58000000
 8001a08:	f023 0380 	bic.w	r3, r3, #128	@ 0x80
 8001a0c:	f8c2 3090 	str.w	r3, [r2, #144]	@ 0x90

      /* Wait till LSESYSRDY is cleared */
      while (READ_BIT(RCC->BDCR, RCC_BDCR_LSESYSRDY) != 0U)
 8001a10:	e00a      	b.n	8001a28 <HAL_RCC_OscConfig+0x568>
      {
        if ((HAL_GetTick() - tickstart) > RCC_LSE_TIMEOUT_VALUE)
 8001a12:	f7fe fe93 	bl	800073c <HAL_GetTick>
 8001a16:	4602      	mov	r2, r0
 8001a18:	697b      	ldr	r3, [r7, #20]
 8001a1a:	1ad3      	subs	r3, r2, r3
 8001a1c:	f241 3288 	movw	r2, #5000	@ 0x1388
 8001a20:	4293      	cmp	r3, r2
 8001a22:	d901      	bls.n	8001a28 <HAL_RCC_OscConfig+0x568>
        {
          return HAL_TIMEOUT;
 8001a24:	2303      	movs	r3, #3
 8001a26:	e0c4      	b.n	8001bb2 <HAL_RCC_OscConfig+0x6f2>
      while (READ_BIT(RCC->BDCR, RCC_BDCR_LSESYSRDY) != 0U)
 8001a28:	f04f 43b0 	mov.w	r3, #1476395008	@ 0x58000000
 8001a2c:	f8d3 3090 	ldr.w	r3, [r3, #144]	@ 0x90
 8001a30:	f403 6300 	and.w	r3, r3, #2048	@ 0x800
 8001a34:	2b00      	cmp	r3, #0
 8001a36:	d1ec      	bne.n	8001a12 <HAL_RCC_OscConfig+0x552>
        }
      }

      /* Get Start Tick */
      tickstart = HAL_GetTick();
 8001a38:	f7fe fe80 	bl	800073c <HAL_GetTick>
 8001a3c:	6178      	str	r0, [r7, #20]

      /* LSE oscillator disable */
      CLEAR_BIT(RCC->BDCR, RCC_BDCR_LSEON);
 8001a3e:	f04f 43b0 	mov.w	r3, #1476395008	@ 0x58000000
 8001a42:	f8d3 3090 	ldr.w	r3, [r3, #144]	@ 0x90
 8001a46:	f04f 42b0 	mov.w	r2, #1476395008	@ 0x58000000
 8001a4a:	f023 0301 	bic.w	r3, r3, #1
 8001a4e:	f8c2 3090 	str.w	r3, [r2, #144]	@ 0x90

      /* Wait till LSE is disabled */
      while (LL_RCC_LSE_IsReady() != 0U)
 8001a52:	e00a      	b.n	8001a6a <HAL_RCC_OscConfig+0x5aa>
      {
        if ((HAL_GetTick() - tickstart) > RCC_LSE_TIMEOUT_VALUE)
 8001a54:	f7fe fe72 	bl	800073c <HAL_GetTick>
 8001a58:	4602      	mov	r2, r0
 8001a5a:	697b      	ldr	r3, [r7, #20]
 8001a5c:	1ad3      	subs	r3, r2, r3
 8001a5e:	f241 3288 	movw	r2, #5000	@ 0x1388
 8001a62:	4293      	cmp	r3, r2
 8001a64:	d901      	bls.n	8001a6a <HAL_RCC_OscConfig+0x5aa>
        {
          return HAL_TIMEOUT;
 8001a66:	2303      	movs	r3, #3
 8001a68:	e0a3      	b.n	8001bb2 <HAL_RCC_OscConfig+0x6f2>
      while (LL_RCC_LSE_IsReady() != 0U)
 8001a6a:	f7ff fb5c 	bl	8001126 <LL_RCC_LSE_IsReady>
 8001a6e:	4603      	mov	r3, r0
 8001a70:	2b00      	cmp	r3, #0
 8001a72:	d1ef      	bne.n	8001a54 <HAL_RCC_OscConfig+0x594>

  /*-------------------------------- PLL Configuration -----------------------*/
  /* Check the parameters */
  assert_param(IS_RCC_PLL(RCC_OscInitStruct->PLL.PLLState));

  if (RCC_OscInitStruct->PLL.PLLState != RCC_PLL_NONE)
 8001a74:	687b      	ldr	r3, [r7, #4]
 8001a76:	6adb      	ldr	r3, [r3, #44]	@ 0x2c
 8001a78:	2b00      	cmp	r3, #0
 8001a7a:	f000 8099 	beq.w	8001bb0 <HAL_RCC_OscConfig+0x6f0>
  {
    /* Check if the PLL is used as system clock or not */
    if (sysclk_source != RCC_SYSCLKSOURCE_STATUS_PLLCLK)
 8001a7e:	69fb      	ldr	r3, [r7, #28]
 8001a80:	2b0c      	cmp	r3, #12
 8001a82:	d06c      	beq.n	8001b5e <HAL_RCC_OscConfig+0x69e>
    {
      if (RCC_OscInitStruct->PLL.PLLState == RCC_PLL_ON)
 8001a84:	687b      	ldr	r3, [r7, #4]
 8001a86:	6adb      	ldr	r3, [r3, #44]	@ 0x2c
 8001a88:	2b02      	cmp	r3, #2
 8001a8a:	d14b      	bne.n	8001b24 <HAL_RCC_OscConfig+0x664>
        assert_param(IS_RCC_PLLP_VALUE(RCC_OscInitStruct->PLL.PLLP));
        assert_param(IS_RCC_PLLQ_VALUE(RCC_OscInitStruct->PLL.PLLQ));
        assert_param(IS_RCC_PLLR_VALUE(RCC_OscInitStruct->PLL.PLLR));

        /* Disable the main PLL. */
        __HAL_RCC_PLL_DISABLE();
 8001a8c:	f7ff fc87 	bl	800139e <LL_RCC_PLL_Disable>

        /* Get Start Tick */
        tickstart = HAL_GetTick();
 8001a90:	f7fe fe54 	bl	800073c <HAL_GetTick>
 8001a94:	6178      	str	r0, [r7, #20]

        /* Wait till PLL is ready */
        while (LL_RCC_PLL_IsReady() != 0U)
 8001a96:	e008      	b.n	8001aaa <HAL_RCC_OscConfig+0x5ea>
        {
          if ((HAL_GetTick() - tickstart) > PLL_TIMEOUT_VALUE)
 8001a98:	f7fe fe50 	bl	800073c <HAL_GetTick>
 8001a9c:	4602      	mov	r2, r0
 8001a9e:	697b      	ldr	r3, [r7, #20]
 8001aa0:	1ad3      	subs	r3, r2, r3
 8001aa2:	2b0a      	cmp	r3, #10
 8001aa4:	d901      	bls.n	8001aaa <HAL_RCC_OscConfig+0x5ea>
          {
            return HAL_TIMEOUT;
 8001aa6:	2303      	movs	r3, #3
 8001aa8:	e083      	b.n	8001bb2 <HAL_RCC_OscConfig+0x6f2>
        while (LL_RCC_PLL_IsReady() != 0U)
 8001aaa:	f7ff fc86 	bl	80013ba <LL_RCC_PLL_IsReady>
 8001aae:	4603      	mov	r3, r0
 8001ab0:	2b00      	cmp	r3, #0
 8001ab2:	d1f1      	bne.n	8001a98 <HAL_RCC_OscConfig+0x5d8>
          }
        }

        /* Configure the main PLL clock source, multiplication and division factors. */
        __HAL_RCC_PLL_CONFIG(RCC_OscInitStruct->PLL.PLLSource,
 8001ab4:	f04f 43b0 	mov.w	r3, #1476395008	@ 0x58000000
 8001ab8:	68da      	ldr	r2, [r3, #12]
 8001aba:	4b40      	ldr	r3, [pc, #256]	@ (8001bbc <HAL_RCC_OscConfig+0x6fc>)
 8001abc:	4013      	ands	r3, r2
 8001abe:	687a      	ldr	r2, [r7, #4]
 8001ac0:	6b11      	ldr	r1, [r2, #48]	@ 0x30
 8001ac2:	687a      	ldr	r2, [r7, #4]
 8001ac4:	6b52      	ldr	r2, [r2, #52]	@ 0x34
 8001ac6:	4311      	orrs	r1, r2
 8001ac8:	687a      	ldr	r2, [r7, #4]
 8001aca:	6b92      	ldr	r2, [r2, #56]	@ 0x38
 8001acc:	0212      	lsls	r2, r2, #8
 8001ace:	4311      	orrs	r1, r2
 8001ad0:	687a      	ldr	r2, [r7, #4]
 8001ad2:	6bd2      	ldr	r2, [r2, #60]	@ 0x3c
 8001ad4:	4311      	orrs	r1, r2
 8001ad6:	687a      	ldr	r2, [r7, #4]
 8001ad8:	6c12      	ldr	r2, [r2, #64]	@ 0x40
 8001ada:	4311      	orrs	r1, r2
 8001adc:	687a      	ldr	r2, [r7, #4]
 8001ade:	6c52      	ldr	r2, [r2, #68]	@ 0x44
 8001ae0:	430a      	orrs	r2, r1
 8001ae2:	f04f 41b0 	mov.w	r1, #1476395008	@ 0x58000000
 8001ae6:	4313      	orrs	r3, r2
 8001ae8:	60cb      	str	r3, [r1, #12]
                             RCC_OscInitStruct->PLL.PLLP,
                             RCC_OscInitStruct->PLL.PLLQ,
                             RCC_OscInitStruct->PLL.PLLR);

        /* Enable the main PLL. */
        __HAL_RCC_PLL_ENABLE();
 8001aea:	f7ff fc4a 	bl	8001382 <LL_RCC_PLL_Enable>

        /* Enable PLL System Clock output. */
        __HAL_RCC_PLLCLKOUT_ENABLE(RCC_PLL_SYSCLK);
 8001aee:	f04f 43b0 	mov.w	r3, #1476395008	@ 0x58000000
 8001af2:	68db      	ldr	r3, [r3, #12]
 8001af4:	f04f 42b0 	mov.w	r2, #1476395008	@ 0x58000000
 8001af8:	f043 5380 	orr.w	r3, r3, #268435456	@ 0x10000000
 8001afc:	60d3      	str	r3, [r2, #12]

        /* Get Start Tick */
        tickstart = HAL_GetTick();
 8001afe:	f7fe fe1d 	bl	800073c <HAL_GetTick>
 8001b02:	6178      	str	r0, [r7, #20]

        /* Wait till PLL is ready */
        while (LL_RCC_PLL_IsReady() == 0U)
 8001b04:	e008      	b.n	8001b18 <HAL_RCC_OscConfig+0x658>
        {
          if ((HAL_GetTick() - tickstart) > PLL_TIMEOUT_VALUE)
 8001b06:	f7fe fe19 	bl	800073c <HAL_GetTick>
 8001b0a:	4602      	mov	r2, r0
 8001b0c:	697b      	ldr	r3, [r7, #20]
 8001b0e:	1ad3      	subs	r3, r2, r3
 8001b10:	2b0a      	cmp	r3, #10
 8001b12:	d901      	bls.n	8001b18 <HAL_RCC_OscConfig+0x658>
          {
            return HAL_TIMEOUT;
 8001b14:	2303      	movs	r3, #3
 8001b16:	e04c      	b.n	8001bb2 <HAL_RCC_OscConfig+0x6f2>
        while (LL_RCC_PLL_IsReady() == 0U)
 8001b18:	f7ff fc4f 	bl	80013ba <LL_RCC_PLL_IsReady>
 8001b1c:	4603      	mov	r3, r0
 8001b1e:	2b00      	cmp	r3, #0
 8001b20:	d0f1      	beq.n	8001b06 <HAL_RCC_OscConfig+0x646>
 8001b22:	e045      	b.n	8001bb0 <HAL_RCC_OscConfig+0x6f0>
        }
      }
      else
      {
        /* Disable the main PLL. */
        __HAL_RCC_PLL_DISABLE();
 8001b24:	f7ff fc3b 	bl	800139e <LL_RCC_PLL_Disable>

        /* Get Start Tick */
        tickstart = HAL_GetTick();
 8001b28:	f7fe fe08 	bl	800073c <HAL_GetTick>
 8001b2c:	6178      	str	r0, [r7, #20]

        /* Wait till PLL is disabled */
        while (LL_RCC_PLL_IsReady() != 0U)
 8001b2e:	e008      	b.n	8001b42 <HAL_RCC_OscConfig+0x682>
        {
          if ((HAL_GetTick() - tickstart) > PLL_TIMEOUT_VALUE)
 8001b30:	f7fe fe04 	bl	800073c <HAL_GetTick>
 8001b34:	4602      	mov	r2, r0
 8001b36:	697b      	ldr	r3, [r7, #20]
 8001b38:	1ad3      	subs	r3, r2, r3
 8001b3a:	2b0a      	cmp	r3, #10
 8001b3c:	d901      	bls.n	8001b42 <HAL_RCC_OscConfig+0x682>
          {
            return HAL_TIMEOUT;
 8001b3e:	2303      	movs	r3, #3
 8001b40:	e037      	b.n	8001bb2 <HAL_RCC_OscConfig+0x6f2>
        while (LL_RCC_PLL_IsReady() != 0U)
 8001b42:	f7ff fc3a 	bl	80013ba <LL_RCC_PLL_IsReady>
 8001b46:	4603      	mov	r3, r0
 8001b48:	2b00      	cmp	r3, #0
 8001b4a:	d1f1      	bne.n	8001b30 <HAL_RCC_OscConfig+0x670>
          }
        }

        /* Disable the PLL source and outputs to save power when PLL is off */
        CLEAR_BIT(RCC->PLLCFGR, (RCC_PLLCFGR_PLLSRC | RCC_PLLCFGR_PLLPEN | RCC_PLLCFGR_PLLQEN | RCC_PLLCFGR_PLLREN));
 8001b4c:	f04f 43b0 	mov.w	r3, #1476395008	@ 0x58000000
 8001b50:	68da      	ldr	r2, [r3, #12]
 8001b52:	f04f 41b0 	mov.w	r1, #1476395008	@ 0x58000000
 8001b56:	4b1a      	ldr	r3, [pc, #104]	@ (8001bc0 <HAL_RCC_OscConfig+0x700>)
 8001b58:	4013      	ands	r3, r2
 8001b5a:	60cb      	str	r3, [r1, #12]
 8001b5c:	e028      	b.n	8001bb0 <HAL_RCC_OscConfig+0x6f0>
      }
    }
    else
    {
      /* Check if there is a request to disable the PLL used as System clock source */
      if ((RCC_OscInitStruct->PLL.PLLState) == RCC_PLL_OFF)
 8001b5e:	687b      	ldr	r3, [r7, #4]
 8001b60:	6adb      	ldr	r3, [r3, #44]	@ 0x2c
 8001b62:	2b01      	cmp	r3, #1
 8001b64:	d101      	bne.n	8001b6a <HAL_RCC_OscConfig+0x6aa>
      {
        return HAL_ERROR;
 8001b66:	2301      	movs	r3, #1
 8001b68:	e023      	b.n	8001bb2 <HAL_RCC_OscConfig+0x6f2>
      }
      else
      {
        /* Do not return HAL_ERROR if request repeats the current configuration */
        pll_config = RCC->PLLCFGR;
 8001b6a:	f04f 43b0 	mov.w	r3, #1476395008	@ 0x58000000
 8001b6e:	68db      	ldr	r3, [r3, #12]
 8001b70:	61bb      	str	r3, [r7, #24]
        if ((READ_BIT(pll_config, RCC_PLLCFGR_PLLSRC) != RCC_OscInitStruct->PLL.PLLSource)
 8001b72:	69bb      	ldr	r3, [r7, #24]
 8001b74:	f003 0203 	and.w	r2, r3, #3
 8001b78:	687b      	ldr	r3, [r7, #4]
 8001b7a:	6b1b      	ldr	r3, [r3, #48]	@ 0x30
 8001b7c:	429a      	cmp	r2, r3
 8001b7e:	d115      	bne.n	8001bac <HAL_RCC_OscConfig+0x6ec>
            || (READ_BIT(pll_config, RCC_PLLCFGR_PLLM)   != RCC_OscInitStruct->PLL.PLLM)
 8001b80:	69bb      	ldr	r3, [r7, #24]
 8001b82:	f003 0270 	and.w	r2, r3, #112	@ 0x70
 8001b86:	687b      	ldr	r3, [r7, #4]
 8001b88:	6b5b      	ldr	r3, [r3, #52]	@ 0x34
 8001b8a:	429a      	cmp	r2, r3
 8001b8c:	d10e      	bne.n	8001bac <HAL_RCC_OscConfig+0x6ec>
            || (READ_BIT(pll_config, RCC_PLLCFGR_PLLN)   != (RCC_OscInitStruct->PLL.PLLN << RCC_PLLCFGR_PLLN_Pos))
 8001b8e:	69bb      	ldr	r3, [r7, #24]
 8001b90:	f403 42fe 	and.w	r2, r3, #32512	@ 0x7f00
 8001b94:	687b      	ldr	r3, [r7, #4]
 8001b96:	6b9b      	ldr	r3, [r3, #56]	@ 0x38
 8001b98:	021b      	lsls	r3, r3, #8
 8001b9a:	429a      	cmp	r2, r3
 8001b9c:	d106      	bne.n	8001bac <HAL_RCC_OscConfig+0x6ec>
            || (READ_BIT(pll_config, RCC_PLLCFGR_PLLR)   != RCC_OscInitStruct->PLL.PLLR))
 8001b9e:	69bb      	ldr	r3, [r7, #24]
 8001ba0:	f003 4260 	and.w	r2, r3, #3758096384	@ 0xe0000000
 8001ba4:	687b      	ldr	r3, [r7, #4]
 8001ba6:	6c5b      	ldr	r3, [r3, #68]	@ 0x44
 8001ba8:	429a      	cmp	r2, r3
 8001baa:	d001      	beq.n	8001bb0 <HAL_RCC_OscConfig+0x6f0>
        {
          return HAL_ERROR;
 8001bac:	2301      	movs	r3, #1
 8001bae:	e000      	b.n	8001bb2 <HAL_RCC_OscConfig+0x6f2>
        }
      }
    }
  }
  return HAL_OK;
 8001bb0:	2300      	movs	r3, #0
}
 8001bb2:	4618      	mov	r0, r3
 8001bb4:	3720      	adds	r7, #32
 8001bb6:	46bd      	mov	sp, r7
 8001bb8:	bd80      	pop	{r7, pc}
 8001bba:	bf00      	nop
 8001bbc:	11c1808c 	.word	0x11c1808c
 8001bc0:	eefefffc 	.word	0xeefefffc

08001bc4 <HAL_RCC_ClockConfig>:
  *         HPRE[3:0] bits to ensure that HCLK1 not exceed the maximum allowed frequency
  *         (for more details refer to section above "Initialization/de-initialization functions")
  * @retval None
  */
HAL_StatusTypeDef HAL_RCC_ClockConfig(RCC_ClkInitTypeDef  *RCC_ClkInitStruct, uint32_t FLatency)
{
 8001bc4:	b580      	push	{r7, lr}
 8001bc6:	b084      	sub	sp, #16
 8001bc8:	af00      	add	r7, sp, #0
 8001bca:	6078      	str	r0, [r7, #4]
 8001bcc:	6039      	str	r1, [r7, #0]
  uint32_t tickstart;

  /* Check Null pointer */
  if (RCC_ClkInitStruct == NULL)
 8001bce:	687b      	ldr	r3, [r7, #4]
 8001bd0:	2b00      	cmp	r3, #0
 8001bd2:	d101      	bne.n	8001bd8 <HAL_RCC_ClockConfig+0x14>
  {
    return HAL_ERROR;
 8001bd4:	2301      	movs	r3, #1
 8001bd6:	e10f      	b.n	8001df8 <HAL_RCC_ClockConfig+0x234>
  /* To correctly read data from FLASH memory, the number of wait states (LATENCY)
    must be correctly programmed according to the frequency of the FLASH clock
    (HCLK3) and the supply voltage of the device. */

  /* Increasing the number of wait states because of higher CPU frequency */
  if (FLatency > __HAL_FLASH_GET_LATENCY())
 8001bd8:	4b89      	ldr	r3, [pc, #548]	@ (8001e00 <HAL_RCC_ClockConfig+0x23c>)
 8001bda:	681b      	ldr	r3, [r3, #0]
 8001bdc:	f003 0307 	and.w	r3, r3, #7
 8001be0:	683a      	ldr	r2, [r7, #0]
 8001be2:	429a      	cmp	r2, r3
 8001be4:	d91b      	bls.n	8001c1e <HAL_RCC_ClockConfig+0x5a>
  {
    /* Program the new number of wait states to the LATENCY bits in the FLASH_ACR register */
    __HAL_FLASH_SET_LATENCY(FLatency);
 8001be6:	4b86      	ldr	r3, [pc, #536]	@ (8001e00 <HAL_RCC_ClockConfig+0x23c>)
 8001be8:	681b      	ldr	r3, [r3, #0]
 8001bea:	f023 0207 	bic.w	r2, r3, #7
 8001bee:	4984      	ldr	r1, [pc, #528]	@ (8001e00 <HAL_RCC_ClockConfig+0x23c>)
 8001bf0:	683b      	ldr	r3, [r7, #0]
 8001bf2:	4313      	orrs	r3, r2
 8001bf4:	600b      	str	r3, [r1, #0]

    /* Get Start Tick */
    tickstart = HAL_GetTick();
 8001bf6:	f7fe fda1 	bl	800073c <HAL_GetTick>
 8001bfa:	60f8      	str	r0, [r7, #12]

    /* Check that the new number of wait states is taken into account to access the Flash
       memory by reading the FLASH_ACR register */
    while (__HAL_FLASH_GET_LATENCY() != FLatency)
 8001bfc:	e008      	b.n	8001c10 <HAL_RCC_ClockConfig+0x4c>
    {
      if ((HAL_GetTick() - tickstart) > LATENCY_TIMEOUT_VALUE)
 8001bfe:	f7fe fd9d 	bl	800073c <HAL_GetTick>
 8001c02:	4602      	mov	r2, r0
 8001c04:	68fb      	ldr	r3, [r7, #12]
 8001c06:	1ad3      	subs	r3, r2, r3
 8001c08:	2b02      	cmp	r3, #2
 8001c0a:	d901      	bls.n	8001c10 <HAL_RCC_ClockConfig+0x4c>
      {
        return HAL_TIMEOUT;
 8001c0c:	2303      	movs	r3, #3
 8001c0e:	e0f3      	b.n	8001df8 <HAL_RCC_ClockConfig+0x234>
    while (__HAL_FLASH_GET_LATENCY() != FLatency)
 8001c10:	4b7b      	ldr	r3, [pc, #492]	@ (8001e00 <HAL_RCC_ClockConfig+0x23c>)
 8001c12:	681b      	ldr	r3, [r3, #0]
 8001c14:	f003 0307 	and.w	r3, r3, #7
 8001c18:	683a      	ldr	r2, [r7, #0]
 8001c1a:	429a      	cmp	r2, r3
 8001c1c:	d1ef      	bne.n	8001bfe <HAL_RCC_ClockConfig+0x3a>
      }
    }
  }

  /*-------------------------- HCLK1 Configuration ---------------------------*/
  if (((RCC_ClkInitStruct->ClockType) & RCC_CLOCKTYPE_HCLK) == RCC_CLOCKTYPE_HCLK)
 8001c1e:	687b      	ldr	r3, [r7, #4]
 8001c20:	681b      	ldr	r3, [r3, #0]
 8001c22:	f003 0302 	and.w	r3, r3, #2
 8001c26:	2b00      	cmp	r3, #0
 8001c28:	d016      	beq.n	8001c58 <HAL_RCC_ClockConfig+0x94>
  {
    assert_param(IS_RCC_HCLKx(RCC_ClkInitStruct->AHBCLKDivider));
    LL_RCC_SetAHBPrescaler(RCC_ClkInitStruct->AHBCLKDivider);
 8001c2a:	687b      	ldr	r3, [r7, #4]
 8001c2c:	689b      	ldr	r3, [r3, #8]
 8001c2e:	4618      	mov	r0, r3
 8001c30:	f7ff fb40 	bl	80012b4 <LL_RCC_SetAHBPrescaler>

    /* HCLK1 prescaler flag when value applied */
    tickstart = HAL_GetTick();
 8001c34:	f7fe fd82 	bl	800073c <HAL_GetTick>
 8001c38:	60f8      	str	r0, [r7, #12]
    while (LL_RCC_IsActiveFlag_HPRE() == 0U)
 8001c3a:	e008      	b.n	8001c4e <HAL_RCC_ClockConfig+0x8a>
    {
      if ((HAL_GetTick() - tickstart) > PRESCALER_TIMEOUT_VALUE)
 8001c3c:	f7fe fd7e 	bl	800073c <HAL_GetTick>
 8001c40:	4602      	mov	r2, r0
 8001c42:	68fb      	ldr	r3, [r7, #12]
 8001c44:	1ad3      	subs	r3, r2, r3
 8001c46:	2b02      	cmp	r3, #2
 8001c48:	d901      	bls.n	8001c4e <HAL_RCC_ClockConfig+0x8a>
      {
        return HAL_TIMEOUT;
 8001c4a:	2303      	movs	r3, #3
 8001c4c:	e0d4      	b.n	8001df8 <HAL_RCC_ClockConfig+0x234>
    while (LL_RCC_IsActiveFlag_HPRE() == 0U)
 8001c4e:	f7ff fbf2 	bl	8001436 <LL_RCC_IsActiveFlag_HPRE>
 8001c52:	4603      	mov	r3, r0
 8001c54:	2b00      	cmp	r3, #0
 8001c56:	d0f1      	beq.n	8001c3c <HAL_RCC_ClockConfig+0x78>
    }
  }
#endif /* DUAL_CORE */

  /*-------------------------- HCLK3 Configuration ---------------------------*/
  if (((RCC_ClkInitStruct->ClockType) & RCC_CLOCKTYPE_HCLK3) == RCC_CLOCKTYPE_HCLK3)
 8001c58:	687b      	ldr	r3, [r7, #4]
 8001c5a:	681b      	ldr	r3, [r3, #0]
 8001c5c:	f003 0340 	and.w	r3, r3, #64	@ 0x40
 8001c60:	2b00      	cmp	r3, #0
 8001c62:	d016      	beq.n	8001c92 <HAL_RCC_ClockConfig+0xce>
  {
    assert_param(IS_RCC_HCLKx(RCC_ClkInitStruct->AHBCLK3Divider));
    LL_RCC_SetAHB3Prescaler(RCC_ClkInitStruct->AHBCLK3Divider);
 8001c64:	687b      	ldr	r3, [r7, #4]
 8001c66:	695b      	ldr	r3, [r3, #20]
 8001c68:	4618      	mov	r0, r3
 8001c6a:	f7ff fb36 	bl	80012da <LL_RCC_SetAHB3Prescaler>

    /* AHB shared prescaler flag when value applied */
    tickstart = HAL_GetTick();
 8001c6e:	f7fe fd65 	bl	800073c <HAL_GetTick>
 8001c72:	60f8      	str	r0, [r7, #12]
    while (LL_RCC_IsActiveFlag_SHDHPRE() == 0U)
 8001c74:	e008      	b.n	8001c88 <HAL_RCC_ClockConfig+0xc4>
    {
      if ((HAL_GetTick() - tickstart) > PRESCALER_TIMEOUT_VALUE)
 8001c76:	f7fe fd61 	bl	800073c <HAL_GetTick>
 8001c7a:	4602      	mov	r2, r0
 8001c7c:	68fb      	ldr	r3, [r7, #12]
 8001c7e:	1ad3      	subs	r3, r2, r3
 8001c80:	2b02      	cmp	r3, #2
 8001c82:	d901      	bls.n	8001c88 <HAL_RCC_ClockConfig+0xc4>
      {
        return HAL_TIMEOUT;
 8001c84:	2303      	movs	r3, #3
 8001c86:	e0b7      	b.n	8001df8 <HAL_RCC_ClockConfig+0x234>
    while (LL_RCC_IsActiveFlag_SHDHPRE() == 0U)
 8001c88:	f7ff fbe6 	bl	8001458 <LL_RCC_IsActiveFlag_SHDHPRE>
 8001c8c:	4603      	mov	r3, r0
 8001c8e:	2b00      	cmp	r3, #0
 8001c90:	d0f1      	beq.n	8001c76 <HAL_RCC_ClockConfig+0xb2>
      }
    }
  }

  /*-------------------------- PCLK1 Configuration ---------------------------*/
  if (((RCC_ClkInitStruct->ClockType) & RCC_CLOCKTYPE_PCLK1) == RCC_CLOCKTYPE_PCLK1)
 8001c92:	687b      	ldr	r3, [r7, #4]
 8001c94:	681b      	ldr	r3, [r3, #0]
 8001c96:	f003 0304 	and.w	r3, r3, #4
 8001c9a:	2b00      	cmp	r3, #0
 8001c9c:	d016      	beq.n	8001ccc <HAL_RCC_ClockConfig+0x108>
  {
    assert_param(IS_RCC_PCLKx(RCC_ClkInitStruct->APB1CLKDivider));
    LL_RCC_SetAPB1Prescaler(RCC_ClkInitStruct->APB1CLKDivider);
 8001c9e:	687b      	ldr	r3, [r7, #4]
 8001ca0:	68db      	ldr	r3, [r3, #12]
 8001ca2:	4618      	mov	r0, r3
 8001ca4:	f7ff fb2f 	bl	8001306 <LL_RCC_SetAPB1Prescaler>

    /* APB1 prescaler flag when value applied */
    tickstart = HAL_GetTick();
 8001ca8:	f7fe fd48 	bl	800073c <HAL_GetTick>
 8001cac:	60f8      	str	r0, [r7, #12]
    while (LL_RCC_IsActiveFlag_PPRE1() == 0U)
 8001cae:	e008      	b.n	8001cc2 <HAL_RCC_ClockConfig+0xfe>
    {
      if ((HAL_GetTick() - tickstart) > PRESCALER_TIMEOUT_VALUE)
 8001cb0:	f7fe fd44 	bl	800073c <HAL_GetTick>
 8001cb4:	4602      	mov	r2, r0
 8001cb6:	68fb      	ldr	r3, [r7, #12]
 8001cb8:	1ad3      	subs	r3, r2, r3
 8001cba:	2b02      	cmp	r3, #2
 8001cbc:	d901      	bls.n	8001cc2 <HAL_RCC_ClockConfig+0xfe>
      {
        return HAL_TIMEOUT;
 8001cbe:	2303      	movs	r3, #3
 8001cc0:	e09a      	b.n	8001df8 <HAL_RCC_ClockConfig+0x234>
    while (LL_RCC_IsActiveFlag_PPRE1() == 0U)
 8001cc2:	f7ff fbdb 	bl	800147c <LL_RCC_IsActiveFlag_PPRE1>
 8001cc6:	4603      	mov	r3, r0
 8001cc8:	2b00      	cmp	r3, #0
 8001cca:	d0f1      	beq.n	8001cb0 <HAL_RCC_ClockConfig+0xec>
      }
    }
  }

  /*-------------------------- PCLK2 Configuration ---------------------------*/
  if (((RCC_ClkInitStruct->ClockType) & RCC_CLOCKTYPE_PCLK2) == RCC_CLOCKTYPE_PCLK2)
 8001ccc:	687b      	ldr	r3, [r7, #4]
 8001cce:	681b      	ldr	r3, [r3, #0]
 8001cd0:	f003 0308 	and.w	r3, r3, #8
 8001cd4:	2b00      	cmp	r3, #0
 8001cd6:	d017      	beq.n	8001d08 <HAL_RCC_ClockConfig+0x144>
  {
    assert_param(IS_RCC_PCLKx(RCC_ClkInitStruct->APB2CLKDivider));
    LL_RCC_SetAPB2Prescaler((RCC_ClkInitStruct->APB2CLKDivider) << 3U);
 8001cd8:	687b      	ldr	r3, [r7, #4]
 8001cda:	691b      	ldr	r3, [r3, #16]
 8001cdc:	00db      	lsls	r3, r3, #3
 8001cde:	4618      	mov	r0, r3
 8001ce0:	f7ff fb24 	bl	800132c <LL_RCC_SetAPB2Prescaler>

    /* APB2 prescaler flag when value applied */
    tickstart = HAL_GetTick();
 8001ce4:	f7fe fd2a 	bl	800073c <HAL_GetTick>
 8001ce8:	60f8      	str	r0, [r7, #12]
    while (LL_RCC_IsActiveFlag_PPRE2() == 0U)
 8001cea:	e008      	b.n	8001cfe <HAL_RCC_ClockConfig+0x13a>
    {
      if ((HAL_GetTick() - tickstart) > PRESCALER_TIMEOUT_VALUE)
 8001cec:	f7fe fd26 	bl	800073c <HAL_GetTick>
 8001cf0:	4602      	mov	r2, r0
 8001cf2:	68fb      	ldr	r3, [r7, #12]
 8001cf4:	1ad3      	subs	r3, r2, r3
 8001cf6:	2b02      	cmp	r3, #2
 8001cf8:	d901      	bls.n	8001cfe <HAL_RCC_ClockConfig+0x13a>
      {
        return HAL_TIMEOUT;
 8001cfa:	2303      	movs	r3, #3
 8001cfc:	e07c      	b.n	8001df8 <HAL_RCC_ClockConfig+0x234>
    while (LL_RCC_IsActiveFlag_PPRE2() == 0U)
 8001cfe:	f7ff fbce 	bl	800149e <LL_RCC_IsActiveFlag_PPRE2>
 8001d02:	4603      	mov	r3, r0
 8001d04:	2b00      	cmp	r3, #0
 8001d06:	d0f1      	beq.n	8001cec <HAL_RCC_ClockConfig+0x128>
      }
    }
  }

  /*------------------------- SYSCLK Configuration ---------------------------*/
  if (((RCC_ClkInitStruct->ClockType) & RCC_CLOCKTYPE_SYSCLK) == RCC_CLOCKTYPE_SYSCLK)
 8001d08:	687b      	ldr	r3, [r7, #4]
 8001d0a:	681b      	ldr	r3, [r3, #0]
 8001d0c:	f003 0301 	and.w	r3, r3, #1
 8001d10:	2b00      	cmp	r3, #0
 8001d12:	d043      	beq.n	8001d9c <HAL_RCC_ClockConfig+0x1d8>
  {
    assert_param(IS_RCC_SYSCLKSOURCE(RCC_ClkInitStruct->SYSCLKSource));

    /* HSE is selected as System Clock Source */
    if (RCC_ClkInitStruct->SYSCLKSource == RCC_SYSCLKSOURCE_HSE)
 8001d14:	687b      	ldr	r3, [r7, #4]
 8001d16:	685b      	ldr	r3, [r3, #4]
 8001d18:	2b02      	cmp	r3, #2
 8001d1a:	d106      	bne.n	8001d2a <HAL_RCC_ClockConfig+0x166>
    {
      /* Check the HSE ready flag */
      if (LL_RCC_HSE_IsReady() == 0U)
 8001d1c:	f7ff f9b1 	bl	8001082 <LL_RCC_HSE_IsReady>
 8001d20:	4603      	mov	r3, r0
 8001d22:	2b00      	cmp	r3, #0
 8001d24:	d11e      	bne.n	8001d64 <HAL_RCC_ClockConfig+0x1a0>
      {
        return HAL_ERROR;
 8001d26:	2301      	movs	r3, #1
 8001d28:	e066      	b.n	8001df8 <HAL_RCC_ClockConfig+0x234>
      }
    }
    /* PLL is selected as System Clock Source */
    else if (RCC_ClkInitStruct->SYSCLKSource == RCC_SYSCLKSOURCE_PLLCLK)
 8001d2a:	687b      	ldr	r3, [r7, #4]
 8001d2c:	685b      	ldr	r3, [r3, #4]
 8001d2e:	2b03      	cmp	r3, #3
 8001d30:	d106      	bne.n	8001d40 <HAL_RCC_ClockConfig+0x17c>
    {
      /* Check the PLL ready flag */
      if (LL_RCC_PLL_IsReady() == 0U)
 8001d32:	f7ff fb42 	bl	80013ba <LL_RCC_PLL_IsReady>
 8001d36:	4603      	mov	r3, r0
 8001d38:	2b00      	cmp	r3, #0
 8001d3a:	d113      	bne.n	8001d64 <HAL_RCC_ClockConfig+0x1a0>
      {
        return HAL_ERROR;
 8001d3c:	2301      	movs	r3, #1
 8001d3e:	e05b      	b.n	8001df8 <HAL_RCC_ClockConfig+0x234>
      }
    }
    /* MSI is selected as System Clock Source */
    else if (RCC_ClkInitStruct->SYSCLKSource == RCC_SYSCLKSOURCE_MSI)
 8001d40:	687b      	ldr	r3, [r7, #4]
 8001d42:	685b      	ldr	r3, [r3, #4]
 8001d44:	2b00      	cmp	r3, #0
 8001d46:	d106      	bne.n	8001d56 <HAL_RCC_ClockConfig+0x192>
    {
      /* Check the MSI ready flag */
      if (LL_RCC_MSI_IsReady() == 0U)
 8001d48:	f7ff fa4b 	bl	80011e2 <LL_RCC_MSI_IsReady>
 8001d4c:	4603      	mov	r3, r0
 8001d4e:	2b00      	cmp	r3, #0
 8001d50:	d108      	bne.n	8001d64 <HAL_RCC_ClockConfig+0x1a0>
      {
        return HAL_ERROR;
 8001d52:	2301      	movs	r3, #1
 8001d54:	e050      	b.n	8001df8 <HAL_RCC_ClockConfig+0x234>
    }
    /* HSI is selected as System Clock Source */
    else
    {
      /* Check the HSI ready flag */
      if (LL_RCC_HSI_IsReady() == 0U)
 8001d56:	f7ff f9c1 	bl	80010dc <LL_RCC_HSI_IsReady>
 8001d5a:	4603      	mov	r3, r0
 8001d5c:	2b00      	cmp	r3, #0
 8001d5e:	d101      	bne.n	8001d64 <HAL_RCC_ClockConfig+0x1a0>
      {
        return HAL_ERROR;
 8001d60:	2301      	movs	r3, #1
 8001d62:	e049      	b.n	8001df8 <HAL_RCC_ClockConfig+0x234>
      }

    }

    /* apply system clock switch */
    LL_RCC_SetSysClkSource(RCC_ClkInitStruct->SYSCLKSource);
 8001d64:	687b      	ldr	r3, [r7, #4]
 8001d66:	685b      	ldr	r3, [r3, #4]
 8001d68:	4618      	mov	r0, r3
 8001d6a:	f7ff fa85 	bl	8001278 <LL_RCC_SetSysClkSource>

    /* Get Start Tick */
    tickstart = HAL_GetTick();
 8001d6e:	f7fe fce5 	bl	800073c <HAL_GetTick>
 8001d72:	60f8      	str	r0, [r7, #12]

    /* check system clock source switch status */
    while (__HAL_RCC_GET_SYSCLK_SOURCE() != (RCC_ClkInitStruct->SYSCLKSource << RCC_CFGR_SWS_Pos))
 8001d74:	e00a      	b.n	8001d8c <HAL_RCC_ClockConfig+0x1c8>
    {
      if ((HAL_GetTick() - tickstart) > CLOCKSWITCH_TIMEOUT_VALUE)
 8001d76:	f7fe fce1 	bl	800073c <HAL_GetTick>
 8001d7a:	4602      	mov	r2, r0
 8001d7c:	68fb      	ldr	r3, [r7, #12]
 8001d7e:	1ad3      	subs	r3, r2, r3
 8001d80:	f241 3288 	movw	r2, #5000	@ 0x1388
 8001d84:	4293      	cmp	r3, r2
 8001d86:	d901      	bls.n	8001d8c <HAL_RCC_ClockConfig+0x1c8>
      {
        return HAL_TIMEOUT;
 8001d88:	2303      	movs	r3, #3
 8001d8a:	e035      	b.n	8001df8 <HAL_RCC_ClockConfig+0x234>
    while (__HAL_RCC_GET_SYSCLK_SOURCE() != (RCC_ClkInitStruct->SYSCLKSource << RCC_CFGR_SWS_Pos))
 8001d8c:	f7ff fa87 	bl	800129e <LL_RCC_GetSysClkSource>
 8001d90:	4602      	mov	r2, r0
 8001d92:	687b      	ldr	r3, [r7, #4]
 8001d94:	685b      	ldr	r3, [r3, #4]
 8001d96:	009b      	lsls	r3, r3, #2
 8001d98:	429a      	cmp	r2, r3
 8001d9a:	d1ec      	bne.n	8001d76 <HAL_RCC_ClockConfig+0x1b2>
      }
    }
  }

  /* Decreasing the number of wait states because of lower CPU frequency */
  if (FLatency < __HAL_FLASH_GET_LATENCY())
 8001d9c:	4b18      	ldr	r3, [pc, #96]	@ (8001e00 <HAL_RCC_ClockConfig+0x23c>)
 8001d9e:	681b      	ldr	r3, [r3, #0]
 8001da0:	f003 0307 	and.w	r3, r3, #7
 8001da4:	683a      	ldr	r2, [r7, #0]
 8001da6:	429a      	cmp	r2, r3
 8001da8:	d21b      	bcs.n	8001de2 <HAL_RCC_ClockConfig+0x21e>
  {
    /* Program the new number of wait states to the LATENCY bits in the FLASH_ACR register */
    __HAL_FLASH_SET_LATENCY(FLatency);
 8001daa:	4b15      	ldr	r3, [pc, #84]	@ (8001e00 <HAL_RCC_ClockConfig+0x23c>)
 8001dac:	681b      	ldr	r3, [r3, #0]
 8001dae:	f023 0207 	bic.w	r2, r3, #7
 8001db2:	4913      	ldr	r1, [pc, #76]	@ (8001e00 <HAL_RCC_ClockConfig+0x23c>)
 8001db4:	683b      	ldr	r3, [r7, #0]
 8001db6:	4313      	orrs	r3, r2
 8001db8:	600b      	str	r3, [r1, #0]

    /* Get Start Tick */
    tickstart = HAL_GetTick();
 8001dba:	f7fe fcbf 	bl	800073c <HAL_GetTick>
 8001dbe:	60f8      	str	r0, [r7, #12]

    /* Check that the new number of wait states is taken into account to access the Flash
    memory by reading the FLASH_ACR register */
    while (__HAL_FLASH_GET_LATENCY() != FLatency)
 8001dc0:	e008      	b.n	8001dd4 <HAL_RCC_ClockConfig+0x210>
    {
      if ((HAL_GetTick() - tickstart) > LATENCY_TIMEOUT_VALUE)
 8001dc2:	f7fe fcbb 	bl	800073c <HAL_GetTick>
 8001dc6:	4602      	mov	r2, r0
 8001dc8:	68fb      	ldr	r3, [r7, #12]
 8001dca:	1ad3      	subs	r3, r2, r3
 8001dcc:	2b02      	cmp	r3, #2
 8001dce:	d901      	bls.n	8001dd4 <HAL_RCC_ClockConfig+0x210>
      {
        return HAL_TIMEOUT;
 8001dd0:	2303      	movs	r3, #3
 8001dd2:	e011      	b.n	8001df8 <HAL_RCC_ClockConfig+0x234>
    while (__HAL_FLASH_GET_LATENCY() != FLatency)
 8001dd4:	4b0a      	ldr	r3, [pc, #40]	@ (8001e00 <HAL_RCC_ClockConfig+0x23c>)
 8001dd6:	681b      	ldr	r3, [r3, #0]
 8001dd8:	f003 0307 	and.w	r3, r3, #7
 8001ddc:	683a      	ldr	r2, [r7, #0]
 8001dde:	429a      	cmp	r2, r3
 8001de0:	d1ef      	bne.n	8001dc2 <HAL_RCC_ClockConfig+0x1fe>
  }

  /*--------------------------------------------------------------------------*/

  /* Update the SystemCoreClock global variable */
  SystemCoreClock = HAL_RCC_GetHCLKFreq();
 8001de2:	f000 f8b3 	bl	8001f4c <HAL_RCC_GetHCLKFreq>
 8001de6:	4603      	mov	r3, r0
 8001de8:	4a06      	ldr	r2, [pc, #24]	@ (8001e04 <HAL_RCC_ClockConfig+0x240>)
 8001dea:	6013      	str	r3, [r2, #0]

  /* Configure the source of time base considering new system clocks settings */
  return HAL_InitTick(uwTickPrio);
 8001dec:	4b06      	ldr	r3, [pc, #24]	@ (8001e08 <HAL_RCC_ClockConfig+0x244>)
 8001dee:	681b      	ldr	r3, [r3, #0]
 8001df0:	4618      	mov	r0, r3
 8001df2:	f7fe fe2b 	bl	8000a4c <HAL_InitTick>
 8001df6:	4603      	mov	r3, r0
}
 8001df8:	4618      	mov	r0, r3
 8001dfa:	3710      	adds	r7, #16
 8001dfc:	46bd      	mov	sp, r7
 8001dfe:	bd80      	pop	{r7, pc}
 8001e00:	58004000 	.word	0x58004000
 8001e04:	20000000 	.word	0x20000000
 8001e08:	20000004 	.word	0x20000004

08001e0c <HAL_RCC_GetSysClockFreq>:
  *
  *
  * @retval SYSCLK frequency
  */
uint32_t HAL_RCC_GetSysClockFreq(void)
{
 8001e0c:	b590      	push	{r4, r7, lr}
 8001e0e:	b087      	sub	sp, #28
 8001e10:	af00      	add	r7, sp, #0
  uint32_t sysclk_source;
  uint32_t pllsource;
  uint32_t sysclockfreq = 0U;
 8001e12:	2300      	movs	r3, #0
 8001e14:	617b      	str	r3, [r7, #20]
  uint32_t msifreq = 0U;
 8001e16:	2300      	movs	r3, #0
 8001e18:	613b      	str	r3, [r7, #16]
  uint32_t pllinputfreq;

  sysclk_source = __HAL_RCC_GET_SYSCLK_SOURCE();
 8001e1a:	f7ff fa40 	bl	800129e <LL_RCC_GetSysClkSource>
 8001e1e:	60b8      	str	r0, [r7, #8]
  pllsource = __HAL_RCC_GET_PLL_OSCSOURCE();
 8001e20:	f7ff fafe 	bl	8001420 <LL_RCC_PLL_GetMainSource>
 8001e24:	6078      	str	r0, [r7, #4]

  if ((sysclk_source == RCC_SYSCLKSOURCE_STATUS_MSI) ||
 8001e26:	68bb      	ldr	r3, [r7, #8]
 8001e28:	2b00      	cmp	r3, #0
 8001e2a:	d005      	beq.n	8001e38 <HAL_RCC_GetSysClockFreq+0x2c>
 8001e2c:	68bb      	ldr	r3, [r7, #8]
 8001e2e:	2b0c      	cmp	r3, #12
 8001e30:	d139      	bne.n	8001ea6 <HAL_RCC_GetSysClockFreq+0x9a>
      ((sysclk_source == RCC_SYSCLKSOURCE_STATUS_PLLCLK) && (pllsource == RCC_PLLSOURCE_MSI)))
 8001e32:	687b      	ldr	r3, [r7, #4]
 8001e34:	2b01      	cmp	r3, #1
 8001e36:	d136      	bne.n	8001ea6 <HAL_RCC_GetSysClockFreq+0x9a>
  {
    /* MSI or PLL with MSI source used as system clock source */
    /* Retrieve MSI frequency range in Hz */
    msifreq = __LL_RCC_CALC_MSI_FREQ(LL_RCC_MSI_IsEnabledRangeSelect(),
 8001e38:	f7ff f9e3 	bl	8001202 <LL_RCC_MSI_IsEnabledRangeSelect>
 8001e3c:	4603      	mov	r3, r0
 8001e3e:	2b00      	cmp	r3, #0
 8001e40:	d115      	bne.n	8001e6e <HAL_RCC_GetSysClockFreq+0x62>
 8001e42:	f7ff f9de 	bl	8001202 <LL_RCC_MSI_IsEnabledRangeSelect>
 8001e46:	4603      	mov	r3, r0
 8001e48:	2b01      	cmp	r3, #1
 8001e4a:	d106      	bne.n	8001e5a <HAL_RCC_GetSysClockFreq+0x4e>
 8001e4c:	f7ff f9e9 	bl	8001222 <LL_RCC_MSI_GetRange>
 8001e50:	4603      	mov	r3, r0
 8001e52:	0a1b      	lsrs	r3, r3, #8
 8001e54:	f003 030f 	and.w	r3, r3, #15
 8001e58:	e005      	b.n	8001e66 <HAL_RCC_GetSysClockFreq+0x5a>
 8001e5a:	f7ff f9ed 	bl	8001238 <LL_RCC_MSI_GetRangeAfterStandby>
 8001e5e:	4603      	mov	r3, r0
 8001e60:	0a1b      	lsrs	r3, r3, #8
 8001e62:	f003 030f 	and.w	r3, r3, #15
 8001e66:	4a36      	ldr	r2, [pc, #216]	@ (8001f40 <HAL_RCC_GetSysClockFreq+0x134>)
 8001e68:	f852 3023 	ldr.w	r3, [r2, r3, lsl #2]
 8001e6c:	e014      	b.n	8001e98 <HAL_RCC_GetSysClockFreq+0x8c>
 8001e6e:	f7ff f9c8 	bl	8001202 <LL_RCC_MSI_IsEnabledRangeSelect>
 8001e72:	4603      	mov	r3, r0
 8001e74:	2b01      	cmp	r3, #1
 8001e76:	d106      	bne.n	8001e86 <HAL_RCC_GetSysClockFreq+0x7a>
 8001e78:	f7ff f9d3 	bl	8001222 <LL_RCC_MSI_GetRange>
 8001e7c:	4603      	mov	r3, r0
 8001e7e:	091b      	lsrs	r3, r3, #4
 8001e80:	f003 030f 	and.w	r3, r3, #15
 8001e84:	e005      	b.n	8001e92 <HAL_RCC_GetSysClockFreq+0x86>
 8001e86:	f7ff f9d7 	bl	8001238 <LL_RCC_MSI_GetRangeAfterStandby>
 8001e8a:	4603      	mov	r3, r0
 8001e8c:	091b      	lsrs	r3, r3, #4
 8001e8e:	f003 030f 	and.w	r3, r3, #15
 8001e92:	4a2b      	ldr	r2, [pc, #172]	@ (8001f40 <HAL_RCC_GetSysClockFreq+0x134>)
 8001e94:	f852 3023 	ldr.w	r3, [r2, r3, lsl #2]
 8001e98:	613b      	str	r3, [r7, #16]
                                     ((LL_RCC_MSI_IsEnabledRangeSelect() == 1U) ?
                                      LL_RCC_MSI_GetRange() :
                                      LL_RCC_MSI_GetRangeAfterStandby()));

    /* Get SYSCLK source */
    if (sysclk_source == RCC_SYSCLKSOURCE_STATUS_MSI)
 8001e9a:	68bb      	ldr	r3, [r7, #8]
 8001e9c:	2b00      	cmp	r3, #0
 8001e9e:	d115      	bne.n	8001ecc <HAL_RCC_GetSysClockFreq+0xc0>
    {
      /* MSI used as system clock source */
      sysclockfreq = msifreq;
 8001ea0:	693b      	ldr	r3, [r7, #16]
 8001ea2:	617b      	str	r3, [r7, #20]
    if (sysclk_source == RCC_SYSCLKSOURCE_STATUS_MSI)
 8001ea4:	e012      	b.n	8001ecc <HAL_RCC_GetSysClockFreq+0xc0>
    }
  }
  else if (sysclk_source == RCC_SYSCLKSOURCE_STATUS_HSI)
 8001ea6:	68bb      	ldr	r3, [r7, #8]
 8001ea8:	2b04      	cmp	r3, #4
 8001eaa:	d102      	bne.n	8001eb2 <HAL_RCC_GetSysClockFreq+0xa6>
  {
    /* HSI used as system clock source */
    sysclockfreq = HSI_VALUE;
 8001eac:	4b25      	ldr	r3, [pc, #148]	@ (8001f44 <HAL_RCC_GetSysClockFreq+0x138>)
 8001eae:	617b      	str	r3, [r7, #20]
 8001eb0:	e00c      	b.n	8001ecc <HAL_RCC_GetSysClockFreq+0xc0>
  }
  else if (sysclk_source == RCC_SYSCLKSOURCE_STATUS_HSE)
 8001eb2:	68bb      	ldr	r3, [r7, #8]
 8001eb4:	2b08      	cmp	r3, #8
 8001eb6:	d109      	bne.n	8001ecc <HAL_RCC_GetSysClockFreq+0xc0>
  {
    /* HSE used as system clock source */
    if (LL_RCC_HSE_IsEnabledDiv2() == 1U)
 8001eb8:	f7ff f8b6 	bl	8001028 <LL_RCC_HSE_IsEnabledDiv2>
 8001ebc:	4603      	mov	r3, r0
 8001ebe:	2b01      	cmp	r3, #1
 8001ec0:	d102      	bne.n	8001ec8 <HAL_RCC_GetSysClockFreq+0xbc>
    {
      sysclockfreq = HSE_VALUE / 2U;
 8001ec2:	4b20      	ldr	r3, [pc, #128]	@ (8001f44 <HAL_RCC_GetSysClockFreq+0x138>)
 8001ec4:	617b      	str	r3, [r7, #20]
 8001ec6:	e001      	b.n	8001ecc <HAL_RCC_GetSysClockFreq+0xc0>
    }
    else
    {
      sysclockfreq = HSE_VALUE;
 8001ec8:	4b1f      	ldr	r3, [pc, #124]	@ (8001f48 <HAL_RCC_GetSysClockFreq+0x13c>)
 8001eca:	617b      	str	r3, [r7, #20]
  else
  {
    /* Nothing to do */
  }

  if (__HAL_RCC_GET_SYSCLK_SOURCE() == RCC_SYSCLKSOURCE_STATUS_PLLCLK)
 8001ecc:	f7ff f9e7 	bl	800129e <LL_RCC_GetSysClkSource>
 8001ed0:	4603      	mov	r3, r0
 8001ed2:	2b0c      	cmp	r3, #12
 8001ed4:	d12f      	bne.n	8001f36 <HAL_RCC_GetSysClockFreq+0x12a>
  {
    /* PLL used as system clock  source */
    pllsource = LL_RCC_PLL_GetMainSource();
 8001ed6:	f7ff faa3 	bl	8001420 <LL_RCC_PLL_GetMainSource>
 8001eda:	6078      	str	r0, [r7, #4]

    switch (pllsource)
 8001edc:	687b      	ldr	r3, [r7, #4]
 8001ede:	2b02      	cmp	r3, #2
 8001ee0:	d003      	beq.n	8001eea <HAL_RCC_GetSysClockFreq+0xde>
 8001ee2:	687b      	ldr	r3, [r7, #4]
 8001ee4:	2b03      	cmp	r3, #3
 8001ee6:	d003      	beq.n	8001ef0 <HAL_RCC_GetSysClockFreq+0xe4>
 8001ee8:	e00d      	b.n	8001f06 <HAL_RCC_GetSysClockFreq+0xfa>
    {
      case RCC_PLLSOURCE_HSI:  /* HSI used as PLL clock source */
        pllinputfreq = HSI_VALUE;
 8001eea:	4b16      	ldr	r3, [pc, #88]	@ (8001f44 <HAL_RCC_GetSysClockFreq+0x138>)
 8001eec:	60fb      	str	r3, [r7, #12]
        break;
 8001eee:	e00d      	b.n	8001f0c <HAL_RCC_GetSysClockFreq+0x100>
      case RCC_PLLSOURCE_HSE:  /* HSE used as PLL clock source */
        if (LL_RCC_HSE_IsEnabledDiv2() == 1U)
 8001ef0:	f7ff f89a 	bl	8001028 <LL_RCC_HSE_IsEnabledDiv2>
 8001ef4:	4603      	mov	r3, r0
 8001ef6:	2b01      	cmp	r3, #1
 8001ef8:	d102      	bne.n	8001f00 <HAL_RCC_GetSysClockFreq+0xf4>
        {
          pllinputfreq = HSE_VALUE / 2U;
 8001efa:	4b12      	ldr	r3, [pc, #72]	@ (8001f44 <HAL_RCC_GetSysClockFreq+0x138>)
 8001efc:	60fb      	str	r3, [r7, #12]
        }
        else
        {
          pllinputfreq = HSE_VALUE;
        }
        break;
 8001efe:	e005      	b.n	8001f0c <HAL_RCC_GetSysClockFreq+0x100>
          pllinputfreq = HSE_VALUE;
 8001f00:	4b11      	ldr	r3, [pc, #68]	@ (8001f48 <HAL_RCC_GetSysClockFreq+0x13c>)
 8001f02:	60fb      	str	r3, [r7, #12]
        break;
 8001f04:	e002      	b.n	8001f0c <HAL_RCC_GetSysClockFreq+0x100>
      case RCC_PLLSOURCE_MSI:  /* MSI used as PLL clock source */
      default:
        pllinputfreq = msifreq;
 8001f06:	693b      	ldr	r3, [r7, #16]
 8001f08:	60fb      	str	r3, [r7, #12]
        break;
 8001f0a:	bf00      	nop
    }
    sysclockfreq = __LL_RCC_CALC_PLLCLK_FREQ(pllinputfreq, LL_RCC_PLL_GetDivider(),
 8001f0c:	f7ff fa66 	bl	80013dc <LL_RCC_PLL_GetN>
 8001f10:	4602      	mov	r2, r0
 8001f12:	68fb      	ldr	r3, [r7, #12]
 8001f14:	fb03 f402 	mul.w	r4, r3, r2
 8001f18:	f7ff fa77 	bl	800140a <LL_RCC_PLL_GetDivider>
 8001f1c:	4603      	mov	r3, r0
 8001f1e:	091b      	lsrs	r3, r3, #4
 8001f20:	3301      	adds	r3, #1
 8001f22:	fbb4 f4f3 	udiv	r4, r4, r3
 8001f26:	f7ff fa65 	bl	80013f4 <LL_RCC_PLL_GetR>
 8001f2a:	4603      	mov	r3, r0
 8001f2c:	0f5b      	lsrs	r3, r3, #29
 8001f2e:	3301      	adds	r3, #1
 8001f30:	fbb4 f3f3 	udiv	r3, r4, r3
 8001f34:	617b      	str	r3, [r7, #20]
                                             LL_RCC_PLL_GetN(), LL_RCC_PLL_GetR());
  }

  return sysclockfreq;
 8001f36:	697b      	ldr	r3, [r7, #20]
}
 8001f38:	4618      	mov	r0, r3
 8001f3a:	371c      	adds	r7, #28
 8001f3c:	46bd      	mov	sp, r7
 8001f3e:	bd90      	pop	{r4, r7, pc}
 8001f40:	0800725c 	.word	0x0800725c
 8001f44:	00f42400 	.word	0x00f42400
 8001f48:	01e84800 	.word	0x01e84800

08001f4c <HAL_RCC_GetHCLKFreq>:
/**
  * @brief  Return the HCLK frequency.
  * @retval HCLK frequency in Hz
  */
uint32_t HAL_RCC_GetHCLKFreq(void)
{
 8001f4c:	b598      	push	{r3, r4, r7, lr}
 8001f4e:	af00      	add	r7, sp, #0
  /* Get SysClock and Compute HCLK1 frequency --------------------------------*/
  return ((uint32_t)(__LL_RCC_CALC_HCLK1_FREQ(HAL_RCC_GetSysClockFreq(), LL_RCC_GetAHBPrescaler())));
 8001f50:	f7ff ff5c 	bl	8001e0c <HAL_RCC_GetSysClockFreq>
 8001f54:	4604      	mov	r4, r0
 8001f56:	f7ff f9fc 	bl	8001352 <LL_RCC_GetAHBPrescaler>
 8001f5a:	4603      	mov	r3, r0
 8001f5c:	091b      	lsrs	r3, r3, #4
 8001f5e:	f003 030f 	and.w	r3, r3, #15
 8001f62:	4a03      	ldr	r2, [pc, #12]	@ (8001f70 <HAL_RCC_GetHCLKFreq+0x24>)
 8001f64:	f852 3023 	ldr.w	r3, [r2, r3, lsl #2]
 8001f68:	fbb4 f3f3 	udiv	r3, r4, r3
}
 8001f6c:	4618      	mov	r0, r3
 8001f6e:	bd98      	pop	{r3, r4, r7, pc}
 8001f70:	0800721c 	.word	0x0800721c

08001f74 <RCC_SetFlashLatencyFromMSIRange>:
            voltage range.
  * @param  MSI_Range  MSI range value from @ref RCC_MSIRANGE_0 to @ref RCC_MSIRANGE_11
  * @retval HAL status
  */
static HAL_StatusTypeDef RCC_SetFlashLatencyFromMSIRange(uint32_t MSI_Range)
{
 8001f74:	b590      	push	{r4, r7, lr}
 8001f76:	b085      	sub	sp, #20
 8001f78:	af00      	add	r7, sp, #0
 8001f7a:	6078      	str	r0, [r7, #4]
  uint32_t flash_clksrcfreq;
  uint32_t msifreq;

  /* MSI frequency range in Hz */
  msifreq           = __LL_RCC_CALC_MSI_FREQ(LL_RCC_MSIRANGESEL_RUN, MSI_Range);
 8001f7c:	687b      	ldr	r3, [r7, #4]
 8001f7e:	091b      	lsrs	r3, r3, #4
 8001f80:	f003 030f 	and.w	r3, r3, #15
 8001f84:	4a10      	ldr	r2, [pc, #64]	@ (8001fc8 <RCC_SetFlashLatencyFromMSIRange+0x54>)
 8001f86:	f852 3023 	ldr.w	r3, [r2, r3, lsl #2]
 8001f8a:	60fb      	str	r3, [r7, #12]
  flash_clksrcfreq  = __LL_RCC_CALC_HCLK3_FREQ(msifreq, LL_RCC_GetAHB3Prescaler());
 8001f8c:	f7ff f9ec 	bl	8001368 <LL_RCC_GetAHB3Prescaler>
 8001f90:	4603      	mov	r3, r0
 8001f92:	091b      	lsrs	r3, r3, #4
 8001f94:	f003 030f 	and.w	r3, r3, #15
 8001f98:	4a0c      	ldr	r2, [pc, #48]	@ (8001fcc <RCC_SetFlashLatencyFromMSIRange+0x58>)
 8001f9a:	f852 3023 	ldr.w	r3, [r2, r3, lsl #2]
 8001f9e:	68fa      	ldr	r2, [r7, #12]
 8001fa0:	fbb2 f3f3 	udiv	r3, r2, r3
 8001fa4:	60bb      	str	r3, [r7, #8]

  return RCC_SetFlashLatency((flash_clksrcfreq / MEGA_HZ), HAL_PWREx_GetVoltageRange());
 8001fa6:	68bb      	ldr	r3, [r7, #8]
 8001fa8:	4a09      	ldr	r2, [pc, #36]	@ (8001fd0 <RCC_SetFlashLatencyFromMSIRange+0x5c>)
 8001faa:	fba2 2303 	umull	r2, r3, r2, r3
 8001fae:	0c9c      	lsrs	r4, r3, #18
 8001fb0:	f7ff f800 	bl	8000fb4 <HAL_PWREx_GetVoltageRange>
 8001fb4:	4603      	mov	r3, r0
 8001fb6:	4619      	mov	r1, r3
 8001fb8:	4620      	mov	r0, r4
 8001fba:	f000 f80b 	bl	8001fd4 <RCC_SetFlashLatency>
 8001fbe:	4603      	mov	r3, r0
}
 8001fc0:	4618      	mov	r0, r3
 8001fc2:	3714      	adds	r7, #20
 8001fc4:	46bd      	mov	sp, r7
 8001fc6:	bd90      	pop	{r4, r7, pc}
 8001fc8:	0800725c 	.word	0x0800725c
 8001fcc:	0800721c 	.word	0x0800721c
 8001fd0:	431bde83 	.word	0x431bde83

08001fd4 <RCC_SetFlashLatency>:
  *            @arg PWR_REGULATOR_VOLTAGE_SCALE1   Regulator voltage output range 1 mode
  *            @arg PWR_REGULATOR_VOLTAGE_SCALE2   Regulator voltage output range 2 mode
  * @retval HAL status
  */
static HAL_StatusTypeDef RCC_SetFlashLatency(uint32_t Flash_ClkSrcFreq, uint32_t VCORE_Voltage)
{
 8001fd4:	b580      	push	{r7, lr}
 8001fd6:	b08e      	sub	sp, #56	@ 0x38
 8001fd8:	af00      	add	r7, sp, #0
 8001fda:	6078      	str	r0, [r7, #4]
 8001fdc:	6039      	str	r1, [r7, #0]
  /* Flash Clock source (HCLK3) range in MHz for VCORE range1 */
  const uint16_t FLASH_CLK_SRC_RANGE_VOS1[] = {18, 36, 48};
 8001fde:	4a3a      	ldr	r2, [pc, #232]	@ (80020c8 <RCC_SetFlashLatency+0xf4>)
 8001fe0:	f107 0320 	add.w	r3, r7, #32
 8001fe4:	e892 0003 	ldmia.w	r2, {r0, r1}
 8001fe8:	6018      	str	r0, [r3, #0]
 8001fea:	3304      	adds	r3, #4
 8001fec:	8019      	strh	r1, [r3, #0]

  /* Flash Clock source (HCLK3) range in MHz for VCORE range2 */
  const uint16_t FLASH_CLK_SRC_RANGE_VOS2[] = {6, 12, 16};
 8001fee:	4a37      	ldr	r2, [pc, #220]	@ (80020cc <RCC_SetFlashLatency+0xf8>)
 8001ff0:	f107 0318 	add.w	r3, r7, #24
 8001ff4:	e892 0003 	ldmia.w	r2, {r0, r1}
 8001ff8:	6018      	str	r0, [r3, #0]
 8001ffa:	3304      	adds	r3, #4
 8001ffc:	8019      	strh	r1, [r3, #0]

  /* Flash Latency range */
  const uint32_t FLASH_LATENCY_RANGE[] = {FLASH_LATENCY_0, FLASH_LATENCY_1, FLASH_LATENCY_2};
 8001ffe:	4a34      	ldr	r2, [pc, #208]	@ (80020d0 <RCC_SetFlashLatency+0xfc>)
 8002000:	f107 030c 	add.w	r3, r7, #12
 8002004:	ca07      	ldmia	r2, {r0, r1, r2}
 8002006:	e883 0007 	stmia.w	r3, {r0, r1, r2}

  uint32_t latency   = FLASH_LATENCY_0;  /* default value 0WS */
 800200a:	2300      	movs	r3, #0
 800200c:	637b      	str	r3, [r7, #52]	@ 0x34
  uint32_t tickstart;

  if (VCORE_Voltage == PWR_REGULATOR_VOLTAGE_SCALE1)
 800200e:	683b      	ldr	r3, [r7, #0]
 8002010:	f5b3 7f00 	cmp.w	r3, #512	@ 0x200
 8002014:	d11b      	bne.n	800204e <RCC_SetFlashLatency+0x7a>
  {
    for (uint32_t index = 0; index < __COUNTOF(FLASH_CLK_SRC_RANGE_VOS1); index++)
 8002016:	2300      	movs	r3, #0
 8002018:	633b      	str	r3, [r7, #48]	@ 0x30
 800201a:	e014      	b.n	8002046 <RCC_SetFlashLatency+0x72>
    {
      if (Flash_ClkSrcFreq <= FLASH_CLK_SRC_RANGE_VOS1[index])
 800201c:	6b3b      	ldr	r3, [r7, #48]	@ 0x30
 800201e:	005b      	lsls	r3, r3, #1
 8002020:	3338      	adds	r3, #56	@ 0x38
 8002022:	443b      	add	r3, r7
 8002024:	f833 3c18 	ldrh.w	r3, [r3, #-24]
 8002028:	461a      	mov	r2, r3
 800202a:	687b      	ldr	r3, [r7, #4]
 800202c:	4293      	cmp	r3, r2
 800202e:	d807      	bhi.n	8002040 <RCC_SetFlashLatency+0x6c>
      {
        latency = FLASH_LATENCY_RANGE[index];
 8002030:	6b3b      	ldr	r3, [r7, #48]	@ 0x30
 8002032:	009b      	lsls	r3, r3, #2
 8002034:	3338      	adds	r3, #56	@ 0x38
 8002036:	443b      	add	r3, r7
 8002038:	f853 3c2c 	ldr.w	r3, [r3, #-44]
 800203c:	637b      	str	r3, [r7, #52]	@ 0x34
        break;
 800203e:	e021      	b.n	8002084 <RCC_SetFlashLatency+0xb0>
    for (uint32_t index = 0; index < __COUNTOF(FLASH_CLK_SRC_RANGE_VOS1); index++)
 8002040:	6b3b      	ldr	r3, [r7, #48]	@ 0x30
 8002042:	3301      	adds	r3, #1
 8002044:	633b      	str	r3, [r7, #48]	@ 0x30
 8002046:	6b3b      	ldr	r3, [r7, #48]	@ 0x30
 8002048:	2b02      	cmp	r3, #2
 800204a:	d9e7      	bls.n	800201c <RCC_SetFlashLatency+0x48>
 800204c:	e01a      	b.n	8002084 <RCC_SetFlashLatency+0xb0>
      }
    }
  }
  else  /* PWR_REGULATOR_VOLTAGE_SCALE2 */
  {
    for (uint32_t index = 0; index < __COUNTOF(FLASH_CLK_SRC_RANGE_VOS2); index++)
 800204e:	2300      	movs	r3, #0
 8002050:	62fb      	str	r3, [r7, #44]	@ 0x2c
 8002052:	e014      	b.n	800207e <RCC_SetFlashLatency+0xaa>
    {
      if (Flash_ClkSrcFreq <= FLASH_CLK_SRC_RANGE_VOS2[index])
 8002054:	6afb      	ldr	r3, [r7, #44]	@ 0x2c
 8002056:	005b      	lsls	r3, r3, #1
 8002058:	3338      	adds	r3, #56	@ 0x38
 800205a:	443b      	add	r3, r7
 800205c:	f833 3c20 	ldrh.w	r3, [r3, #-32]
 8002060:	461a      	mov	r2, r3
 8002062:	687b      	ldr	r3, [r7, #4]
 8002064:	4293      	cmp	r3, r2
 8002066:	d807      	bhi.n	8002078 <RCC_SetFlashLatency+0xa4>
      {
        latency = FLASH_LATENCY_RANGE[index];
 8002068:	6afb      	ldr	r3, [r7, #44]	@ 0x2c
 800206a:	009b      	lsls	r3, r3, #2
 800206c:	3338      	adds	r3, #56	@ 0x38
 800206e:	443b      	add	r3, r7
 8002070:	f853 3c2c 	ldr.w	r3, [r3, #-44]
 8002074:	637b      	str	r3, [r7, #52]	@ 0x34
        break;
 8002076:	e005      	b.n	8002084 <RCC_SetFlashLatency+0xb0>
    for (uint32_t index = 0; index < __COUNTOF(FLASH_CLK_SRC_RANGE_VOS2); index++)
 8002078:	6afb      	ldr	r3, [r7, #44]	@ 0x2c
 800207a:	3301      	adds	r3, #1
 800207c:	62fb      	str	r3, [r7, #44]	@ 0x2c
 800207e:	6afb      	ldr	r3, [r7, #44]	@ 0x2c
 8002080:	2b02      	cmp	r3, #2
 8002082:	d9e7      	bls.n	8002054 <RCC_SetFlashLatency+0x80>
      }
    }
  }

  __HAL_FLASH_SET_LATENCY(latency);
 8002084:	4b13      	ldr	r3, [pc, #76]	@ (80020d4 <RCC_SetFlashLatency+0x100>)
 8002086:	681b      	ldr	r3, [r3, #0]
 8002088:	f023 0207 	bic.w	r2, r3, #7
 800208c:	4911      	ldr	r1, [pc, #68]	@ (80020d4 <RCC_SetFlashLatency+0x100>)
 800208e:	6b7b      	ldr	r3, [r7, #52]	@ 0x34
 8002090:	4313      	orrs	r3, r2
 8002092:	600b      	str	r3, [r1, #0]

  /* Get Start Tick*/
  tickstart = HAL_GetTick();
 8002094:	f7fe fb52 	bl	800073c <HAL_GetTick>
 8002098:	62b8      	str	r0, [r7, #40]	@ 0x28

  /* Check that the new number of wait states is taken into account to access the Flash
     memory by reading the FLASH_ACR register */
  while (__HAL_FLASH_GET_LATENCY() != latency)
 800209a:	e008      	b.n	80020ae <RCC_SetFlashLatency+0xda>
  {
    if ((HAL_GetTick() - tickstart) > LATENCY_TIMEOUT_VALUE)
 800209c:	f7fe fb4e 	bl	800073c <HAL_GetTick>
 80020a0:	4602      	mov	r2, r0
 80020a2:	6abb      	ldr	r3, [r7, #40]	@ 0x28
 80020a4:	1ad3      	subs	r3, r2, r3
 80020a6:	2b02      	cmp	r3, #2
 80020a8:	d901      	bls.n	80020ae <RCC_SetFlashLatency+0xda>
    {
      return HAL_TIMEOUT;
 80020aa:	2303      	movs	r3, #3
 80020ac:	e007      	b.n	80020be <RCC_SetFlashLatency+0xea>
  while (__HAL_FLASH_GET_LATENCY() != latency)
 80020ae:	4b09      	ldr	r3, [pc, #36]	@ (80020d4 <RCC_SetFlashLatency+0x100>)
 80020b0:	681b      	ldr	r3, [r3, #0]
 80020b2:	f003 0307 	and.w	r3, r3, #7
 80020b6:	6b7a      	ldr	r2, [r7, #52]	@ 0x34
 80020b8:	429a      	cmp	r2, r3
 80020ba:	d1ef      	bne.n	800209c <RCC_SetFlashLatency+0xc8>
    }
  }
  return HAL_OK;
 80020bc:	2300      	movs	r3, #0
}
 80020be:	4618      	mov	r0, r3
 80020c0:	3738      	adds	r7, #56	@ 0x38
 80020c2:	46bd      	mov	sp, r7
 80020c4:	bd80      	pop	{r7, pc}
 80020c6:	bf00      	nop
 80020c8:	080071b4 	.word	0x080071b4
 80020cc:	080071bc 	.word	0x080071bc
 80020d0:	080071c4 	.word	0x080071c4
 80020d4:	58004000 	.word	0x58004000

080020d8 <LL_PWR_SetRadioBusyTrigger>:
  *         @arg @ref LL_PWR_RADIO_BUSY_TRIGGER_NONE
  *         @arg @ref LL_PWR_RADIO_BUSY_TRIGGER_WU_IT
  * @retval None
  */
__STATIC_INLINE void LL_PWR_SetRadioBusyTrigger(uint32_t RadioBusyTrigger)
{
 80020d8:	b480      	push	{r7}
 80020da:	b083      	sub	sp, #12
 80020dc:	af00      	add	r7, sp, #0
 80020de:	6078      	str	r0, [r7, #4]
  MODIFY_REG(PWR->CR3, PWR_CR3_EWRFBUSY, RadioBusyTrigger);
 80020e0:	4b06      	ldr	r3, [pc, #24]	@ (80020fc <LL_PWR_SetRadioBusyTrigger+0x24>)
 80020e2:	689b      	ldr	r3, [r3, #8]
 80020e4:	f423 6200 	bic.w	r2, r3, #2048	@ 0x800
 80020e8:	4904      	ldr	r1, [pc, #16]	@ (80020fc <LL_PWR_SetRadioBusyTrigger+0x24>)
 80020ea:	687b      	ldr	r3, [r7, #4]
 80020ec:	4313      	orrs	r3, r2
 80020ee:	608b      	str	r3, [r1, #8]
}
 80020f0:	bf00      	nop
 80020f2:	370c      	adds	r7, #12
 80020f4:	46bd      	mov	sp, r7
 80020f6:	bc80      	pop	{r7}
 80020f8:	4770      	bx	lr
 80020fa:	bf00      	nop
 80020fc:	58000400 	.word	0x58000400

08002100 <LL_PWR_UnselectSUBGHZSPI_NSS>:
  * @brief  Set sub-GHz radio SPI NSS at logical level high.
  * @rmtoll SUBGHZSPICR  NSS           LL_PWR_UnselectSUBGHZSPI_NSS
  * @retval None
  */
__STATIC_INLINE void LL_PWR_UnselectSUBGHZSPI_NSS(void)
{
 8002100:	b480      	push	{r7}
 8002102:	af00      	add	r7, sp, #0
  SET_BIT(PWR->SUBGHZSPICR, PWR_SUBGHZSPICR_NSS);
 8002104:	4b05      	ldr	r3, [pc, #20]	@ (800211c <LL_PWR_UnselectSUBGHZSPI_NSS+0x1c>)
 8002106:	f8d3 3090 	ldr.w	r3, [r3, #144]	@ 0x90
 800210a:	4a04      	ldr	r2, [pc, #16]	@ (800211c <LL_PWR_UnselectSUBGHZSPI_NSS+0x1c>)
 800210c:	f443 4300 	orr.w	r3, r3, #32768	@ 0x8000
 8002110:	f8c2 3090 	str.w	r3, [r2, #144]	@ 0x90
}
 8002114:	bf00      	nop
 8002116:	46bd      	mov	sp, r7
 8002118:	bc80      	pop	{r7}
 800211a:	4770      	bx	lr
 800211c:	58000400 	.word	0x58000400

08002120 <LL_PWR_SelectSUBGHZSPI_NSS>:
  * @brief  Set sub-GHz radio SPI NSS at logical level low.
  * @rmtoll SUBGHZSPICR  NSS           LL_PWR_SelectSUBGHZSPI_NSS
  * @retval None
  */
__STATIC_INLINE void LL_PWR_SelectSUBGHZSPI_NSS(void)
{
 8002120:	b480      	push	{r7}
 8002122:	af00      	add	r7, sp, #0
  CLEAR_BIT(PWR->SUBGHZSPICR, PWR_SUBGHZSPICR_NSS);
 8002124:	4b05      	ldr	r3, [pc, #20]	@ (800213c <LL_PWR_SelectSUBGHZSPI_NSS+0x1c>)
 8002126:	f8d3 3090 	ldr.w	r3, [r3, #144]	@ 0x90
 800212a:	4a04      	ldr	r2, [pc, #16]	@ (800213c <LL_PWR_SelectSUBGHZSPI_NSS+0x1c>)
 800212c:	f423 4300 	bic.w	r3, r3, #32768	@ 0x8000
 8002130:	f8c2 3090 	str.w	r3, [r2, #144]	@ 0x90
}
 8002134:	bf00      	nop
 8002136:	46bd      	mov	sp, r7
 8002138:	bc80      	pop	{r7}
 800213a:	4770      	bx	lr
 800213c:	58000400 	.word	0x58000400

08002140 <LL_PWR_ClearFlag_RFBUSY>:
  * @brief  Clear radio busy flag
  * @rmtoll SCR          CRFBUSYF      LL_PWR_ClearFlag_RFBUSY
  * @retval None
  */
__STATIC_INLINE void LL_PWR_ClearFlag_RFBUSY(void)
{
 8002140:	b480      	push	{r7}
 8002142:	af00      	add	r7, sp, #0
  WRITE_REG(PWR->SCR, PWR_SCR_CWRFBUSYF);
 8002144:	4b03      	ldr	r3, [pc, #12]	@ (8002154 <LL_PWR_ClearFlag_RFBUSY+0x14>)
 8002146:	f44f 6200 	mov.w	r2, #2048	@ 0x800
 800214a:	619a      	str	r2, [r3, #24]
}
 800214c:	bf00      	nop
 800214e:	46bd      	mov	sp, r7
 8002150:	bc80      	pop	{r7}
 8002152:	4770      	bx	lr
 8002154:	58000400 	.word	0x58000400

08002158 <LL_PWR_IsActiveFlag_RFBUSYS>:
  *         @ref LL_PWR_IsActiveFlag_RFBUSY()
  * @rmtoll SR2          RFBUSYS       LL_PWR_IsActiveFlag_RFBUSYS
  * @retval State of bit (1 or 0).
  */
__STATIC_INLINE uint32_t LL_PWR_IsActiveFlag_RFBUSYS(void)
{
 8002158:	b480      	push	{r7}
 800215a:	af00      	add	r7, sp, #0
  return ((READ_BIT(PWR->SR2, PWR_SR2_RFBUSYS) == (PWR_SR2_RFBUSYS)) ? 1UL : 0UL);
 800215c:	4b06      	ldr	r3, [pc, #24]	@ (8002178 <LL_PWR_IsActiveFlag_RFBUSYS+0x20>)
 800215e:	695b      	ldr	r3, [r3, #20]
 8002160:	f003 0302 	and.w	r3, r3, #2
 8002164:	2b02      	cmp	r3, #2
 8002166:	d101      	bne.n	800216c <LL_PWR_IsActiveFlag_RFBUSYS+0x14>
 8002168:	2301      	movs	r3, #1
 800216a:	e000      	b.n	800216e <LL_PWR_IsActiveFlag_RFBUSYS+0x16>
 800216c:	2300      	movs	r3, #0
}
 800216e:	4618      	mov	r0, r3
 8002170:	46bd      	mov	sp, r7
 8002172:	bc80      	pop	{r7}
 8002174:	4770      	bx	lr
 8002176:	bf00      	nop
 8002178:	58000400 	.word	0x58000400

0800217c <LL_PWR_IsActiveFlag_RFBUSYMS>:
  *         @ref LL_PWR_IsActiveFlag_RFBUSY()
  * @rmtoll SR2          RFBUSYMS      LL_PWR_IsActiveFlag_RFBUSYMS
  * @retval State of bit (1 or 0).
  */
__STATIC_INLINE uint32_t LL_PWR_IsActiveFlag_RFBUSYMS(void)
{
 800217c:	b480      	push	{r7}
 800217e:	af00      	add	r7, sp, #0
  return ((READ_BIT(PWR->SR2, PWR_SR2_RFBUSYMS) == (PWR_SR2_RFBUSYMS)) ? 1UL : 0UL);
 8002180:	4b06      	ldr	r3, [pc, #24]	@ (800219c <LL_PWR_IsActiveFlag_RFBUSYMS+0x20>)
 8002182:	695b      	ldr	r3, [r3, #20]
 8002184:	f003 0304 	and.w	r3, r3, #4
 8002188:	2b04      	cmp	r3, #4
 800218a:	d101      	bne.n	8002190 <LL_PWR_IsActiveFlag_RFBUSYMS+0x14>
 800218c:	2301      	movs	r3, #1
 800218e:	e000      	b.n	8002192 <LL_PWR_IsActiveFlag_RFBUSYMS+0x16>
 8002190:	2300      	movs	r3, #0
}
 8002192:	4618      	mov	r0, r3
 8002194:	46bd      	mov	sp, r7
 8002196:	bc80      	pop	{r7}
 8002198:	4770      	bx	lr
 800219a:	bf00      	nop
 800219c:	58000400 	.word	0x58000400

080021a0 <LL_RCC_RF_DisableReset>:
{
 80021a0:	b480      	push	{r7}
 80021a2:	af00      	add	r7, sp, #0
  CLEAR_BIT(RCC->CSR, RCC_CSR_RFRST);
 80021a4:	f04f 43b0 	mov.w	r3, #1476395008	@ 0x58000000
 80021a8:	f8d3 3094 	ldr.w	r3, [r3, #148]	@ 0x94
 80021ac:	f04f 42b0 	mov.w	r2, #1476395008	@ 0x58000000
 80021b0:	f423 4300 	bic.w	r3, r3, #32768	@ 0x8000
 80021b4:	f8c2 3094 	str.w	r3, [r2, #148]	@ 0x94
}
 80021b8:	bf00      	nop
 80021ba:	46bd      	mov	sp, r7
 80021bc:	bc80      	pop	{r7}
 80021be:	4770      	bx	lr

080021c0 <LL_RCC_IsRFUnderReset>:
{
 80021c0:	b480      	push	{r7}
 80021c2:	af00      	add	r7, sp, #0
  return ((READ_BIT(RCC->CSR, RCC_CSR_RFRSTF) == (RCC_CSR_RFRSTF)) ? 1UL : 0UL);
 80021c4:	f04f 43b0 	mov.w	r3, #1476395008	@ 0x58000000
 80021c8:	f8d3 3094 	ldr.w	r3, [r3, #148]	@ 0x94
 80021cc:	f403 4380 	and.w	r3, r3, #16384	@ 0x4000
 80021d0:	f5b3 4f80 	cmp.w	r3, #16384	@ 0x4000
 80021d4:	d101      	bne.n	80021da <LL_RCC_IsRFUnderReset+0x1a>
 80021d6:	2301      	movs	r3, #1
 80021d8:	e000      	b.n	80021dc <LL_RCC_IsRFUnderReset+0x1c>
 80021da:	2300      	movs	r3, #0
}
 80021dc:	4618      	mov	r0, r3
 80021de:	46bd      	mov	sp, r7
 80021e0:	bc80      	pop	{r7}
 80021e2:	4770      	bx	lr

080021e4 <LL_EXTI_EnableIT_32_63>:
  *         @arg @ref LL_EXTI_LINE_ALL_32_63
  *         (*) value not defined in all devices
  * @retval None
  */
__STATIC_INLINE void LL_EXTI_EnableIT_32_63(uint32_t ExtiLine)
{
 80021e4:	b480      	push	{r7}
 80021e6:	b083      	sub	sp, #12
 80021e8:	af00      	add	r7, sp, #0
 80021ea:	6078      	str	r0, [r7, #4]
  SET_BIT(EXTI->IMR2, ExtiLine);
 80021ec:	4b06      	ldr	r3, [pc, #24]	@ (8002208 <LL_EXTI_EnableIT_32_63+0x24>)
 80021ee:	f8d3 2090 	ldr.w	r2, [r3, #144]	@ 0x90
 80021f2:	4905      	ldr	r1, [pc, #20]	@ (8002208 <LL_EXTI_EnableIT_32_63+0x24>)
 80021f4:	687b      	ldr	r3, [r7, #4]
 80021f6:	4313      	orrs	r3, r2
 80021f8:	f8c1 3090 	str.w	r3, [r1, #144]	@ 0x90
}
 80021fc:	bf00      	nop
 80021fe:	370c      	adds	r7, #12
 8002200:	46bd      	mov	sp, r7
 8002202:	bc80      	pop	{r7}
 8002204:	4770      	bx	lr
 8002206:	bf00      	nop
 8002208:	58000800 	.word	0x58000800

0800220c <HAL_SUBGHZ_Init>:
  *         set the state to HAL_SUBGHZ_STATE_RESET_RF_READY with __HAL_SUBGHZ_RESET_HANDLE_STATE_RF_READY
  *         to avoid the reset of Radio peripheral.
  * @retval HAL status
  */
HAL_StatusTypeDef HAL_SUBGHZ_Init(SUBGHZ_HandleTypeDef *hsubghz)
{
 800220c:	b580      	push	{r7, lr}
 800220e:	b084      	sub	sp, #16
 8002210:	af00      	add	r7, sp, #0
 8002212:	6078      	str	r0, [r7, #4]
  HAL_StatusTypeDef status;
  __IO uint32_t count;
  HAL_SUBGHZ_StateTypeDef subghz_state;

  /* Check the hsubghz handle allocation */
  if (hsubghz == NULL)
 8002214:	687b      	ldr	r3, [r7, #4]
 8002216:	2b00      	cmp	r3, #0
 8002218:	d103      	bne.n	8002222 <HAL_SUBGHZ_Init+0x16>
  {
    status = HAL_ERROR;
 800221a:	2301      	movs	r3, #1
 800221c:	73fb      	strb	r3, [r7, #15]
    return status;
 800221e:	7bfb      	ldrb	r3, [r7, #15]
 8002220:	e052      	b.n	80022c8 <HAL_SUBGHZ_Init+0xbc>
  }
  else
  {
    status = HAL_OK;
 8002222:	2300      	movs	r3, #0
 8002224:	73fb      	strb	r3, [r7, #15]
  }

  assert_param(IS_SUBGHZSPI_BAUDRATE_PRESCALER(hsubghz->Init.BaudratePrescaler));

  subghz_state = hsubghz->State;
 8002226:	687b      	ldr	r3, [r7, #4]
 8002228:	799b      	ldrb	r3, [r3, #6]
 800222a:	73bb      	strb	r3, [r7, #14]
  if ((subghz_state == HAL_SUBGHZ_STATE_RESET) ||
 800222c:	7bbb      	ldrb	r3, [r7, #14]
 800222e:	2b00      	cmp	r3, #0
 8002230:	d002      	beq.n	8002238 <HAL_SUBGHZ_Init+0x2c>
 8002232:	7bbb      	ldrb	r3, [r7, #14]
 8002234:	2b03      	cmp	r3, #3
 8002236:	d109      	bne.n	800224c <HAL_SUBGHZ_Init+0x40>
      (subghz_state == HAL_SUBGHZ_STATE_RESET_RF_READY))
  {
    /* Allocate lock resource and initialize it */
    hsubghz->Lock = HAL_UNLOCKED;
 8002238:	687b      	ldr	r3, [r7, #4]
 800223a:	2200      	movs	r2, #0
 800223c:	715a      	strb	r2, [r3, #5]

    /* Init the low level hardware : GPIO, CLOCK, NVIC... */
    hsubghz->MspInitCallback(hsubghz);
#else
    /* Init the low level hardware : GPIO, CLOCK, NVIC... */
    HAL_SUBGHZ_MspInit(hsubghz);
 800223e:	6878      	ldr	r0, [r7, #4]
 8002240:	f7fe fa3e 	bl	80006c0 <HAL_SUBGHZ_MspInit>
#if defined(CORE_CM0PLUS)
    /* Enable EXTI 44 : Radio IRQ ITs for CPU2 */
    LL_C2_EXTI_EnableIT_32_63(LL_EXTI_LINE_44);
#else
    /* Enable EXTI 44 : Radio IRQ ITs for CPU1 */
    LL_EXTI_EnableIT_32_63(LL_EXTI_LINE_44);
 8002244:	f44f 5080 	mov.w	r0, #4096	@ 0x1000
 8002248:	f7ff ffcc 	bl	80021e4 <LL_EXTI_EnableIT_32_63>
#endif /* CORE_CM0PLUS */
  }

  if (subghz_state == HAL_SUBGHZ_STATE_RESET)
 800224c:	7bbb      	ldrb	r3, [r7, #14]
 800224e:	2b00      	cmp	r3, #0
 8002250:	d126      	bne.n	80022a0 <HAL_SUBGHZ_Init+0x94>
  {
    /* Reinitialize Radio peripheral only if SUBGHZ is in full RESET state */
    hsubghz->State = HAL_SUBGHZ_STATE_BUSY;
 8002252:	687b      	ldr	r3, [r7, #4]
 8002254:	2202      	movs	r2, #2
 8002256:	719a      	strb	r2, [r3, #6]

    /* De-asserts the reset signal of the Radio peripheral */
    LL_RCC_RF_DisableReset();
 8002258:	f7ff ffa2 	bl	80021a0 <LL_RCC_RF_DisableReset>

    /* Verify that Radio in reset status flag is set */
    count  = SUBGHZ_DEFAULT_TIMEOUT * SUBGHZ_DEFAULT_LOOP_TIME;
 800225c:	4b1c      	ldr	r3, [pc, #112]	@ (80022d0 <HAL_SUBGHZ_Init+0xc4>)
 800225e:	681a      	ldr	r2, [r3, #0]
 8002260:	4613      	mov	r3, r2
 8002262:	00db      	lsls	r3, r3, #3
 8002264:	1a9b      	subs	r3, r3, r2
 8002266:	009b      	lsls	r3, r3, #2
 8002268:	0cdb      	lsrs	r3, r3, #19
 800226a:	2264      	movs	r2, #100	@ 0x64
 800226c:	fb02 f303 	mul.w	r3, r2, r3
 8002270:	60bb      	str	r3, [r7, #8]

    do
    {
      if (count == 0U)
 8002272:	68bb      	ldr	r3, [r7, #8]
 8002274:	2b00      	cmp	r3, #0
 8002276:	d105      	bne.n	8002284 <HAL_SUBGHZ_Init+0x78>
      {
        status  = HAL_ERROR;
 8002278:	2301      	movs	r3, #1
 800227a:	73fb      	strb	r3, [r7, #15]
        hsubghz->ErrorCode = HAL_SUBGHZ_ERROR_TIMEOUT;
 800227c:	687b      	ldr	r3, [r7, #4]
 800227e:	2201      	movs	r2, #1
 8002280:	609a      	str	r2, [r3, #8]
        break;
 8002282:	e007      	b.n	8002294 <HAL_SUBGHZ_Init+0x88>
      }
      count--;
 8002284:	68bb      	ldr	r3, [r7, #8]
 8002286:	3b01      	subs	r3, #1
 8002288:	60bb      	str	r3, [r7, #8]
    } while (LL_RCC_IsRFUnderReset() != 0UL);
 800228a:	f7ff ff99 	bl	80021c0 <LL_RCC_IsRFUnderReset>
 800228e:	4603      	mov	r3, r0
 8002290:	2b00      	cmp	r3, #0
 8002292:	d1ee      	bne.n	8002272 <HAL_SUBGHZ_Init+0x66>

    /* Asserts the reset signal of the Radio peripheral */
    LL_PWR_UnselectSUBGHZSPI_NSS();
 8002294:	f7ff ff34 	bl	8002100 <LL_PWR_UnselectSUBGHZSPI_NSS>
#if defined(CORE_CM0PLUS)
    /* Enable wakeup signal of the Radio peripheral */
    LL_C2_PWR_SetRadioBusyTrigger(LL_PWR_RADIO_BUSY_TRIGGER_WU_IT);
#else
    /* Enable wakeup signal of the Radio peripheral */
    LL_PWR_SetRadioBusyTrigger(LL_PWR_RADIO_BUSY_TRIGGER_WU_IT);
 8002298:	f44f 6000 	mov.w	r0, #2048	@ 0x800
 800229c:	f7ff ff1c 	bl	80020d8 <LL_PWR_SetRadioBusyTrigger>
#endif /* CORE_CM0PLUS */
  }

  /* Clear Pending Flag */
  LL_PWR_ClearFlag_RFBUSY();
 80022a0:	f7ff ff4e 	bl	8002140 <LL_PWR_ClearFlag_RFBUSY>

  if (status == HAL_OK)
 80022a4:	7bfb      	ldrb	r3, [r7, #15]
 80022a6:	2b00      	cmp	r3, #0
 80022a8:	d10a      	bne.n	80022c0 <HAL_SUBGHZ_Init+0xb4>
  {
    /* Initialize SUBGHZSPI Peripheral */
    SUBGHZSPI_Init(hsubghz->Init.BaudratePrescaler);
 80022aa:	687b      	ldr	r3, [r7, #4]
 80022ac:	681b      	ldr	r3, [r3, #0]
 80022ae:	4618      	mov	r0, r3
 80022b0:	f000 fa2e 	bl	8002710 <SUBGHZSPI_Init>

    hsubghz->DeepSleep = SUBGHZ_DEEP_SLEEP_ENABLE;
 80022b4:	687b      	ldr	r3, [r7, #4]
 80022b6:	2201      	movs	r2, #1
 80022b8:	711a      	strb	r2, [r3, #4]
    hsubghz->ErrorCode = HAL_SUBGHZ_ERROR_NONE;
 80022ba:	687b      	ldr	r3, [r7, #4]
 80022bc:	2200      	movs	r2, #0
 80022be:	609a      	str	r2, [r3, #8]
  }

  hsubghz->State = HAL_SUBGHZ_STATE_READY;
 80022c0:	687b      	ldr	r3, [r7, #4]
 80022c2:	2201      	movs	r2, #1
 80022c4:	719a      	strb	r2, [r3, #6]

  return status;
 80022c6:	7bfb      	ldrb	r3, [r7, #15]
}
 80022c8:	4618      	mov	r0, r3
 80022ca:	3710      	adds	r7, #16
 80022cc:	46bd      	mov	sp, r7
 80022ce:	bd80      	pop	{r7, pc}
 80022d0:	20000000 	.word	0x20000000

080022d4 <HAL_SUBGHZ_WriteRegisters>:
  */
HAL_StatusTypeDef HAL_SUBGHZ_WriteRegisters(SUBGHZ_HandleTypeDef *hsubghz,
                                            uint16_t Address,
                                            uint8_t *pBuffer,
                                            uint16_t Size)
{
 80022d4:	b580      	push	{r7, lr}
 80022d6:	b086      	sub	sp, #24
 80022d8:	af00      	add	r7, sp, #0
 80022da:	60f8      	str	r0, [r7, #12]
 80022dc:	607a      	str	r2, [r7, #4]
 80022de:	461a      	mov	r2, r3
 80022e0:	460b      	mov	r3, r1
 80022e2:	817b      	strh	r3, [r7, #10]
 80022e4:	4613      	mov	r3, r2
 80022e6:	813b      	strh	r3, [r7, #8]
  HAL_StatusTypeDef status;

  if (hsubghz->State == HAL_SUBGHZ_STATE_READY)
 80022e8:	68fb      	ldr	r3, [r7, #12]
 80022ea:	799b      	ldrb	r3, [r3, #6]
 80022ec:	b2db      	uxtb	r3, r3
 80022ee:	2b01      	cmp	r3, #1
 80022f0:	d14a      	bne.n	8002388 <HAL_SUBGHZ_WriteRegisters+0xb4>
  {
    /* Process Locked */
    __HAL_LOCK(hsubghz);
 80022f2:	68fb      	ldr	r3, [r7, #12]
 80022f4:	795b      	ldrb	r3, [r3, #5]
 80022f6:	2b01      	cmp	r3, #1
 80022f8:	d101      	bne.n	80022fe <HAL_SUBGHZ_WriteRegisters+0x2a>
 80022fa:	2302      	movs	r3, #2
 80022fc:	e045      	b.n	800238a <HAL_SUBGHZ_WriteRegisters+0xb6>
 80022fe:	68fb      	ldr	r3, [r7, #12]
 8002300:	2201      	movs	r2, #1
 8002302:	715a      	strb	r2, [r3, #5]

    hsubghz->State = HAL_SUBGHZ_STATE_BUSY;
 8002304:	68fb      	ldr	r3, [r7, #12]
 8002306:	2202      	movs	r2, #2
 8002308:	719a      	strb	r2, [r3, #6]

    (void)SUBGHZ_CheckDeviceReady(hsubghz);
 800230a:	68f8      	ldr	r0, [r7, #12]
 800230c:	f000 face 	bl	80028ac <SUBGHZ_CheckDeviceReady>

    /* NSS = 0 */
    LL_PWR_SelectSUBGHZSPI_NSS();
 8002310:	f7ff ff06 	bl	8002120 <LL_PWR_SelectSUBGHZSPI_NSS>

    (void)SUBGHZSPI_Transmit(hsubghz, SUBGHZ_RADIO_WRITE_REGISTER);
 8002314:	210d      	movs	r1, #13
 8002316:	68f8      	ldr	r0, [r7, #12]
 8002318:	f000 fa1a 	bl	8002750 <SUBGHZSPI_Transmit>
    (void)SUBGHZSPI_Transmit(hsubghz, (uint8_t)((Address & 0xFF00U) >> 8U));
 800231c:	897b      	ldrh	r3, [r7, #10]
 800231e:	0a1b      	lsrs	r3, r3, #8
 8002320:	b29b      	uxth	r3, r3
 8002322:	b2db      	uxtb	r3, r3
 8002324:	4619      	mov	r1, r3
 8002326:	68f8      	ldr	r0, [r7, #12]
 8002328:	f000 fa12 	bl	8002750 <SUBGHZSPI_Transmit>
    (void)SUBGHZSPI_Transmit(hsubghz, (uint8_t)(Address & 0x00FFU));
 800232c:	897b      	ldrh	r3, [r7, #10]
 800232e:	b2db      	uxtb	r3, r3
 8002330:	4619      	mov	r1, r3
 8002332:	68f8      	ldr	r0, [r7, #12]
 8002334:	f000 fa0c 	bl	8002750 <SUBGHZSPI_Transmit>

    for (uint16_t i = 0U; i < Size; i++)
 8002338:	2300      	movs	r3, #0
 800233a:	82bb      	strh	r3, [r7, #20]
 800233c:	e00a      	b.n	8002354 <HAL_SUBGHZ_WriteRegisters+0x80>
    {
      (void)SUBGHZSPI_Transmit(hsubghz, pBuffer[i]);
 800233e:	8abb      	ldrh	r3, [r7, #20]
 8002340:	687a      	ldr	r2, [r7, #4]
 8002342:	4413      	add	r3, r2
 8002344:	781b      	ldrb	r3, [r3, #0]
 8002346:	4619      	mov	r1, r3
 8002348:	68f8      	ldr	r0, [r7, #12]
 800234a:	f000 fa01 	bl	8002750 <SUBGHZSPI_Transmit>
    for (uint16_t i = 0U; i < Size; i++)
 800234e:	8abb      	ldrh	r3, [r7, #20]
 8002350:	3301      	adds	r3, #1
 8002352:	82bb      	strh	r3, [r7, #20]
 8002354:	8aba      	ldrh	r2, [r7, #20]
 8002356:	893b      	ldrh	r3, [r7, #8]
 8002358:	429a      	cmp	r2, r3
 800235a:	d3f0      	bcc.n	800233e <HAL_SUBGHZ_WriteRegisters+0x6a>
    }

    /* NSS = 1 */
    LL_PWR_UnselectSUBGHZSPI_NSS();
 800235c:	f7ff fed0 	bl	8002100 <LL_PWR_UnselectSUBGHZSPI_NSS>

    (void)SUBGHZ_WaitOnBusy(hsubghz);
 8002360:	68f8      	ldr	r0, [r7, #12]
 8002362:	f000 fac7 	bl	80028f4 <SUBGHZ_WaitOnBusy>

    if (hsubghz->ErrorCode != HAL_SUBGHZ_ERROR_NONE)
 8002366:	68fb      	ldr	r3, [r7, #12]
 8002368:	689b      	ldr	r3, [r3, #8]
 800236a:	2b00      	cmp	r3, #0
 800236c:	d002      	beq.n	8002374 <HAL_SUBGHZ_WriteRegisters+0xa0>
    {
      status = HAL_ERROR;
 800236e:	2301      	movs	r3, #1
 8002370:	75fb      	strb	r3, [r7, #23]
 8002372:	e001      	b.n	8002378 <HAL_SUBGHZ_WriteRegisters+0xa4>
    }
    else
    {
      status = HAL_OK;
 8002374:	2300      	movs	r3, #0
 8002376:	75fb      	strb	r3, [r7, #23]
    }

    hsubghz->State = HAL_SUBGHZ_STATE_READY;
 8002378:	68fb      	ldr	r3, [r7, #12]
 800237a:	2201      	movs	r2, #1
 800237c:	719a      	strb	r2, [r3, #6]

    /* Process Unlocked */
    __HAL_UNLOCK(hsubghz);
 800237e:	68fb      	ldr	r3, [r7, #12]
 8002380:	2200      	movs	r2, #0
 8002382:	715a      	strb	r2, [r3, #5]

    return status;
 8002384:	7dfb      	ldrb	r3, [r7, #23]
 8002386:	e000      	b.n	800238a <HAL_SUBGHZ_WriteRegisters+0xb6>
  }
  else
  {
    return HAL_BUSY;
 8002388:	2302      	movs	r3, #2
  }
}
 800238a:	4618      	mov	r0, r3
 800238c:	3718      	adds	r7, #24
 800238e:	46bd      	mov	sp, r7
 8002390:	bd80      	pop	{r7, pc}

08002392 <HAL_SUBGHZ_ReadRegisters>:
  */
HAL_StatusTypeDef HAL_SUBGHZ_ReadRegisters(SUBGHZ_HandleTypeDef *hsubghz,
                                           uint16_t Address,
                                           uint8_t *pBuffer,
                                           uint16_t Size)
{
 8002392:	b580      	push	{r7, lr}
 8002394:	b088      	sub	sp, #32
 8002396:	af00      	add	r7, sp, #0
 8002398:	60f8      	str	r0, [r7, #12]
 800239a:	607a      	str	r2, [r7, #4]
 800239c:	461a      	mov	r2, r3
 800239e:	460b      	mov	r3, r1
 80023a0:	817b      	strh	r3, [r7, #10]
 80023a2:	4613      	mov	r3, r2
 80023a4:	813b      	strh	r3, [r7, #8]
  HAL_StatusTypeDef status;
  uint8_t *pData = pBuffer;
 80023a6:	687b      	ldr	r3, [r7, #4]
 80023a8:	61bb      	str	r3, [r7, #24]

  if (hsubghz->State == HAL_SUBGHZ_STATE_READY)
 80023aa:	68fb      	ldr	r3, [r7, #12]
 80023ac:	799b      	ldrb	r3, [r3, #6]
 80023ae:	b2db      	uxtb	r3, r3
 80023b0:	2b01      	cmp	r3, #1
 80023b2:	d14a      	bne.n	800244a <HAL_SUBGHZ_ReadRegisters+0xb8>
  {
    /* Process Locked */
    __HAL_LOCK(hsubghz);
 80023b4:	68fb      	ldr	r3, [r7, #12]
 80023b6:	795b      	ldrb	r3, [r3, #5]
 80023b8:	2b01      	cmp	r3, #1
 80023ba:	d101      	bne.n	80023c0 <HAL_SUBGHZ_ReadRegisters+0x2e>
 80023bc:	2302      	movs	r3, #2
 80023be:	e045      	b.n	800244c <HAL_SUBGHZ_ReadRegisters+0xba>
 80023c0:	68fb      	ldr	r3, [r7, #12]
 80023c2:	2201      	movs	r2, #1
 80023c4:	715a      	strb	r2, [r3, #5]

    (void)SUBGHZ_CheckDeviceReady(hsubghz);
 80023c6:	68f8      	ldr	r0, [r7, #12]
 80023c8:	f000 fa70 	bl	80028ac <SUBGHZ_CheckDeviceReady>

    /* NSS = 0 */
    LL_PWR_SelectSUBGHZSPI_NSS();
 80023cc:	f7ff fea8 	bl	8002120 <LL_PWR_SelectSUBGHZSPI_NSS>

    (void)SUBGHZSPI_Transmit(hsubghz, SUBGHZ_RADIO_READ_REGISTER);
 80023d0:	211d      	movs	r1, #29
 80023d2:	68f8      	ldr	r0, [r7, #12]
 80023d4:	f000 f9bc 	bl	8002750 <SUBGHZSPI_Transmit>
    (void)SUBGHZSPI_Transmit(hsubghz, (uint8_t)((Address & 0xFF00U) >> 8U));
 80023d8:	897b      	ldrh	r3, [r7, #10]
 80023da:	0a1b      	lsrs	r3, r3, #8
 80023dc:	b29b      	uxth	r3, r3
 80023de:	b2db      	uxtb	r3, r3
 80023e0:	4619      	mov	r1, r3
 80023e2:	68f8      	ldr	r0, [r7, #12]
 80023e4:	f000 f9b4 	bl	8002750 <SUBGHZSPI_Transmit>
    (void)SUBGHZSPI_Transmit(hsubghz, (uint8_t)(Address & 0x00FFU));
 80023e8:	897b      	ldrh	r3, [r7, #10]
 80023ea:	b2db      	uxtb	r3, r3
 80023ec:	4619      	mov	r1, r3
 80023ee:	68f8      	ldr	r0, [r7, #12]
 80023f0:	f000 f9ae 	bl	8002750 <SUBGHZSPI_Transmit>
    (void)SUBGHZSPI_Transmit(hsubghz, 0U);
 80023f4:	2100      	movs	r1, #0
 80023f6:	68f8      	ldr	r0, [r7, #12]
 80023f8:	f000 f9aa 	bl	8002750 <SUBGHZSPI_Transmit>

    for (uint16_t i = 0U; i < Size; i++)
 80023fc:	2300      	movs	r3, #0
 80023fe:	82fb      	strh	r3, [r7, #22]
 8002400:	e009      	b.n	8002416 <HAL_SUBGHZ_ReadRegisters+0x84>
    {
      (void)SUBGHZSPI_Receive(hsubghz, (pData));
 8002402:	69b9      	ldr	r1, [r7, #24]
 8002404:	68f8      	ldr	r0, [r7, #12]
 8002406:	f000 f9f9 	bl	80027fc <SUBGHZSPI_Receive>
      pData++;
 800240a:	69bb      	ldr	r3, [r7, #24]
 800240c:	3301      	adds	r3, #1
 800240e:	61bb      	str	r3, [r7, #24]
    for (uint16_t i = 0U; i < Size; i++)
 8002410:	8afb      	ldrh	r3, [r7, #22]
 8002412:	3301      	adds	r3, #1
 8002414:	82fb      	strh	r3, [r7, #22]
 8002416:	8afa      	ldrh	r2, [r7, #22]
 8002418:	893b      	ldrh	r3, [r7, #8]
 800241a:	429a      	cmp	r2, r3
 800241c:	d3f1      	bcc.n	8002402 <HAL_SUBGHZ_ReadRegisters+0x70>
    }

    /* NSS = 1 */
    LL_PWR_UnselectSUBGHZSPI_NSS();
 800241e:	f7ff fe6f 	bl	8002100 <LL_PWR_UnselectSUBGHZSPI_NSS>

    (void)SUBGHZ_WaitOnBusy(hsubghz);
 8002422:	68f8      	ldr	r0, [r7, #12]
 8002424:	f000 fa66 	bl	80028f4 <SUBGHZ_WaitOnBusy>

    if (hsubghz->ErrorCode != HAL_SUBGHZ_ERROR_NONE)
 8002428:	68fb      	ldr	r3, [r7, #12]
 800242a:	689b      	ldr	r3, [r3, #8]
 800242c:	2b00      	cmp	r3, #0
 800242e:	d002      	beq.n	8002436 <HAL_SUBGHZ_ReadRegisters+0xa4>
    {
      status = HAL_ERROR;
 8002430:	2301      	movs	r3, #1
 8002432:	77fb      	strb	r3, [r7, #31]
 8002434:	e001      	b.n	800243a <HAL_SUBGHZ_ReadRegisters+0xa8>
    }
    else
    {
      status = HAL_OK;
 8002436:	2300      	movs	r3, #0
 8002438:	77fb      	strb	r3, [r7, #31]
    }

    hsubghz->State = HAL_SUBGHZ_STATE_READY;
 800243a:	68fb      	ldr	r3, [r7, #12]
 800243c:	2201      	movs	r2, #1
 800243e:	719a      	strb	r2, [r3, #6]

    /* Process Unlocked */
    __HAL_UNLOCK(hsubghz);
 8002440:	68fb      	ldr	r3, [r7, #12]
 8002442:	2200      	movs	r2, #0
 8002444:	715a      	strb	r2, [r3, #5]

    return status;
 8002446:	7ffb      	ldrb	r3, [r7, #31]
 8002448:	e000      	b.n	800244c <HAL_SUBGHZ_ReadRegisters+0xba>
  }
  else
  {
    return HAL_BUSY;
 800244a:	2302      	movs	r3, #2
  }
}
 800244c:	4618      	mov	r0, r3
 800244e:	3720      	adds	r7, #32
 8002450:	46bd      	mov	sp, r7
 8002452:	bd80      	pop	{r7, pc}

08002454 <HAL_SUBGHZ_ExecSetCmd>:
  */
HAL_StatusTypeDef HAL_SUBGHZ_ExecSetCmd(SUBGHZ_HandleTypeDef *hsubghz,
                                        SUBGHZ_RadioSetCmd_t Command,
                                        uint8_t *pBuffer,
                                        uint16_t Size)
{
 8002454:	b580      	push	{r7, lr}
 8002456:	b086      	sub	sp, #24
 8002458:	af00      	add	r7, sp, #0
 800245a:	60f8      	str	r0, [r7, #12]
 800245c:	607a      	str	r2, [r7, #4]
 800245e:	461a      	mov	r2, r3
 8002460:	460b      	mov	r3, r1
 8002462:	72fb      	strb	r3, [r7, #11]
 8002464:	4613      	mov	r3, r2
 8002466:	813b      	strh	r3, [r7, #8]
  HAL_StatusTypeDef status;

  /* LORA Modulation not available on STM32WLx4xx devices */
  assert_param(IS_SUBGHZ_MODULATION_SUPPORTED(Command, pBuffer[0U]));

  if (hsubghz->State == HAL_SUBGHZ_STATE_READY)
 8002468:	68fb      	ldr	r3, [r7, #12]
 800246a:	799b      	ldrb	r3, [r3, #6]
 800246c:	b2db      	uxtb	r3, r3
 800246e:	2b01      	cmp	r3, #1
 8002470:	d14a      	bne.n	8002508 <HAL_SUBGHZ_ExecSetCmd+0xb4>
  {
    /* Process Locked */
    __HAL_LOCK(hsubghz);
 8002472:	68fb      	ldr	r3, [r7, #12]
 8002474:	795b      	ldrb	r3, [r3, #5]
 8002476:	2b01      	cmp	r3, #1
 8002478:	d101      	bne.n	800247e <HAL_SUBGHZ_ExecSetCmd+0x2a>
 800247a:	2302      	movs	r3, #2
 800247c:	e045      	b.n	800250a <HAL_SUBGHZ_ExecSetCmd+0xb6>
 800247e:	68fb      	ldr	r3, [r7, #12]
 8002480:	2201      	movs	r2, #1
 8002482:	715a      	strb	r2, [r3, #5]

    /* Need to wakeup Radio if already in Sleep at startup */
    (void)SUBGHZ_CheckDeviceReady(hsubghz);
 8002484:	68f8      	ldr	r0, [r7, #12]
 8002486:	f000 fa11 	bl	80028ac <SUBGHZ_CheckDeviceReady>

    if ((Command == RADIO_SET_SLEEP) || (Command == RADIO_SET_RXDUTYCYCLE))
 800248a:	7afb      	ldrb	r3, [r7, #11]
 800248c:	2b84      	cmp	r3, #132	@ 0x84
 800248e:	d002      	beq.n	8002496 <HAL_SUBGHZ_ExecSetCmd+0x42>
 8002490:	7afb      	ldrb	r3, [r7, #11]
 8002492:	2b94      	cmp	r3, #148	@ 0x94
 8002494:	d103      	bne.n	800249e <HAL_SUBGHZ_ExecSetCmd+0x4a>
    {
      hsubghz->DeepSleep = SUBGHZ_DEEP_SLEEP_ENABLE;
 8002496:	68fb      	ldr	r3, [r7, #12]
 8002498:	2201      	movs	r2, #1
 800249a:	711a      	strb	r2, [r3, #4]
 800249c:	e002      	b.n	80024a4 <HAL_SUBGHZ_ExecSetCmd+0x50>
    }
    else
    {
      hsubghz->DeepSleep = SUBGHZ_DEEP_SLEEP_DISABLE;
 800249e:	68fb      	ldr	r3, [r7, #12]
 80024a0:	2200      	movs	r2, #0
 80024a2:	711a      	strb	r2, [r3, #4]
    }

    /* NSS = 0 */
    LL_PWR_SelectSUBGHZSPI_NSS();
 80024a4:	f7ff fe3c 	bl	8002120 <LL_PWR_SelectSUBGHZSPI_NSS>

    (void)SUBGHZSPI_Transmit(hsubghz, (uint8_t)Command);
 80024a8:	7afb      	ldrb	r3, [r7, #11]
 80024aa:	4619      	mov	r1, r3
 80024ac:	68f8      	ldr	r0, [r7, #12]
 80024ae:	f000 f94f 	bl	8002750 <SUBGHZSPI_Transmit>

    for (uint16_t i = 0U; i < Size; i++)
 80024b2:	2300      	movs	r3, #0
 80024b4:	82bb      	strh	r3, [r7, #20]
 80024b6:	e00a      	b.n	80024ce <HAL_SUBGHZ_ExecSetCmd+0x7a>
    {
      (void)SUBGHZSPI_Transmit(hsubghz, pBuffer[i]);
 80024b8:	8abb      	ldrh	r3, [r7, #20]
 80024ba:	687a      	ldr	r2, [r7, #4]
 80024bc:	4413      	add	r3, r2
 80024be:	781b      	ldrb	r3, [r3, #0]
 80024c0:	4619      	mov	r1, r3
 80024c2:	68f8      	ldr	r0, [r7, #12]
 80024c4:	f000 f944 	bl	8002750 <SUBGHZSPI_Transmit>
    for (uint16_t i = 0U; i < Size; i++)
 80024c8:	8abb      	ldrh	r3, [r7, #20]
 80024ca:	3301      	adds	r3, #1
 80024cc:	82bb      	strh	r3, [r7, #20]
 80024ce:	8aba      	ldrh	r2, [r7, #20]
 80024d0:	893b      	ldrh	r3, [r7, #8]
 80024d2:	429a      	cmp	r2, r3
 80024d4:	d3f0      	bcc.n	80024b8 <HAL_SUBGHZ_ExecSetCmd+0x64>
    }

    /* NSS = 1 */
    LL_PWR_UnselectSUBGHZSPI_NSS();
 80024d6:	f7ff fe13 	bl	8002100 <LL_PWR_UnselectSUBGHZSPI_NSS>

    if (Command != RADIO_SET_SLEEP)
 80024da:	7afb      	ldrb	r3, [r7, #11]
 80024dc:	2b84      	cmp	r3, #132	@ 0x84
 80024de:	d002      	beq.n	80024e6 <HAL_SUBGHZ_ExecSetCmd+0x92>
    {
      (void)SUBGHZ_WaitOnBusy(hsubghz);
 80024e0:	68f8      	ldr	r0, [r7, #12]
 80024e2:	f000 fa07 	bl	80028f4 <SUBGHZ_WaitOnBusy>
    }

    if (hsubghz->ErrorCode != HAL_SUBGHZ_ERROR_NONE)
 80024e6:	68fb      	ldr	r3, [r7, #12]
 80024e8:	689b      	ldr	r3, [r3, #8]
 80024ea:	2b00      	cmp	r3, #0
 80024ec:	d002      	beq.n	80024f4 <HAL_SUBGHZ_ExecSetCmd+0xa0>
    {
      status = HAL_ERROR;
 80024ee:	2301      	movs	r3, #1
 80024f0:	75fb      	strb	r3, [r7, #23]
 80024f2:	e001      	b.n	80024f8 <HAL_SUBGHZ_ExecSetCmd+0xa4>
    }
    else
    {
      status = HAL_OK;
 80024f4:	2300      	movs	r3, #0
 80024f6:	75fb      	strb	r3, [r7, #23]
    }

    hsubghz->State = HAL_SUBGHZ_STATE_READY;
 80024f8:	68fb      	ldr	r3, [r7, #12]
 80024fa:	2201      	movs	r2, #1
 80024fc:	719a      	strb	r2, [r3, #6]

    /* Process Unlocked */
    __HAL_UNLOCK(hsubghz);
 80024fe:	68fb      	ldr	r3, [r7, #12]
 8002500:	2200      	movs	r2, #0
 8002502:	715a      	strb	r2, [r3, #5]

    return status;
 8002504:	7dfb      	ldrb	r3, [r7, #23]
 8002506:	e000      	b.n	800250a <HAL_SUBGHZ_ExecSetCmd+0xb6>
  }
  else
  {
    return HAL_BUSY;
 8002508:	2302      	movs	r3, #2
  }
}
 800250a:	4618      	mov	r0, r3
 800250c:	3718      	adds	r7, #24
 800250e:	46bd      	mov	sp, r7
 8002510:	bd80      	pop	{r7, pc}

08002512 <HAL_SUBGHZ_ExecGetCmd>:
  */
HAL_StatusTypeDef HAL_SUBGHZ_ExecGetCmd(SUBGHZ_HandleTypeDef *hsubghz,
                                        SUBGHZ_RadioGetCmd_t Command,
                                        uint8_t *pBuffer,
                                        uint16_t Size)
{
 8002512:	b580      	push	{r7, lr}
 8002514:	b088      	sub	sp, #32
 8002516:	af00      	add	r7, sp, #0
 8002518:	60f8      	str	r0, [r7, #12]
 800251a:	607a      	str	r2, [r7, #4]
 800251c:	461a      	mov	r2, r3
 800251e:	460b      	mov	r3, r1
 8002520:	72fb      	strb	r3, [r7, #11]
 8002522:	4613      	mov	r3, r2
 8002524:	813b      	strh	r3, [r7, #8]
  HAL_StatusTypeDef status;
  uint8_t *pData = pBuffer;
 8002526:	687b      	ldr	r3, [r7, #4]
 8002528:	61bb      	str	r3, [r7, #24]

  if (hsubghz->State == HAL_SUBGHZ_STATE_READY)
 800252a:	68fb      	ldr	r3, [r7, #12]
 800252c:	799b      	ldrb	r3, [r3, #6]
 800252e:	b2db      	uxtb	r3, r3
 8002530:	2b01      	cmp	r3, #1
 8002532:	d13d      	bne.n	80025b0 <HAL_SUBGHZ_ExecGetCmd+0x9e>
  {
    /* Process Locked */
    __HAL_LOCK(hsubghz);
 8002534:	68fb      	ldr	r3, [r7, #12]
 8002536:	795b      	ldrb	r3, [r3, #5]
 8002538:	2b01      	cmp	r3, #1
 800253a:	d101      	bne.n	8002540 <HAL_SUBGHZ_ExecGetCmd+0x2e>
 800253c:	2302      	movs	r3, #2
 800253e:	e038      	b.n	80025b2 <HAL_SUBGHZ_ExecGetCmd+0xa0>
 8002540:	68fb      	ldr	r3, [r7, #12]
 8002542:	2201      	movs	r2, #1
 8002544:	715a      	strb	r2, [r3, #5]

    (void)SUBGHZ_CheckDeviceReady(hsubghz);
 8002546:	68f8      	ldr	r0, [r7, #12]
 8002548:	f000 f9b0 	bl	80028ac <SUBGHZ_CheckDeviceReady>

    /* NSS = 0 */
    LL_PWR_SelectSUBGHZSPI_NSS();
 800254c:	f7ff fde8 	bl	8002120 <LL_PWR_SelectSUBGHZSPI_NSS>

    (void)SUBGHZSPI_Transmit(hsubghz, (uint8_t)Command);
 8002550:	7afb      	ldrb	r3, [r7, #11]
 8002552:	4619      	mov	r1, r3
 8002554:	68f8      	ldr	r0, [r7, #12]
 8002556:	f000 f8fb 	bl	8002750 <SUBGHZSPI_Transmit>

    /* Use to flush the Status (First byte) receive from SUBGHZ as not use */
    (void)SUBGHZSPI_Transmit(hsubghz, 0x00U);
 800255a:	2100      	movs	r1, #0
 800255c:	68f8      	ldr	r0, [r7, #12]
 800255e:	f000 f8f7 	bl	8002750 <SUBGHZSPI_Transmit>

    for (uint16_t i = 0U; i < Size; i++)
 8002562:	2300      	movs	r3, #0
 8002564:	82fb      	strh	r3, [r7, #22]
 8002566:	e009      	b.n	800257c <HAL_SUBGHZ_ExecGetCmd+0x6a>
    {
      (void)SUBGHZSPI_Receive(hsubghz, (pData));
 8002568:	69b9      	ldr	r1, [r7, #24]
 800256a:	68f8      	ldr	r0, [r7, #12]
 800256c:	f000 f946 	bl	80027fc <SUBGHZSPI_Receive>
      pData++;
 8002570:	69bb      	ldr	r3, [r7, #24]
 8002572:	3301      	adds	r3, #1
 8002574:	61bb      	str	r3, [r7, #24]
    for (uint16_t i = 0U; i < Size; i++)
 8002576:	8afb      	ldrh	r3, [r7, #22]
 8002578:	3301      	adds	r3, #1
 800257a:	82fb      	strh	r3, [r7, #22]
 800257c:	8afa      	ldrh	r2, [r7, #22]
 800257e:	893b      	ldrh	r3, [r7, #8]
 8002580:	429a      	cmp	r2, r3
 8002582:	d3f1      	bcc.n	8002568 <HAL_SUBGHZ_ExecGetCmd+0x56>
    }

    /* NSS = 1 */
    LL_PWR_UnselectSUBGHZSPI_NSS();
 8002584:	f7ff fdbc 	bl	8002100 <LL_PWR_UnselectSUBGHZSPI_NSS>

    (void)SUBGHZ_WaitOnBusy(hsubghz);
 8002588:	68f8      	ldr	r0, [r7, #12]
 800258a:	f000 f9b3 	bl	80028f4 <SUBGHZ_WaitOnBusy>

    if (hsubghz->ErrorCode != HAL_SUBGHZ_ERROR_NONE)
 800258e:	68fb      	ldr	r3, [r7, #12]
 8002590:	689b      	ldr	r3, [r3, #8]
 8002592:	2b00      	cmp	r3, #0
 8002594:	d002      	beq.n	800259c <HAL_SUBGHZ_ExecGetCmd+0x8a>
    {
      status = HAL_ERROR;
 8002596:	2301      	movs	r3, #1
 8002598:	77fb      	strb	r3, [r7, #31]
 800259a:	e001      	b.n	80025a0 <HAL_SUBGHZ_ExecGetCmd+0x8e>
    }
    else
    {
      status = HAL_OK;
 800259c:	2300      	movs	r3, #0
 800259e:	77fb      	strb	r3, [r7, #31]
    }

    hsubghz->State = HAL_SUBGHZ_STATE_READY;
 80025a0:	68fb      	ldr	r3, [r7, #12]
 80025a2:	2201      	movs	r2, #1
 80025a4:	719a      	strb	r2, [r3, #6]

    /* Process Unlocked */
    __HAL_UNLOCK(hsubghz);
 80025a6:	68fb      	ldr	r3, [r7, #12]
 80025a8:	2200      	movs	r2, #0
 80025aa:	715a      	strb	r2, [r3, #5]

    return status;
 80025ac:	7ffb      	ldrb	r3, [r7, #31]
 80025ae:	e000      	b.n	80025b2 <HAL_SUBGHZ_ExecGetCmd+0xa0>
  }
  else
  {
    return HAL_BUSY;
 80025b0:	2302      	movs	r3, #2
  }
}
 80025b2:	4618      	mov	r0, r3
 80025b4:	3720      	adds	r7, #32
 80025b6:	46bd      	mov	sp, r7
 80025b8:	bd80      	pop	{r7, pc}

080025ba <HAL_SUBGHZ_WriteBuffer>:
  */
HAL_StatusTypeDef HAL_SUBGHZ_WriteBuffer(SUBGHZ_HandleTypeDef *hsubghz,
                                         uint8_t Offset,
                                         uint8_t *pBuffer,
                                         uint16_t Size)
{
 80025ba:	b580      	push	{r7, lr}
 80025bc:	b086      	sub	sp, #24
 80025be:	af00      	add	r7, sp, #0
 80025c0:	60f8      	str	r0, [r7, #12]
 80025c2:	607a      	str	r2, [r7, #4]
 80025c4:	461a      	mov	r2, r3
 80025c6:	460b      	mov	r3, r1
 80025c8:	72fb      	strb	r3, [r7, #11]
 80025ca:	4613      	mov	r3, r2
 80025cc:	813b      	strh	r3, [r7, #8]
  HAL_StatusTypeDef status;

  if (hsubghz->State == HAL_SUBGHZ_STATE_READY)
 80025ce:	68fb      	ldr	r3, [r7, #12]
 80025d0:	799b      	ldrb	r3, [r3, #6]
 80025d2:	b2db      	uxtb	r3, r3
 80025d4:	2b01      	cmp	r3, #1
 80025d6:	d13e      	bne.n	8002656 <HAL_SUBGHZ_WriteBuffer+0x9c>
  {
    /* Process Locked */
    __HAL_LOCK(hsubghz);
 80025d8:	68fb      	ldr	r3, [r7, #12]
 80025da:	795b      	ldrb	r3, [r3, #5]
 80025dc:	2b01      	cmp	r3, #1
 80025de:	d101      	bne.n	80025e4 <HAL_SUBGHZ_WriteBuffer+0x2a>
 80025e0:	2302      	movs	r3, #2
 80025e2:	e039      	b.n	8002658 <HAL_SUBGHZ_WriteBuffer+0x9e>
 80025e4:	68fb      	ldr	r3, [r7, #12]
 80025e6:	2201      	movs	r2, #1
 80025e8:	715a      	strb	r2, [r3, #5]

    (void)SUBGHZ_CheckDeviceReady(hsubghz);
 80025ea:	68f8      	ldr	r0, [r7, #12]
 80025ec:	f000 f95e 	bl	80028ac <SUBGHZ_CheckDeviceReady>

    /* NSS = 0 */
    LL_PWR_SelectSUBGHZSPI_NSS();
 80025f0:	f7ff fd96 	bl	8002120 <LL_PWR_SelectSUBGHZSPI_NSS>

    (void)SUBGHZSPI_Transmit(hsubghz, SUBGHZ_RADIO_WRITE_BUFFER);
 80025f4:	210e      	movs	r1, #14
 80025f6:	68f8      	ldr	r0, [r7, #12]
 80025f8:	f000 f8aa 	bl	8002750 <SUBGHZSPI_Transmit>
    (void)SUBGHZSPI_Transmit(hsubghz, Offset);
 80025fc:	7afb      	ldrb	r3, [r7, #11]
 80025fe:	4619      	mov	r1, r3
 8002600:	68f8      	ldr	r0, [r7, #12]
 8002602:	f000 f8a5 	bl	8002750 <SUBGHZSPI_Transmit>

    for (uint16_t i = 0U; i < Size; i++)
 8002606:	2300      	movs	r3, #0
 8002608:	82bb      	strh	r3, [r7, #20]
 800260a:	e00a      	b.n	8002622 <HAL_SUBGHZ_WriteBuffer+0x68>
    {
      (void)SUBGHZSPI_Transmit(hsubghz, pBuffer[i]);
 800260c:	8abb      	ldrh	r3, [r7, #20]
 800260e:	687a      	ldr	r2, [r7, #4]
 8002610:	4413      	add	r3, r2
 8002612:	781b      	ldrb	r3, [r3, #0]
 8002614:	4619      	mov	r1, r3
 8002616:	68f8      	ldr	r0, [r7, #12]
 8002618:	f000 f89a 	bl	8002750 <SUBGHZSPI_Transmit>
    for (uint16_t i = 0U; i < Size; i++)
 800261c:	8abb      	ldrh	r3, [r7, #20]
 800261e:	3301      	adds	r3, #1
 8002620:	82bb      	strh	r3, [r7, #20]
 8002622:	8aba      	ldrh	r2, [r7, #20]
 8002624:	893b      	ldrh	r3, [r7, #8]
 8002626:	429a      	cmp	r2, r3
 8002628:	d3f0      	bcc.n	800260c <HAL_SUBGHZ_WriteBuffer+0x52>
    }
    /* NSS = 1 */
    LL_PWR_UnselectSUBGHZSPI_NSS();
 800262a:	f7ff fd69 	bl	8002100 <LL_PWR_UnselectSUBGHZSPI_NSS>

    (void)SUBGHZ_WaitOnBusy(hsubghz);
 800262e:	68f8      	ldr	r0, [r7, #12]
 8002630:	f000 f960 	bl	80028f4 <SUBGHZ_WaitOnBusy>

    if (hsubghz->ErrorCode != HAL_SUBGHZ_ERROR_NONE)
 8002634:	68fb      	ldr	r3, [r7, #12]
 8002636:	689b      	ldr	r3, [r3, #8]
 8002638:	2b00      	cmp	r3, #0
 800263a:	d002      	beq.n	8002642 <HAL_SUBGHZ_WriteBuffer+0x88>
    {
      status = HAL_ERROR;
 800263c:	2301      	movs	r3, #1
 800263e:	75fb      	strb	r3, [r7, #23]
 8002640:	e001      	b.n	8002646 <HAL_SUBGHZ_WriteBuffer+0x8c>
    }
    else
    {
      status = HAL_OK;
 8002642:	2300      	movs	r3, #0
 8002644:	75fb      	strb	r3, [r7, #23]
    }

    hsubghz->State = HAL_SUBGHZ_STATE_READY;
 8002646:	68fb      	ldr	r3, [r7, #12]
 8002648:	2201      	movs	r2, #1
 800264a:	719a      	strb	r2, [r3, #6]

    /* Process Unlocked */
    __HAL_UNLOCK(hsubghz);
 800264c:	68fb      	ldr	r3, [r7, #12]
 800264e:	2200      	movs	r2, #0
 8002650:	715a      	strb	r2, [r3, #5]

    return status;
 8002652:	7dfb      	ldrb	r3, [r7, #23]
 8002654:	e000      	b.n	8002658 <HAL_SUBGHZ_WriteBuffer+0x9e>
  }
  else
  {
    return HAL_BUSY;
 8002656:	2302      	movs	r3, #2
  }
}
 8002658:	4618      	mov	r0, r3
 800265a:	3718      	adds	r7, #24
 800265c:	46bd      	mov	sp, r7
 800265e:	bd80      	pop	{r7, pc}

08002660 <HAL_SUBGHZ_ReadBuffer>:
  */
HAL_StatusTypeDef HAL_SUBGHZ_ReadBuffer(SUBGHZ_HandleTypeDef *hsubghz,
                                        uint8_t Offset,
                                        uint8_t *pBuffer,
                                        uint16_t Size)
{
 8002660:	b580      	push	{r7, lr}
 8002662:	b088      	sub	sp, #32
 8002664:	af00      	add	r7, sp, #0
 8002666:	60f8      	str	r0, [r7, #12]
 8002668:	607a      	str	r2, [r7, #4]
 800266a:	461a      	mov	r2, r3
 800266c:	460b      	mov	r3, r1
 800266e:	72fb      	strb	r3, [r7, #11]
 8002670:	4613      	mov	r3, r2
 8002672:	813b      	strh	r3, [r7, #8]
  HAL_StatusTypeDef status;
  uint8_t *pData = pBuffer;
 8002674:	687b      	ldr	r3, [r7, #4]
 8002676:	61bb      	str	r3, [r7, #24]

  if (hsubghz->State == HAL_SUBGHZ_STATE_READY)
 8002678:	68fb      	ldr	r3, [r7, #12]
 800267a:	799b      	ldrb	r3, [r3, #6]
 800267c:	b2db      	uxtb	r3, r3
 800267e:	2b01      	cmp	r3, #1
 8002680:	d141      	bne.n	8002706 <HAL_SUBGHZ_ReadBuffer+0xa6>
  {
    /* Process Locked */
    __HAL_LOCK(hsubghz);
 8002682:	68fb      	ldr	r3, [r7, #12]
 8002684:	795b      	ldrb	r3, [r3, #5]
 8002686:	2b01      	cmp	r3, #1
 8002688:	d101      	bne.n	800268e <HAL_SUBGHZ_ReadBuffer+0x2e>
 800268a:	2302      	movs	r3, #2
 800268c:	e03c      	b.n	8002708 <HAL_SUBGHZ_ReadBuffer+0xa8>
 800268e:	68fb      	ldr	r3, [r7, #12]
 8002690:	2201      	movs	r2, #1
 8002692:	715a      	strb	r2, [r3, #5]

    (void)SUBGHZ_CheckDeviceReady(hsubghz);
 8002694:	68f8      	ldr	r0, [r7, #12]
 8002696:	f000 f909 	bl	80028ac <SUBGHZ_CheckDeviceReady>

    /* NSS = 0 */
    LL_PWR_SelectSUBGHZSPI_NSS();
 800269a:	f7ff fd41 	bl	8002120 <LL_PWR_SelectSUBGHZSPI_NSS>

    (void)SUBGHZSPI_Transmit(hsubghz, SUBGHZ_RADIO_READ_BUFFER);
 800269e:	211e      	movs	r1, #30
 80026a0:	68f8      	ldr	r0, [r7, #12]
 80026a2:	f000 f855 	bl	8002750 <SUBGHZSPI_Transmit>
    (void)SUBGHZSPI_Transmit(hsubghz, Offset);
 80026a6:	7afb      	ldrb	r3, [r7, #11]
 80026a8:	4619      	mov	r1, r3
 80026aa:	68f8      	ldr	r0, [r7, #12]
 80026ac:	f000 f850 	bl	8002750 <SUBGHZSPI_Transmit>
    (void)SUBGHZSPI_Transmit(hsubghz, 0x00U);
 80026b0:	2100      	movs	r1, #0
 80026b2:	68f8      	ldr	r0, [r7, #12]
 80026b4:	f000 f84c 	bl	8002750 <SUBGHZSPI_Transmit>

    for (uint16_t i = 0U; i < Size; i++)
 80026b8:	2300      	movs	r3, #0
 80026ba:	82fb      	strh	r3, [r7, #22]
 80026bc:	e009      	b.n	80026d2 <HAL_SUBGHZ_ReadBuffer+0x72>
    {
      (void)SUBGHZSPI_Receive(hsubghz, (pData));
 80026be:	69b9      	ldr	r1, [r7, #24]
 80026c0:	68f8      	ldr	r0, [r7, #12]
 80026c2:	f000 f89b 	bl	80027fc <SUBGHZSPI_Receive>
      pData++;
 80026c6:	69bb      	ldr	r3, [r7, #24]
 80026c8:	3301      	adds	r3, #1
 80026ca:	61bb      	str	r3, [r7, #24]
    for (uint16_t i = 0U; i < Size; i++)
 80026cc:	8afb      	ldrh	r3, [r7, #22]
 80026ce:	3301      	adds	r3, #1
 80026d0:	82fb      	strh	r3, [r7, #22]
 80026d2:	8afa      	ldrh	r2, [r7, #22]
 80026d4:	893b      	ldrh	r3, [r7, #8]
 80026d6:	429a      	cmp	r2, r3
 80026d8:	d3f1      	bcc.n	80026be <HAL_SUBGHZ_ReadBuffer+0x5e>
    }

    /* NSS = 1 */
    LL_PWR_UnselectSUBGHZSPI_NSS();
 80026da:	f7ff fd11 	bl	8002100 <LL_PWR_UnselectSUBGHZSPI_NSS>

    (void)SUBGHZ_WaitOnBusy(hsubghz);
 80026de:	68f8      	ldr	r0, [r7, #12]
 80026e0:	f000 f908 	bl	80028f4 <SUBGHZ_WaitOnBusy>

    if (hsubghz->ErrorCode != HAL_SUBGHZ_ERROR_NONE)
 80026e4:	68fb      	ldr	r3, [r7, #12]
 80026e6:	689b      	ldr	r3, [r3, #8]
 80026e8:	2b00      	cmp	r3, #0
 80026ea:	d002      	beq.n	80026f2 <HAL_SUBGHZ_ReadBuffer+0x92>
    {
      status = HAL_ERROR;
 80026ec:	2301      	movs	r3, #1
 80026ee:	77fb      	strb	r3, [r7, #31]
 80026f0:	e001      	b.n	80026f6 <HAL_SUBGHZ_ReadBuffer+0x96>
    }
    else
    {
      status = HAL_OK;
 80026f2:	2300      	movs	r3, #0
 80026f4:	77fb      	strb	r3, [r7, #31]
    }

    hsubghz->State = HAL_SUBGHZ_STATE_READY;
 80026f6:	68fb      	ldr	r3, [r7, #12]
 80026f8:	2201      	movs	r2, #1
 80026fa:	719a      	strb	r2, [r3, #6]

    /* Process Unlocked */
    __HAL_UNLOCK(hsubghz);
 80026fc:	68fb      	ldr	r3, [r7, #12]
 80026fe:	2200      	movs	r2, #0
 8002700:	715a      	strb	r2, [r3, #5]

    return status;
 8002702:	7ffb      	ldrb	r3, [r7, #31]
 8002704:	e000      	b.n	8002708 <HAL_SUBGHZ_ReadBuffer+0xa8>
  }
  else
  {
    return HAL_BUSY;
 8002706:	2302      	movs	r3, #2
  }
}
 8002708:	4618      	mov	r0, r3
 800270a:	3720      	adds	r7, #32
 800270c:	46bd      	mov	sp, r7
 800270e:	bd80      	pop	{r7, pc}

08002710 <SUBGHZSPI_Init>:
  * @brief  Initializes the SUBGHZSPI peripheral
  * @param  BaudratePrescaler SPI Baudrate prescaler
  * @retval None
  */
void SUBGHZSPI_Init(uint32_t BaudratePrescaler)
{
 8002710:	b480      	push	{r7}
 8002712:	b083      	sub	sp, #12
 8002714:	af00      	add	r7, sp, #0
 8002716:	6078      	str	r0, [r7, #4]
  /* Check the parameters */
  assert_param(IS_SUBGHZ_ALL_INSTANCE(SUBGHZSPI));

  /* Disable SUBGHZSPI Peripheral */
  CLEAR_BIT(SUBGHZSPI->CR1, SPI_CR1_SPE);
 8002718:	4b0c      	ldr	r3, [pc, #48]	@ (800274c <SUBGHZSPI_Init+0x3c>)
 800271a:	681b      	ldr	r3, [r3, #0]
 800271c:	4a0b      	ldr	r2, [pc, #44]	@ (800274c <SUBGHZSPI_Init+0x3c>)
 800271e:	f023 0340 	bic.w	r3, r3, #64	@ 0x40
 8002722:	6013      	str	r3, [r2, #0]
   *       NSS management: Internal (Done with External bit inside PWR        *
   *  Communication speed: BaudratePrescaler                             *
   *            First bit: MSB                                                *
   *      CRC calculation: Disable                                            *
   *--------------------------------------------------------------------------*/
  WRITE_REG(SUBGHZSPI->CR1, (SPI_CR1_MSTR | SPI_CR1_SSI | BaudratePrescaler | SPI_CR1_SSM));
 8002724:	4a09      	ldr	r2, [pc, #36]	@ (800274c <SUBGHZSPI_Init+0x3c>)
 8002726:	687b      	ldr	r3, [r7, #4]
 8002728:	f443 7341 	orr.w	r3, r3, #772	@ 0x304
 800272c:	6013      	str	r3, [r2, #0]
   *            Data Size: 8bits                                              *
   *              TI Mode: Disable                                            *
   *            NSS Pulse: Disable                                            *
   *    Rx FIFO Threshold: 8bits                                              *
   *--------------------------------------------------------------------------*/
  WRITE_REG(SUBGHZSPI->CR2, (SPI_CR2_FRXTH |  SPI_CR2_DS_0 | SPI_CR2_DS_1 | SPI_CR2_DS_2));
 800272e:	4b07      	ldr	r3, [pc, #28]	@ (800274c <SUBGHZSPI_Init+0x3c>)
 8002730:	f44f 52b8 	mov.w	r2, #5888	@ 0x1700
 8002734:	605a      	str	r2, [r3, #4]

  /* Enable SUBGHZSPI Peripheral */
  SET_BIT(SUBGHZSPI->CR1, SPI_CR1_SPE);
 8002736:	4b05      	ldr	r3, [pc, #20]	@ (800274c <SUBGHZSPI_Init+0x3c>)
 8002738:	681b      	ldr	r3, [r3, #0]
 800273a:	4a04      	ldr	r2, [pc, #16]	@ (800274c <SUBGHZSPI_Init+0x3c>)
 800273c:	f043 0340 	orr.w	r3, r3, #64	@ 0x40
 8002740:	6013      	str	r3, [r2, #0]
}
 8002742:	bf00      	nop
 8002744:	370c      	adds	r7, #12
 8002746:	46bd      	mov	sp, r7
 8002748:	bc80      	pop	{r7}
 800274a:	4770      	bx	lr
 800274c:	58010000 	.word	0x58010000

08002750 <SUBGHZSPI_Transmit>:
  * @param  Data  data to transmit
  * @retval HAL status
  */
HAL_StatusTypeDef SUBGHZSPI_Transmit(SUBGHZ_HandleTypeDef *hsubghz,
                                     uint8_t Data)
{
 8002750:	b480      	push	{r7}
 8002752:	b087      	sub	sp, #28
 8002754:	af00      	add	r7, sp, #0
 8002756:	6078      	str	r0, [r7, #4]
 8002758:	460b      	mov	r3, r1
 800275a:	70fb      	strb	r3, [r7, #3]
  HAL_StatusTypeDef status = HAL_OK;
 800275c:	2300      	movs	r3, #0
 800275e:	75fb      	strb	r3, [r7, #23]
  __IO uint32_t count;

  /* Handle Tx transmission from SUBGHZSPI peripheral to Radio ****************/
  /* Initialize Timeout */
  count = SUBGHZ_DEFAULT_TIMEOUT * SUBGHZ_DEFAULT_LOOP_TIME;
 8002760:	4b23      	ldr	r3, [pc, #140]	@ (80027f0 <SUBGHZSPI_Transmit+0xa0>)
 8002762:	681a      	ldr	r2, [r3, #0]
 8002764:	4613      	mov	r3, r2
 8002766:	00db      	lsls	r3, r3, #3
 8002768:	1a9b      	subs	r3, r3, r2
 800276a:	009b      	lsls	r3, r3, #2
 800276c:	0cdb      	lsrs	r3, r3, #19
 800276e:	2264      	movs	r2, #100	@ 0x64
 8002770:	fb02 f303 	mul.w	r3, r2, r3
 8002774:	60fb      	str	r3, [r7, #12]

  /* Wait until TXE flag is set */
  do
  {
    if (count == 0U)
 8002776:	68fb      	ldr	r3, [r7, #12]
 8002778:	2b00      	cmp	r3, #0
 800277a:	d105      	bne.n	8002788 <SUBGHZSPI_Transmit+0x38>
    {
      status = HAL_ERROR;
 800277c:	2301      	movs	r3, #1
 800277e:	75fb      	strb	r3, [r7, #23]
      hsubghz->ErrorCode = HAL_SUBGHZ_ERROR_TIMEOUT;
 8002780:	687b      	ldr	r3, [r7, #4]
 8002782:	2201      	movs	r2, #1
 8002784:	609a      	str	r2, [r3, #8]
      break;
 8002786:	e008      	b.n	800279a <SUBGHZSPI_Transmit+0x4a>
    }
    count--;
 8002788:	68fb      	ldr	r3, [r7, #12]
 800278a:	3b01      	subs	r3, #1
 800278c:	60fb      	str	r3, [r7, #12]
  } while (READ_BIT(SUBGHZSPI->SR, SPI_SR_TXE) != (SPI_SR_TXE));
 800278e:	4b19      	ldr	r3, [pc, #100]	@ (80027f4 <SUBGHZSPI_Transmit+0xa4>)
 8002790:	689b      	ldr	r3, [r3, #8]
 8002792:	f003 0302 	and.w	r3, r3, #2
 8002796:	2b02      	cmp	r3, #2
 8002798:	d1ed      	bne.n	8002776 <SUBGHZSPI_Transmit+0x26>

  /* Transmit Data*/
#if defined (__GNUC__)
  __IO uint8_t *spidr = ((__IO uint8_t *)&SUBGHZSPI->DR);
 800279a:	4b17      	ldr	r3, [pc, #92]	@ (80027f8 <SUBGHZSPI_Transmit+0xa8>)
 800279c:	613b      	str	r3, [r7, #16]
  *spidr = Data;
 800279e:	693b      	ldr	r3, [r7, #16]
 80027a0:	78fa      	ldrb	r2, [r7, #3]
 80027a2:	701a      	strb	r2, [r3, #0]
  *((__IO uint8_t *)&SUBGHZSPI->DR) = Data;
#endif /* __GNUC__ */

  /* Handle Rx transmission from SUBGHZSPI peripheral to Radio ****************/
  /* Initialize Timeout */
  count = SUBGHZ_DEFAULT_TIMEOUT * SUBGHZ_DEFAULT_LOOP_TIME;
 80027a4:	4b12      	ldr	r3, [pc, #72]	@ (80027f0 <SUBGHZSPI_Transmit+0xa0>)
 80027a6:	681a      	ldr	r2, [r3, #0]
 80027a8:	4613      	mov	r3, r2
 80027aa:	00db      	lsls	r3, r3, #3
 80027ac:	1a9b      	subs	r3, r3, r2
 80027ae:	009b      	lsls	r3, r3, #2
 80027b0:	0cdb      	lsrs	r3, r3, #19
 80027b2:	2264      	movs	r2, #100	@ 0x64
 80027b4:	fb02 f303 	mul.w	r3, r2, r3
 80027b8:	60fb      	str	r3, [r7, #12]

  /* Wait until RXNE flag is set */
  do
  {
    if (count == 0U)
 80027ba:	68fb      	ldr	r3, [r7, #12]
 80027bc:	2b00      	cmp	r3, #0
 80027be:	d105      	bne.n	80027cc <SUBGHZSPI_Transmit+0x7c>
    {
      status = HAL_ERROR;
 80027c0:	2301      	movs	r3, #1
 80027c2:	75fb      	strb	r3, [r7, #23]
      hsubghz->ErrorCode = HAL_SUBGHZ_ERROR_TIMEOUT;
 80027c4:	687b      	ldr	r3, [r7, #4]
 80027c6:	2201      	movs	r2, #1
 80027c8:	609a      	str	r2, [r3, #8]
      break;
 80027ca:	e008      	b.n	80027de <SUBGHZSPI_Transmit+0x8e>
    }
    count--;
 80027cc:	68fb      	ldr	r3, [r7, #12]
 80027ce:	3b01      	subs	r3, #1
 80027d0:	60fb      	str	r3, [r7, #12]
  } while (READ_BIT(SUBGHZSPI->SR, SPI_SR_RXNE) != (SPI_SR_RXNE));
 80027d2:	4b08      	ldr	r3, [pc, #32]	@ (80027f4 <SUBGHZSPI_Transmit+0xa4>)
 80027d4:	689b      	ldr	r3, [r3, #8]
 80027d6:	f003 0301 	and.w	r3, r3, #1
 80027da:	2b01      	cmp	r3, #1
 80027dc:	d1ed      	bne.n	80027ba <SUBGHZSPI_Transmit+0x6a>

  /* Flush Rx data */
  READ_REG(SUBGHZSPI->DR);
 80027de:	4b05      	ldr	r3, [pc, #20]	@ (80027f4 <SUBGHZSPI_Transmit+0xa4>)
 80027e0:	68db      	ldr	r3, [r3, #12]

  return status;
 80027e2:	7dfb      	ldrb	r3, [r7, #23]
}
 80027e4:	4618      	mov	r0, r3
 80027e6:	371c      	adds	r7, #28
 80027e8:	46bd      	mov	sp, r7
 80027ea:	bc80      	pop	{r7}
 80027ec:	4770      	bx	lr
 80027ee:	bf00      	nop
 80027f0:	20000000 	.word	0x20000000
 80027f4:	58010000 	.word	0x58010000
 80027f8:	5801000c 	.word	0x5801000c

080027fc <SUBGHZSPI_Receive>:
  * @param  pData  pointer on data to receive
  * @retval HAL status
  */
HAL_StatusTypeDef SUBGHZSPI_Receive(SUBGHZ_HandleTypeDef *hsubghz,
                                    uint8_t *pData)
{
 80027fc:	b480      	push	{r7}
 80027fe:	b087      	sub	sp, #28
 8002800:	af00      	add	r7, sp, #0
 8002802:	6078      	str	r0, [r7, #4]
 8002804:	6039      	str	r1, [r7, #0]
  HAL_StatusTypeDef status = HAL_OK;
 8002806:	2300      	movs	r3, #0
 8002808:	75fb      	strb	r3, [r7, #23]
  __IO uint32_t count;

  /* Handle Tx transmission from SUBGHZSPI peripheral to Radio ****************/
  /* Initialize Timeout */
  count = SUBGHZ_DEFAULT_TIMEOUT * SUBGHZ_DEFAULT_LOOP_TIME;
 800280a:	4b25      	ldr	r3, [pc, #148]	@ (80028a0 <SUBGHZSPI_Receive+0xa4>)
 800280c:	681a      	ldr	r2, [r3, #0]
 800280e:	4613      	mov	r3, r2
 8002810:	00db      	lsls	r3, r3, #3
 8002812:	1a9b      	subs	r3, r3, r2
 8002814:	009b      	lsls	r3, r3, #2
 8002816:	0cdb      	lsrs	r3, r3, #19
 8002818:	2264      	movs	r2, #100	@ 0x64
 800281a:	fb02 f303 	mul.w	r3, r2, r3
 800281e:	60fb      	str	r3, [r7, #12]

  /* Wait until TXE flag is set */
  do
  {
    if (count == 0U)
 8002820:	68fb      	ldr	r3, [r7, #12]
 8002822:	2b00      	cmp	r3, #0
 8002824:	d105      	bne.n	8002832 <SUBGHZSPI_Receive+0x36>
    {
      status = HAL_ERROR;
 8002826:	2301      	movs	r3, #1
 8002828:	75fb      	strb	r3, [r7, #23]
      hsubghz->ErrorCode = HAL_SUBGHZ_ERROR_TIMEOUT;
 800282a:	687b      	ldr	r3, [r7, #4]
 800282c:	2201      	movs	r2, #1
 800282e:	609a      	str	r2, [r3, #8]
      break;
 8002830:	e008      	b.n	8002844 <SUBGHZSPI_Receive+0x48>
    }
    count--;
 8002832:	68fb      	ldr	r3, [r7, #12]
 8002834:	3b01      	subs	r3, #1
 8002836:	60fb      	str	r3, [r7, #12]
  } while (READ_BIT(SUBGHZSPI->SR, SPI_SR_TXE) != (SPI_SR_TXE));
 8002838:	4b1a      	ldr	r3, [pc, #104]	@ (80028a4 <SUBGHZSPI_Receive+0xa8>)
 800283a:	689b      	ldr	r3, [r3, #8]
 800283c:	f003 0302 	and.w	r3, r3, #2
 8002840:	2b02      	cmp	r3, #2
 8002842:	d1ed      	bne.n	8002820 <SUBGHZSPI_Receive+0x24>

  /* Transmit Data*/
#if defined (__GNUC__)
  __IO uint8_t *spidr = ((__IO uint8_t *)&SUBGHZSPI->DR);
 8002844:	4b18      	ldr	r3, [pc, #96]	@ (80028a8 <SUBGHZSPI_Receive+0xac>)
 8002846:	613b      	str	r3, [r7, #16]
  *spidr = SUBGHZ_DUMMY_DATA;
 8002848:	693b      	ldr	r3, [r7, #16]
 800284a:	22ff      	movs	r2, #255	@ 0xff
 800284c:	701a      	strb	r2, [r3, #0]
  *((__IO uint8_t *)&SUBGHZSPI->DR) = SUBGHZ_DUMMY_DATA;
#endif /* __GNUC__ */

  /* Handle Rx transmission from SUBGHZSPI peripheral to Radio ****************/
  /* Initialize Timeout */
  count = SUBGHZ_DEFAULT_TIMEOUT * SUBGHZ_DEFAULT_LOOP_TIME;
 800284e:	4b14      	ldr	r3, [pc, #80]	@ (80028a0 <SUBGHZSPI_Receive+0xa4>)
 8002850:	681a      	ldr	r2, [r3, #0]
 8002852:	4613      	mov	r3, r2
 8002854:	00db      	lsls	r3, r3, #3
 8002856:	1a9b      	subs	r3, r3, r2
 8002858:	009b      	lsls	r3, r3, #2
 800285a:	0cdb      	lsrs	r3, r3, #19
 800285c:	2264      	movs	r2, #100	@ 0x64
 800285e:	fb02 f303 	mul.w	r3, r2, r3
 8002862:	60fb      	str	r3, [r7, #12]

  /* Wait until RXNE flag is set */
  do
  {
    if (count == 0U)
 8002864:	68fb      	ldr	r3, [r7, #12]
 8002866:	2b00      	cmp	r3, #0
 8002868:	d105      	bne.n	8002876 <SUBGHZSPI_Receive+0x7a>
    {
      status = HAL_ERROR;
 800286a:	2301      	movs	r3, #1
 800286c:	75fb      	strb	r3, [r7, #23]
      hsubghz->ErrorCode = HAL_SUBGHZ_ERROR_TIMEOUT;
 800286e:	687b      	ldr	r3, [r7, #4]
 8002870:	2201      	movs	r2, #1
 8002872:	609a      	str	r2, [r3, #8]
      break;
 8002874:	e008      	b.n	8002888 <SUBGHZSPI_Receive+0x8c>
    }
    count--;
 8002876:	68fb      	ldr	r3, [r7, #12]
 8002878:	3b01      	subs	r3, #1
 800287a:	60fb      	str	r3, [r7, #12]
  } while (READ_BIT(SUBGHZSPI->SR, SPI_SR_RXNE) != (SPI_SR_RXNE));
 800287c:	4b09      	ldr	r3, [pc, #36]	@ (80028a4 <SUBGHZSPI_Receive+0xa8>)
 800287e:	689b      	ldr	r3, [r3, #8]
 8002880:	f003 0301 	and.w	r3, r3, #1
 8002884:	2b01      	cmp	r3, #1
 8002886:	d1ed      	bne.n	8002864 <SUBGHZSPI_Receive+0x68>

  /* Retrieve pData */
  *pData = (uint8_t)(READ_REG(SUBGHZSPI->DR));
 8002888:	4b06      	ldr	r3, [pc, #24]	@ (80028a4 <SUBGHZSPI_Receive+0xa8>)
 800288a:	68db      	ldr	r3, [r3, #12]
 800288c:	b2da      	uxtb	r2, r3
 800288e:	683b      	ldr	r3, [r7, #0]
 8002890:	701a      	strb	r2, [r3, #0]

  return status;
 8002892:	7dfb      	ldrb	r3, [r7, #23]
}
 8002894:	4618      	mov	r0, r3
 8002896:	371c      	adds	r7, #28
 8002898:	46bd      	mov	sp, r7
 800289a:	bc80      	pop	{r7}
 800289c:	4770      	bx	lr
 800289e:	bf00      	nop
 80028a0:	20000000 	.word	0x20000000
 80028a4:	58010000 	.word	0x58010000
 80028a8:	5801000c 	.word	0x5801000c

080028ac <SUBGHZ_CheckDeviceReady>:
  * @param  hsubghz pointer to a SUBGHZ_HandleTypeDef structure that contains
  *         the handle information for SUBGHZ module.
  * @retval HAL status
  */
HAL_StatusTypeDef SUBGHZ_CheckDeviceReady(SUBGHZ_HandleTypeDef *hsubghz)
{
 80028ac:	b580      	push	{r7, lr}
 80028ae:	b084      	sub	sp, #16
 80028b0:	af00      	add	r7, sp, #0
 80028b2:	6078      	str	r0, [r7, #4]
  __IO uint32_t count;

  /* Wakeup radio in case of sleep mode: Select-Unselect radio */
  if (hsubghz->DeepSleep == SUBGHZ_DEEP_SLEEP_ENABLE)
 80028b4:	687b      	ldr	r3, [r7, #4]
 80028b6:	791b      	ldrb	r3, [r3, #4]
 80028b8:	2b01      	cmp	r3, #1
 80028ba:	d111      	bne.n	80028e0 <SUBGHZ_CheckDeviceReady+0x34>
  {
    /* Initialize NSS switch Delay */
    count  = SUBGHZ_NSS_LOOP_TIME;
 80028bc:	4b0c      	ldr	r3, [pc, #48]	@ (80028f0 <SUBGHZ_CheckDeviceReady+0x44>)
 80028be:	681a      	ldr	r2, [r3, #0]
 80028c0:	4613      	mov	r3, r2
 80028c2:	005b      	lsls	r3, r3, #1
 80028c4:	4413      	add	r3, r2
 80028c6:	00db      	lsls	r3, r3, #3
 80028c8:	0c1b      	lsrs	r3, r3, #16
 80028ca:	60fb      	str	r3, [r7, #12]

    /* NSS = 0; */
    LL_PWR_SelectSUBGHZSPI_NSS();
 80028cc:	f7ff fc28 	bl	8002120 <LL_PWR_SelectSUBGHZSPI_NSS>

    /* Wait Radio wakeup */
    do
    {
      count--;
 80028d0:	68fb      	ldr	r3, [r7, #12]
 80028d2:	3b01      	subs	r3, #1
 80028d4:	60fb      	str	r3, [r7, #12]
    } while (count != 0UL);
 80028d6:	68fb      	ldr	r3, [r7, #12]
 80028d8:	2b00      	cmp	r3, #0
 80028da:	d1f9      	bne.n	80028d0 <SUBGHZ_CheckDeviceReady+0x24>

    /* NSS = 1 */
    LL_PWR_UnselectSUBGHZSPI_NSS();
 80028dc:	f7ff fc10 	bl	8002100 <LL_PWR_UnselectSUBGHZSPI_NSS>
  }
  return (SUBGHZ_WaitOnBusy(hsubghz));
 80028e0:	6878      	ldr	r0, [r7, #4]
 80028e2:	f000 f807 	bl	80028f4 <SUBGHZ_WaitOnBusy>
 80028e6:	4603      	mov	r3, r0
}
 80028e8:	4618      	mov	r0, r3
 80028ea:	3710      	adds	r7, #16
 80028ec:	46bd      	mov	sp, r7
 80028ee:	bd80      	pop	{r7, pc}
 80028f0:	20000000 	.word	0x20000000

080028f4 <SUBGHZ_WaitOnBusy>:
  * @param  hsubghz pointer to a SUBGHZ_HandleTypeDef structure that contains
  *         the handle information for SUBGHZ module.
  * @retval HAL status
  */
HAL_StatusTypeDef SUBGHZ_WaitOnBusy(SUBGHZ_HandleTypeDef *hsubghz)
{
 80028f4:	b580      	push	{r7, lr}
 80028f6:	b086      	sub	sp, #24
 80028f8:	af00      	add	r7, sp, #0
 80028fa:	6078      	str	r0, [r7, #4]
  HAL_StatusTypeDef status;
  __IO uint32_t count;
  uint32_t mask;

  status = HAL_OK;
 80028fc:	2300      	movs	r3, #0
 80028fe:	75fb      	strb	r3, [r7, #23]
  count  = SUBGHZ_DEFAULT_TIMEOUT * SUBGHZ_RFBUSY_LOOP_TIME;
 8002900:	4b12      	ldr	r3, [pc, #72]	@ (800294c <SUBGHZ_WaitOnBusy+0x58>)
 8002902:	681a      	ldr	r2, [r3, #0]
 8002904:	4613      	mov	r3, r2
 8002906:	005b      	lsls	r3, r3, #1
 8002908:	4413      	add	r3, r2
 800290a:	00db      	lsls	r3, r3, #3
 800290c:	0d1b      	lsrs	r3, r3, #20
 800290e:	2264      	movs	r2, #100	@ 0x64
 8002910:	fb02 f303 	mul.w	r3, r2, r3
 8002914:	60fb      	str	r3, [r7, #12]

  /* Wait until Busy signal is set */
  do
  {
    mask = LL_PWR_IsActiveFlag_RFBUSYMS();
 8002916:	f7ff fc31 	bl	800217c <LL_PWR_IsActiveFlag_RFBUSYMS>
 800291a:	6138      	str	r0, [r7, #16]

    if (count == 0U)
 800291c:	68fb      	ldr	r3, [r7, #12]
 800291e:	2b00      	cmp	r3, #0
 8002920:	d105      	bne.n	800292e <SUBGHZ_WaitOnBusy+0x3a>
    {
      status  = HAL_ERROR;
 8002922:	2301      	movs	r3, #1
 8002924:	75fb      	strb	r3, [r7, #23]
      hsubghz->ErrorCode = HAL_SUBGHZ_ERROR_RF_BUSY;
 8002926:	687b      	ldr	r3, [r7, #4]
 8002928:	2202      	movs	r2, #2
 800292a:	609a      	str	r2, [r3, #8]
      break;
 800292c:	e009      	b.n	8002942 <SUBGHZ_WaitOnBusy+0x4e>
    }
    count--;
 800292e:	68fb      	ldr	r3, [r7, #12]
 8002930:	3b01      	subs	r3, #1
 8002932:	60fb      	str	r3, [r7, #12]
  } while ((LL_PWR_IsActiveFlag_RFBUSYS()& mask) == 1UL);
 8002934:	f7ff fc10 	bl	8002158 <LL_PWR_IsActiveFlag_RFBUSYS>
 8002938:	4602      	mov	r2, r0
 800293a:	693b      	ldr	r3, [r7, #16]
 800293c:	4013      	ands	r3, r2
 800293e:	2b01      	cmp	r3, #1
 8002940:	d0e9      	beq.n	8002916 <SUBGHZ_WaitOnBusy+0x22>

  return status;
 8002942:	7dfb      	ldrb	r3, [r7, #23]
}
 8002944:	4618      	mov	r0, r3
 8002946:	3718      	adds	r7, #24
 8002948:	46bd      	mov	sp, r7
 800294a:	bd80      	pop	{r7, pc}
 800294c:	20000000 	.word	0x20000000

08002950 <RadioInit>:
TimerEvent_t RxTimeoutTimer;

/* Private  functions ---------------------------------------------------------*/

static void RadioInit( RadioEvents_t *events )
{
 8002950:	b580      	push	{r7, lr}
 8002952:	b084      	sub	sp, #16
 8002954:	af02      	add	r7, sp, #8
 8002956:	6078      	str	r0, [r7, #4]
    RadioEvents = events;
 8002958:	4a24      	ldr	r2, [pc, #144]	@ (80029ec <RadioInit+0x9c>)
 800295a:	687b      	ldr	r3, [r7, #4]
 800295c:	6013      	str	r3, [r2, #0]

    SubgRf.RxContinuous = false;
 800295e:	4b24      	ldr	r3, [pc, #144]	@ (80029f0 <RadioInit+0xa0>)
 8002960:	2200      	movs	r2, #0
 8002962:	705a      	strb	r2, [r3, #1]
    SubgRf.TxTimeout = 0;
 8002964:	4b22      	ldr	r3, [pc, #136]	@ (80029f0 <RadioInit+0xa0>)
 8002966:	2200      	movs	r2, #0
 8002968:	605a      	str	r2, [r3, #4]
    SubgRf.RxTimeout = 0;
 800296a:	4b21      	ldr	r3, [pc, #132]	@ (80029f0 <RadioInit+0xa0>)
 800296c:	2200      	movs	r2, #0
 800296e:	609a      	str	r2, [r3, #8]
    /*See STM32WL Errata: RadioSetRxDutyCycle*/
    SubgRf.RxDcPreambleDetectTimeout = 0;
 8002970:	4b1f      	ldr	r3, [pc, #124]	@ (80029f0 <RadioInit+0xa0>)
 8002972:	2200      	movs	r2, #0
 8002974:	659a      	str	r2, [r3, #88]	@ 0x58
#if( RADIO_LR_FHSS_IS_ON == 1 )
    SubgRf.lr_fhss.is_lr_fhss_on = false;
#endif /* RADIO_LR_FHSS_IS_ON == 1 */
    SUBGRF_Init( RadioOnDioIrq );
 8002976:	481f      	ldr	r0, [pc, #124]	@ (80029f4 <RadioInit+0xa4>)
 8002978:	f001 ff88 	bl	800488c <SUBGRF_Init>
    /*SubgRf.publicNetwork set to false*/
    SubgRf.PublicNetwork.Current = false;
 800297c:	4b1c      	ldr	r3, [pc, #112]	@ (80029f0 <RadioInit+0xa0>)
 800297e:	2200      	movs	r2, #0
 8002980:	735a      	strb	r2, [r3, #13]
    SubgRf.PublicNetwork.Previous = false;
 8002982:	4b1b      	ldr	r3, [pc, #108]	@ (80029f0 <RadioInit+0xa0>)
 8002984:	2200      	movs	r2, #0
 8002986:	731a      	strb	r2, [r3, #12]

    RADIO_IRQ_PROCESS_INIT();

    SUBGRF_SetRegulatorMode( );
 8002988:	f002 fa1c 	bl	8004dc4 <SUBGRF_SetRegulatorMode>

    SUBGRF_SetBufferBaseAddress( 0x00, 0x00 );
 800298c:	2100      	movs	r1, #0
 800298e:	2000      	movs	r0, #0
 8002990:	f002 fde8 	bl	8005564 <SUBGRF_SetBufferBaseAddress>
    SUBGRF_SetTxParams( RFO_LP, 0, RADIO_RAMP_200_US );
 8002994:	2204      	movs	r2, #4
 8002996:	2100      	movs	r1, #0
 8002998:	2001      	movs	r0, #1
 800299a:	f002 fba5 	bl	80050e8 <SUBGRF_SetTxParams>
    SUBGRF_SetDioIrqParams( IRQ_RADIO_ALL, IRQ_RADIO_ALL, IRQ_RADIO_NONE, IRQ_RADIO_NONE );
 800299e:	2300      	movs	r3, #0
 80029a0:	2200      	movs	r2, #0
 80029a2:	f64f 71ff 	movw	r1, #65535	@ 0xffff
 80029a6:	f64f 70ff 	movw	r0, #65535	@ 0xffff
 80029aa:	f002 fad5 	bl	8004f58 <SUBGRF_SetDioIrqParams>

    RadioSleep();
 80029ae:	f000 fe91 	bl	80036d4 <RadioSleep>
    // Initialize driver timeout timers
    TimerInit( &TxTimeoutTimer, RadioOnTxTimeoutIrq );
 80029b2:	2300      	movs	r3, #0
 80029b4:	9300      	str	r3, [sp, #0]
 80029b6:	4b10      	ldr	r3, [pc, #64]	@ (80029f8 <RadioInit+0xa8>)
 80029b8:	2200      	movs	r2, #0
 80029ba:	f04f 31ff 	mov.w	r1, #4294967295	@ 0xffffffff
 80029be:	480f      	ldr	r0, [pc, #60]	@ (80029fc <RadioInit+0xac>)
 80029c0:	f003 fa60 	bl	8005e84 <UTIL_TIMER_Create>
    TimerInit( &RxTimeoutTimer, RadioOnRxTimeoutIrq );
 80029c4:	2300      	movs	r3, #0
 80029c6:	9300      	str	r3, [sp, #0]
 80029c8:	4b0d      	ldr	r3, [pc, #52]	@ (8002a00 <RadioInit+0xb0>)
 80029ca:	2200      	movs	r2, #0
 80029cc:	f04f 31ff 	mov.w	r1, #4294967295	@ 0xffffffff
 80029d0:	480c      	ldr	r0, [pc, #48]	@ (8002a04 <RadioInit+0xb4>)
 80029d2:	f003 fa57 	bl	8005e84 <UTIL_TIMER_Create>
    TimerStop( &TxTimeoutTimer );
 80029d6:	4809      	ldr	r0, [pc, #36]	@ (80029fc <RadioInit+0xac>)
 80029d8:	f003 faf8 	bl	8005fcc <UTIL_TIMER_Stop>
    TimerStop( &RxTimeoutTimer );
 80029dc:	4809      	ldr	r0, [pc, #36]	@ (8002a04 <RadioInit+0xb4>)
 80029de:	f003 faf5 	bl	8005fcc <UTIL_TIMER_Stop>
}
 80029e2:	bf00      	nop
 80029e4:	3708      	adds	r7, #8
 80029e6:	46bd      	mov	sp, r7
 80029e8:	bd80      	pop	{r7, pc}
 80029ea:	bf00      	nop
 80029ec:	200001a0 	.word	0x200001a0
 80029f0:	200001a4 	.word	0x200001a4
 80029f4:	08003ac9 	.word	0x08003ac9
 80029f8:	08003a51 	.word	0x08003a51
 80029fc:	20000200 	.word	0x20000200
 8002a00:	08003a65 	.word	0x08003a65
 8002a04:	20000218 	.word	0x20000218

08002a08 <RadioGetStatus>:

static RadioState_t RadioGetStatus( void )
{
 8002a08:	b580      	push	{r7, lr}
 8002a0a:	af00      	add	r7, sp, #0
    switch( SUBGRF_GetOperatingMode( ) )
 8002a0c:	f001 ff86 	bl	800491c <SUBGRF_GetOperatingMode>
 8002a10:	4603      	mov	r3, r0
 8002a12:	2b07      	cmp	r3, #7
 8002a14:	d00a      	beq.n	8002a2c <RadioGetStatus+0x24>
 8002a16:	2b07      	cmp	r3, #7
 8002a18:	dc0a      	bgt.n	8002a30 <RadioGetStatus+0x28>
 8002a1a:	2b04      	cmp	r3, #4
 8002a1c:	d002      	beq.n	8002a24 <RadioGetStatus+0x1c>
 8002a1e:	2b05      	cmp	r3, #5
 8002a20:	d002      	beq.n	8002a28 <RadioGetStatus+0x20>
 8002a22:	e005      	b.n	8002a30 <RadioGetStatus+0x28>
    {
        case MODE_TX:
            return RF_TX_RUNNING;
 8002a24:	2302      	movs	r3, #2
 8002a26:	e004      	b.n	8002a32 <RadioGetStatus+0x2a>
        case MODE_RX:
            return RF_RX_RUNNING;
 8002a28:	2301      	movs	r3, #1
 8002a2a:	e002      	b.n	8002a32 <RadioGetStatus+0x2a>
        case MODE_CAD:
            return RF_CAD;
 8002a2c:	2303      	movs	r3, #3
 8002a2e:	e000      	b.n	8002a32 <RadioGetStatus+0x2a>
        default:
            return RF_IDLE;
 8002a30:	2300      	movs	r3, #0
    }
}
 8002a32:	4618      	mov	r0, r3
 8002a34:	bd80      	pop	{r7, pc}
	...

08002a38 <RadioSetModem>:

static void RadioSetModem( RadioModems_t modem )
{
 8002a38:	b580      	push	{r7, lr}
 8002a3a:	b082      	sub	sp, #8
 8002a3c:	af00      	add	r7, sp, #0
 8002a3e:	4603      	mov	r3, r0
 8002a40:	71fb      	strb	r3, [r7, #7]
    SubgRf.Modem = modem;
 8002a42:	4a2a      	ldr	r2, [pc, #168]	@ (8002aec <RadioSetModem+0xb4>)
 8002a44:	79fb      	ldrb	r3, [r7, #7]
 8002a46:	7013      	strb	r3, [r2, #0]
    RFW_SetRadioModem( modem );
 8002a48:	79fb      	ldrb	r3, [r7, #7]
 8002a4a:	4618      	mov	r0, r3
 8002a4c:	f003 f8d5 	bl	8005bfa <RFW_SetRadioModem>
    switch( modem )
 8002a50:	79fb      	ldrb	r3, [r7, #7]
 8002a52:	2b05      	cmp	r3, #5
 8002a54:	d80e      	bhi.n	8002a74 <RadioSetModem+0x3c>
 8002a56:	a201      	add	r2, pc, #4	@ (adr r2, 8002a5c <RadioSetModem+0x24>)
 8002a58:	f852 f023 	ldr.w	pc, [r2, r3, lsl #2]
 8002a5c:	08002a83 	.word	0x08002a83
 8002a60:	08002a91 	.word	0x08002a91
 8002a64:	08002a75 	.word	0x08002a75
 8002a68:	08002ab7 	.word	0x08002ab7
 8002a6c:	08002ac5 	.word	0x08002ac5
 8002a70:	08002ad3 	.word	0x08002ad3
    {
    default:
    case MODEM_MSK:
        SUBGRF_SetPacketType( PACKET_TYPE_GMSK );
 8002a74:	2003      	movs	r0, #3
 8002a76:	f002 fb11 	bl	800509c <SUBGRF_SetPacketType>
        // When switching to GFSK mode the LoRa SyncWord register value is reset
        // Thus, we also reset the RadioPublicNetwork variable
        SubgRf.PublicNetwork.Current = false;
 8002a7a:	4b1c      	ldr	r3, [pc, #112]	@ (8002aec <RadioSetModem+0xb4>)
 8002a7c:	2200      	movs	r2, #0
 8002a7e:	735a      	strb	r2, [r3, #13]
        break;
 8002a80:	e02f      	b.n	8002ae2 <RadioSetModem+0xaa>
    case MODEM_FSK:
        SUBGRF_SetPacketType( PACKET_TYPE_GFSK );
 8002a82:	2000      	movs	r0, #0
 8002a84:	f002 fb0a 	bl	800509c <SUBGRF_SetPacketType>
        // When switching to GFSK mode the LoRa SyncWord register value is reset
        // Thus, we also reset the RadioPublicNetwork variable
        SubgRf.PublicNetwork.Current = false;
 8002a88:	4b18      	ldr	r3, [pc, #96]	@ (8002aec <RadioSetModem+0xb4>)
 8002a8a:	2200      	movs	r2, #0
 8002a8c:	735a      	strb	r2, [r3, #13]
        break;
 8002a8e:	e028      	b.n	8002ae2 <RadioSetModem+0xaa>
    case MODEM_LORA:
        SUBGRF_SetPacketType( PACKET_TYPE_LORA );
 8002a90:	2001      	movs	r0, #1
 8002a92:	f002 fb03 	bl	800509c <SUBGRF_SetPacketType>
        // Public/Private network register is reset when switching modems
        if( SubgRf.PublicNetwork.Current != SubgRf.PublicNetwork.Previous )
 8002a96:	4b15      	ldr	r3, [pc, #84]	@ (8002aec <RadioSetModem+0xb4>)
 8002a98:	7b5a      	ldrb	r2, [r3, #13]
 8002a9a:	4b14      	ldr	r3, [pc, #80]	@ (8002aec <RadioSetModem+0xb4>)
 8002a9c:	7b1b      	ldrb	r3, [r3, #12]
 8002a9e:	429a      	cmp	r2, r3
 8002aa0:	d01e      	beq.n	8002ae0 <RadioSetModem+0xa8>
        {
            SubgRf.PublicNetwork.Current = SubgRf.PublicNetwork.Previous;
 8002aa2:	4b12      	ldr	r3, [pc, #72]	@ (8002aec <RadioSetModem+0xb4>)
 8002aa4:	7b1a      	ldrb	r2, [r3, #12]
 8002aa6:	4b11      	ldr	r3, [pc, #68]	@ (8002aec <RadioSetModem+0xb4>)
 8002aa8:	735a      	strb	r2, [r3, #13]
            RadioSetPublicNetwork( SubgRf.PublicNetwork.Current );
 8002aaa:	4b10      	ldr	r3, [pc, #64]	@ (8002aec <RadioSetModem+0xb4>)
 8002aac:	7b5b      	ldrb	r3, [r3, #13]
 8002aae:	4618      	mov	r0, r3
 8002ab0:	f000 ff98 	bl	80039e4 <RadioSetPublicNetwork>
        }
        break;
 8002ab4:	e014      	b.n	8002ae0 <RadioSetModem+0xa8>
    case MODEM_BPSK:
        SUBGRF_SetPacketType( PACKET_TYPE_BPSK );
 8002ab6:	2002      	movs	r0, #2
 8002ab8:	f002 faf0 	bl	800509c <SUBGRF_SetPacketType>
        // When switching to BPSK mode the LoRa SyncWord register value is reset
        // Thus, we also reset the RadioPublicNetwork variable
        SubgRf.PublicNetwork.Current = false;
 8002abc:	4b0b      	ldr	r3, [pc, #44]	@ (8002aec <RadioSetModem+0xb4>)
 8002abe:	2200      	movs	r2, #0
 8002ac0:	735a      	strb	r2, [r3, #13]
        break;
 8002ac2:	e00e      	b.n	8002ae2 <RadioSetModem+0xaa>
#if (RADIO_SIGFOX_ENABLE == 1)
    case MODEM_SIGFOX_TX:
        SUBGRF_SetPacketType( PACKET_TYPE_BPSK );
 8002ac4:	2002      	movs	r0, #2
 8002ac6:	f002 fae9 	bl	800509c <SUBGRF_SetPacketType>
        // When switching to BPSK mode the LoRa SyncWord register value is reset
        // Thus, we also reset the RadioPublicNetwork variable
        SubgRf.PublicNetwork.Current = false;
 8002aca:	4b08      	ldr	r3, [pc, #32]	@ (8002aec <RadioSetModem+0xb4>)
 8002acc:	2200      	movs	r2, #0
 8002ace:	735a      	strb	r2, [r3, #13]
        break;
 8002ad0:	e007      	b.n	8002ae2 <RadioSetModem+0xaa>
    case MODEM_SIGFOX_RX:
        SUBGRF_SetPacketType( PACKET_TYPE_GFSK );
 8002ad2:	2000      	movs	r0, #0
 8002ad4:	f002 fae2 	bl	800509c <SUBGRF_SetPacketType>
        // When switching to GFSK mode the LoRa SyncWord register value is reset
        // Thus, we also reset the RadioPublicNetwork variable
        SubgRf.PublicNetwork.Current = false;
 8002ad8:	4b04      	ldr	r3, [pc, #16]	@ (8002aec <RadioSetModem+0xb4>)
 8002ada:	2200      	movs	r2, #0
 8002adc:	735a      	strb	r2, [r3, #13]
        break;
 8002ade:	e000      	b.n	8002ae2 <RadioSetModem+0xaa>
        break;
 8002ae0:	bf00      	nop
#endif /*RADIO_SIGFOX_ENABLE == 1*/
    }
}
 8002ae2:	bf00      	nop
 8002ae4:	3708      	adds	r7, #8
 8002ae6:	46bd      	mov	sp, r7
 8002ae8:	bd80      	pop	{r7, pc}
 8002aea:	bf00      	nop
 8002aec:	200001a4 	.word	0x200001a4

08002af0 <RadioSetChannel>:

static void RadioSetChannel( uint32_t freq )
{
 8002af0:	b580      	push	{r7, lr}
 8002af2:	b082      	sub	sp, #8
 8002af4:	af00      	add	r7, sp, #0
 8002af6:	6078      	str	r0, [r7, #4]
    SUBGRF_SetRfFrequency( freq );
 8002af8:	6878      	ldr	r0, [r7, #4]
 8002afa:	f002 fa89 	bl	8005010 <SUBGRF_SetRfFrequency>
}
 8002afe:	bf00      	nop
 8002b00:	3708      	adds	r7, #8
 8002b02:	46bd      	mov	sp, r7
 8002b04:	bd80      	pop	{r7, pc}

08002b06 <RadioIsChannelFree>:

static bool RadioIsChannelFree( uint32_t freq, uint32_t rxBandwidth, int16_t rssiThresh, uint32_t maxCarrierSenseTime )
{
 8002b06:	b580      	push	{r7, lr}
 8002b08:	b090      	sub	sp, #64	@ 0x40
 8002b0a:	af0a      	add	r7, sp, #40	@ 0x28
 8002b0c:	60f8      	str	r0, [r7, #12]
 8002b0e:	60b9      	str	r1, [r7, #8]
 8002b10:	603b      	str	r3, [r7, #0]
 8002b12:	4613      	mov	r3, r2
 8002b14:	80fb      	strh	r3, [r7, #6]
    bool status = true;
 8002b16:	2301      	movs	r3, #1
 8002b18:	75fb      	strb	r3, [r7, #23]
    int16_t rssi = 0;
 8002b1a:	2300      	movs	r3, #0
 8002b1c:	82bb      	strh	r3, [r7, #20]
    uint32_t carrierSenseTime = 0;
 8002b1e:	2300      	movs	r3, #0
 8002b20:	613b      	str	r3, [r7, #16]

    RadioStandby( );
 8002b22:	f000 fdea 	bl	80036fa <RadioStandby>

    RadioSetModem( MODEM_FSK );
 8002b26:	2000      	movs	r0, #0
 8002b28:	f7ff ff86 	bl	8002a38 <RadioSetModem>

    RadioSetChannel( freq );
 8002b2c:	68f8      	ldr	r0, [r7, #12]
 8002b2e:	f7ff ffdf 	bl	8002af0 <RadioSetChannel>

    // Set Rx bandwidth. Other parameters are not used.
    RadioSetRxConfig( MODEM_FSK, rxBandwidth, 600, 0, rxBandwidth, 3, 0, false,
 8002b32:	2301      	movs	r3, #1
 8002b34:	9309      	str	r3, [sp, #36]	@ 0x24
 8002b36:	2300      	movs	r3, #0
 8002b38:	9308      	str	r3, [sp, #32]
 8002b3a:	2300      	movs	r3, #0
 8002b3c:	9307      	str	r3, [sp, #28]
 8002b3e:	2300      	movs	r3, #0
 8002b40:	9306      	str	r3, [sp, #24]
 8002b42:	2300      	movs	r3, #0
 8002b44:	9305      	str	r3, [sp, #20]
 8002b46:	2300      	movs	r3, #0
 8002b48:	9304      	str	r3, [sp, #16]
 8002b4a:	2300      	movs	r3, #0
 8002b4c:	9303      	str	r3, [sp, #12]
 8002b4e:	2300      	movs	r3, #0
 8002b50:	9302      	str	r3, [sp, #8]
 8002b52:	2303      	movs	r3, #3
 8002b54:	9301      	str	r3, [sp, #4]
 8002b56:	68bb      	ldr	r3, [r7, #8]
 8002b58:	9300      	str	r3, [sp, #0]
 8002b5a:	2300      	movs	r3, #0
 8002b5c:	f44f 7216 	mov.w	r2, #600	@ 0x258
 8002b60:	68b9      	ldr	r1, [r7, #8]
 8002b62:	2000      	movs	r0, #0
 8002b64:	f000 f83c 	bl	8002be0 <RadioSetRxConfig>
                      0, false, 0, 0, false, true );
    RadioRx( 0 );
 8002b68:	2000      	movs	r0, #0
 8002b6a:	f000 fdcd 	bl	8003708 <RadioRx>

    RADIO_DELAY_MS( RadioGetWakeupTime( ) );
 8002b6e:	f000 ff67 	bl	8003a40 <RadioGetWakeupTime>
 8002b72:	4603      	mov	r3, r0
 8002b74:	4618      	mov	r0, r3
 8002b76:	f7fd fdf5 	bl	8000764 <HAL_Delay>

    carrierSenseTime = TimerGetCurrentTime( );
 8002b7a:	f003 fac1 	bl	8006100 <UTIL_TIMER_GetCurrentTime>
 8002b7e:	6138      	str	r0, [r7, #16]

    // Perform carrier sense for maxCarrierSenseTime
    while( TimerGetElapsedTime( carrierSenseTime ) < maxCarrierSenseTime )
 8002b80:	e00d      	b.n	8002b9e <RadioIsChannelFree+0x98>
    {
        rssi = RadioRssi( MODEM_FSK );
 8002b82:	2000      	movs	r0, #0
 8002b84:	f000 feae 	bl	80038e4 <RadioRssi>
 8002b88:	4603      	mov	r3, r0
 8002b8a:	82bb      	strh	r3, [r7, #20]

        if( rssi > rssiThresh )
 8002b8c:	f9b7 2014 	ldrsh.w	r2, [r7, #20]
 8002b90:	f9b7 3006 	ldrsh.w	r3, [r7, #6]
 8002b94:	429a      	cmp	r2, r3
 8002b96:	dd02      	ble.n	8002b9e <RadioIsChannelFree+0x98>
        {
            status = false;
 8002b98:	2300      	movs	r3, #0
 8002b9a:	75fb      	strb	r3, [r7, #23]
            break;
 8002b9c:	e006      	b.n	8002bac <RadioIsChannelFree+0xa6>
    while( TimerGetElapsedTime( carrierSenseTime ) < maxCarrierSenseTime )
 8002b9e:	6938      	ldr	r0, [r7, #16]
 8002ba0:	f003 fac0 	bl	8006124 <UTIL_TIMER_GetElapsedTime>
 8002ba4:	4602      	mov	r2, r0
 8002ba6:	683b      	ldr	r3, [r7, #0]
 8002ba8:	4293      	cmp	r3, r2
 8002baa:	d8ea      	bhi.n	8002b82 <RadioIsChannelFree+0x7c>
        }
    }
    RadioStandby( );
 8002bac:	f000 fda5 	bl	80036fa <RadioStandby>

    return status;
 8002bb0:	7dfb      	ldrb	r3, [r7, #23]
}
 8002bb2:	4618      	mov	r0, r3
 8002bb4:	3718      	adds	r7, #24
 8002bb6:	46bd      	mov	sp, r7
 8002bb8:	bd80      	pop	{r7, pc}

08002bba <RadioRandom>:

static uint32_t RadioRandom( void )
{
 8002bba:	b580      	push	{r7, lr}
 8002bbc:	b082      	sub	sp, #8
 8002bbe:	af00      	add	r7, sp, #0
    uint32_t rnd = 0;
 8002bc0:	2300      	movs	r3, #0
 8002bc2:	607b      	str	r3, [r7, #4]

    /*
     * Radio setup for random number generation
     */
    // Disable modem interrupts
    SUBGRF_SetDioIrqParams( IRQ_RADIO_NONE, IRQ_RADIO_NONE, IRQ_RADIO_NONE, IRQ_RADIO_NONE );
 8002bc4:	2300      	movs	r3, #0
 8002bc6:	2200      	movs	r2, #0
 8002bc8:	2100      	movs	r1, #0
 8002bca:	2000      	movs	r0, #0
 8002bcc:	f002 f9c4 	bl	8004f58 <SUBGRF_SetDioIrqParams>

    rnd = SUBGRF_GetRandom();
 8002bd0:	f001 ff75 	bl	8004abe <SUBGRF_GetRandom>
 8002bd4:	6078      	str	r0, [r7, #4]

    return rnd;
 8002bd6:	687b      	ldr	r3, [r7, #4]
}
 8002bd8:	4618      	mov	r0, r3
 8002bda:	3708      	adds	r7, #8
 8002bdc:	46bd      	mov	sp, r7
 8002bde:	bd80      	pop	{r7, pc}

08002be0 <RadioSetRxConfig>:
                              uint32_t bandwidthAfc, uint16_t preambleLen,
                              uint16_t symbTimeout, bool fixLen,
                              uint8_t payloadLen,
                              bool crcOn, bool freqHopOn, uint8_t hopPeriod,
                              bool iqInverted, bool rxContinuous )
{
 8002be0:	b580      	push	{r7, lr}
 8002be2:	b08a      	sub	sp, #40	@ 0x28
 8002be4:	af00      	add	r7, sp, #0
 8002be6:	60b9      	str	r1, [r7, #8]
 8002be8:	607a      	str	r2, [r7, #4]
 8002bea:	461a      	mov	r2, r3
 8002bec:	4603      	mov	r3, r0
 8002bee:	73fb      	strb	r3, [r7, #15]
 8002bf0:	4613      	mov	r3, r2
 8002bf2:	73bb      	strb	r3, [r7, #14]
#if (RADIO_SIGFOX_ENABLE == 1)
    uint8_t modReg;
#endif
    SubgRf.RxContinuous = rxContinuous;
 8002bf4:	4ab9      	ldr	r2, [pc, #740]	@ (8002edc <RadioSetRxConfig+0x2fc>)
 8002bf6:	f897 3054 	ldrb.w	r3, [r7, #84]	@ 0x54
 8002bfa:	7053      	strb	r3, [r2, #1]
    RFW_DeInit();
 8002bfc:	f002 ffbb 	bl	8005b76 <RFW_DeInit>
    if( rxContinuous == true )
 8002c00:	f897 3054 	ldrb.w	r3, [r7, #84]	@ 0x54
 8002c04:	2b00      	cmp	r3, #0
 8002c06:	d001      	beq.n	8002c0c <RadioSetRxConfig+0x2c>
    {
        symbTimeout = 0;
 8002c08:	2300      	movs	r3, #0
 8002c0a:	873b      	strh	r3, [r7, #56]	@ 0x38
    }
    if( fixLen == true )
 8002c0c:	f897 303c 	ldrb.w	r3, [r7, #60]	@ 0x3c
 8002c10:	2b00      	cmp	r3, #0
 8002c12:	d004      	beq.n	8002c1e <RadioSetRxConfig+0x3e>
    {
        MaxPayloadLength = payloadLen;
 8002c14:	4ab2      	ldr	r2, [pc, #712]	@ (8002ee0 <RadioSetRxConfig+0x300>)
 8002c16:	f897 3040 	ldrb.w	r3, [r7, #64]	@ 0x40
 8002c1a:	7013      	strb	r3, [r2, #0]
 8002c1c:	e002      	b.n	8002c24 <RadioSetRxConfig+0x44>
    }
    else
    {
        MaxPayloadLength = 0xFF;
 8002c1e:	4bb0      	ldr	r3, [pc, #704]	@ (8002ee0 <RadioSetRxConfig+0x300>)
 8002c20:	22ff      	movs	r2, #255	@ 0xff
 8002c22:	701a      	strb	r2, [r3, #0]
    }

    switch( modem )
 8002c24:	7bfb      	ldrb	r3, [r7, #15]
 8002c26:	2b05      	cmp	r3, #5
 8002c28:	d009      	beq.n	8002c3e <RadioSetRxConfig+0x5e>
 8002c2a:	2b05      	cmp	r3, #5
 8002c2c:	f300 81d7 	bgt.w	8002fde <RadioSetRxConfig+0x3fe>
 8002c30:	2b00      	cmp	r3, #0
 8002c32:	f000 80bf 	beq.w	8002db4 <RadioSetRxConfig+0x1d4>
 8002c36:	2b01      	cmp	r3, #1
 8002c38:	f000 8124 	beq.w	8002e84 <RadioSetRxConfig+0x2a4>
            // Timeout Max, Timeout handled directly in SetRx function
            SubgRf.RxTimeout = 0xFFFF;

            break;
        default:
            break;
 8002c3c:	e1cf      	b.n	8002fde <RadioSetRxConfig+0x3fe>
            SUBGRF_SetStopRxTimerOnPreambleDetect( true );
 8002c3e:	2001      	movs	r0, #1
 8002c40:	f002 f882 	bl	8004d48 <SUBGRF_SetStopRxTimerOnPreambleDetect>
            SubgRf.ModulationParams.PacketType = PACKET_TYPE_GFSK;
 8002c44:	4ba5      	ldr	r3, [pc, #660]	@ (8002edc <RadioSetRxConfig+0x2fc>)
 8002c46:	2200      	movs	r2, #0
 8002c48:	f883 2038 	strb.w	r2, [r3, #56]	@ 0x38
            SubgRf.ModulationParams.Params.Gfsk.BitRate = datarate;
 8002c4c:	4aa3      	ldr	r2, [pc, #652]	@ (8002edc <RadioSetRxConfig+0x2fc>)
 8002c4e:	687b      	ldr	r3, [r7, #4]
 8002c50:	63d3      	str	r3, [r2, #60]	@ 0x3c
            SubgRf.ModulationParams.Params.Gfsk.ModulationShaping = MOD_SHAPING_G_BT_05;
 8002c52:	4ba2      	ldr	r3, [pc, #648]	@ (8002edc <RadioSetRxConfig+0x2fc>)
 8002c54:	2209      	movs	r2, #9
 8002c56:	f883 2044 	strb.w	r2, [r3, #68]	@ 0x44
            SubgRf.ModulationParams.Params.Gfsk.Fdev = 800;
 8002c5a:	4ba0      	ldr	r3, [pc, #640]	@ (8002edc <RadioSetRxConfig+0x2fc>)
 8002c5c:	f44f 7248 	mov.w	r2, #800	@ 0x320
 8002c60:	641a      	str	r2, [r3, #64]	@ 0x40
            SubgRf.ModulationParams.Params.Gfsk.Bandwidth = SUBGRF_GetFskBandwidthRegValue( bandwidth );
 8002c62:	68b8      	ldr	r0, [r7, #8]
 8002c64:	f002 feba 	bl	80059dc <SUBGRF_GetFskBandwidthRegValue>
 8002c68:	4603      	mov	r3, r0
 8002c6a:	461a      	mov	r2, r3
 8002c6c:	4b9b      	ldr	r3, [pc, #620]	@ (8002edc <RadioSetRxConfig+0x2fc>)
 8002c6e:	f883 2045 	strb.w	r2, [r3, #69]	@ 0x45
            SubgRf.PacketParams.PacketType = PACKET_TYPE_GFSK;
 8002c72:	4b9a      	ldr	r3, [pc, #616]	@ (8002edc <RadioSetRxConfig+0x2fc>)
 8002c74:	2200      	movs	r2, #0
 8002c76:	739a      	strb	r2, [r3, #14]
            SubgRf.PacketParams.Params.Gfsk.PreambleLength = ( preambleLen << 3 ); // convert byte into bit
 8002c78:	8ebb      	ldrh	r3, [r7, #52]	@ 0x34
 8002c7a:	00db      	lsls	r3, r3, #3
 8002c7c:	b29a      	uxth	r2, r3
 8002c7e:	4b97      	ldr	r3, [pc, #604]	@ (8002edc <RadioSetRxConfig+0x2fc>)
 8002c80:	821a      	strh	r2, [r3, #16]
            SubgRf.PacketParams.Params.Gfsk.PreambleMinDetect = RADIO_PREAMBLE_DETECTOR_OFF;
 8002c82:	4b96      	ldr	r3, [pc, #600]	@ (8002edc <RadioSetRxConfig+0x2fc>)
 8002c84:	2200      	movs	r2, #0
 8002c86:	749a      	strb	r2, [r3, #18]
            SubgRf.PacketParams.Params.Gfsk.SyncWordLength = 2 << 3; // convert byte into bit
 8002c88:	4b94      	ldr	r3, [pc, #592]	@ (8002edc <RadioSetRxConfig+0x2fc>)
 8002c8a:	2210      	movs	r2, #16
 8002c8c:	74da      	strb	r2, [r3, #19]
            SubgRf.PacketParams.Params.Gfsk.AddrComp = RADIO_ADDRESSCOMP_FILT_OFF;
 8002c8e:	4b93      	ldr	r3, [pc, #588]	@ (8002edc <RadioSetRxConfig+0x2fc>)
 8002c90:	2200      	movs	r2, #0
 8002c92:	751a      	strb	r2, [r3, #20]
            SubgRf.PacketParams.Params.Gfsk.HeaderType = RADIO_PACKET_FIXED_LENGTH;
 8002c94:	4b91      	ldr	r3, [pc, #580]	@ (8002edc <RadioSetRxConfig+0x2fc>)
 8002c96:	2200      	movs	r2, #0
 8002c98:	755a      	strb	r2, [r3, #21]
            SubgRf.PacketParams.Params.Gfsk.PayloadLength = MaxPayloadLength;
 8002c9a:	4b91      	ldr	r3, [pc, #580]	@ (8002ee0 <RadioSetRxConfig+0x300>)
 8002c9c:	781a      	ldrb	r2, [r3, #0]
 8002c9e:	4b8f      	ldr	r3, [pc, #572]	@ (8002edc <RadioSetRxConfig+0x2fc>)
 8002ca0:	759a      	strb	r2, [r3, #22]
            SubgRf.PacketParams.Params.Gfsk.CrcLength = RADIO_CRC_OFF;
 8002ca2:	4b8e      	ldr	r3, [pc, #568]	@ (8002edc <RadioSetRxConfig+0x2fc>)
 8002ca4:	2201      	movs	r2, #1
 8002ca6:	75da      	strb	r2, [r3, #23]
            SubgRf.PacketParams.Params.Gfsk.DcFree = RADIO_DC_FREE_OFF;
 8002ca8:	4b8c      	ldr	r3, [pc, #560]	@ (8002edc <RadioSetRxConfig+0x2fc>)
 8002caa:	2200      	movs	r2, #0
 8002cac:	761a      	strb	r2, [r3, #24]
            RadioSetModem( MODEM_SIGFOX_RX );
 8002cae:	2005      	movs	r0, #5
 8002cb0:	f7ff fec2 	bl	8002a38 <RadioSetModem>
            SUBGRF_SetModulationParams( &SubgRf.ModulationParams );
 8002cb4:	488b      	ldr	r0, [pc, #556]	@ (8002ee4 <RadioSetRxConfig+0x304>)
 8002cb6:	f002 fae5 	bl	8005284 <SUBGRF_SetModulationParams>
            SUBGRF_SetPacketParams( &SubgRf.PacketParams );
 8002cba:	488b      	ldr	r0, [pc, #556]	@ (8002ee8 <RadioSetRxConfig+0x308>)
 8002cbc:	f002 fbb4 	bl	8005428 <SUBGRF_SetPacketParams>
            SUBGRF_SetSyncWord( ( uint8_t[] ){0xB2, 0x27, 0x00, 0x00, 0x00, 0x00, 0x00, 0x00 } );
 8002cc0:	4a8a      	ldr	r2, [pc, #552]	@ (8002eec <RadioSetRxConfig+0x30c>)
 8002cc2:	f107 031c 	add.w	r3, r7, #28
 8002cc6:	e892 0003 	ldmia.w	r2, {r0, r1}
 8002cca:	e883 0003 	stmia.w	r3, {r0, r1}
 8002cce:	f107 031c 	add.w	r3, r7, #28
 8002cd2:	4618      	mov	r0, r3
 8002cd4:	f001 fe71 	bl	80049ba <SUBGRF_SetSyncWord>
            SUBGRF_SetWhiteningSeed( 0x01FF );
 8002cd8:	f240 10ff 	movw	r0, #511	@ 0x1ff
 8002cdc:	f001 febc 	bl	8004a58 <SUBGRF_SetWhiteningSeed>
            modReg= RadioRead(SUBGHZ_AGCGFORSTCFGR);
 8002ce0:	f640 00b8 	movw	r0, #2232	@ 0x8b8
 8002ce4:	f000 fe1c 	bl	8003920 <RadioRead>
 8002ce8:	4603      	mov	r3, r0
 8002cea:	f887 3027 	strb.w	r3, [r7, #39]	@ 0x27
            modReg&=RADIO_BIT_MASK(4);
 8002cee:	f897 3027 	ldrb.w	r3, [r7, #39]	@ 0x27
 8002cf2:	f023 0310 	bic.w	r3, r3, #16
 8002cf6:	f887 3027 	strb.w	r3, [r7, #39]	@ 0x27
            RadioWrite(SUBGHZ_AGCGFORSTCFGR, modReg);
 8002cfa:	f897 3027 	ldrb.w	r3, [r7, #39]	@ 0x27
 8002cfe:	4619      	mov	r1, r3
 8002d00:	f640 00b8 	movw	r0, #2232	@ 0x8b8
 8002d04:	f000 fdfa 	bl	80038fc <RadioWrite>
            RadioWrite(SUBGHZ_AGCGFORSTPOWTHR, 0x4 );
 8002d08:	2104      	movs	r1, #4
 8002d0a:	f640 00b9 	movw	r0, #2233	@ 0x8b9
 8002d0e:	f000 fdf5 	bl	80038fc <RadioWrite>
            modReg= RadioRead(SUBGHZ_AGCRSSICTL0R);
 8002d12:	f640 009b 	movw	r0, #2203	@ 0x89b
 8002d16:	f000 fe03 	bl	8003920 <RadioRead>
 8002d1a:	4603      	mov	r3, r0
 8002d1c:	f887 3027 	strb.w	r3, [r7, #39]	@ 0x27
            modReg&=( RADIO_BIT_MASK(2) & RADIO_BIT_MASK(3) & RADIO_BIT_MASK(4) );
 8002d20:	f897 3027 	ldrb.w	r3, [r7, #39]	@ 0x27
 8002d24:	f023 031c 	bic.w	r3, r3, #28
 8002d28:	f887 3027 	strb.w	r3, [r7, #39]	@ 0x27
            RadioWrite(SUBGHZ_AGCRSSICTL0R, (modReg| (0x1<<3) ) );
 8002d2c:	f897 3027 	ldrb.w	r3, [r7, #39]	@ 0x27
 8002d30:	f043 0308 	orr.w	r3, r3, #8
 8002d34:	b2db      	uxtb	r3, r3
 8002d36:	4619      	mov	r1, r3
 8002d38:	f640 009b 	movw	r0, #2203	@ 0x89b
 8002d3c:	f000 fdde 	bl	80038fc <RadioWrite>
            modReg= RadioRead(SUBGHZ_GAFCR);
 8002d40:	f240 60d1 	movw	r0, #1745	@ 0x6d1
 8002d44:	f000 fdec 	bl	8003920 <RadioRead>
 8002d48:	4603      	mov	r3, r0
 8002d4a:	f887 3027 	strb.w	r3, [r7, #39]	@ 0x27
            modReg&=( RADIO_BIT_MASK(3) & RADIO_BIT_MASK(4) );
 8002d4e:	f897 3027 	ldrb.w	r3, [r7, #39]	@ 0x27
 8002d52:	f023 0318 	bic.w	r3, r3, #24
 8002d56:	f887 3027 	strb.w	r3, [r7, #39]	@ 0x27
            RadioWrite(SUBGHZ_GAFCR, (modReg| (0x3<<3) ));
 8002d5a:	f897 3027 	ldrb.w	r3, [r7, #39]	@ 0x27
 8002d5e:	f043 0318 	orr.w	r3, r3, #24
 8002d62:	b2db      	uxtb	r3, r3
 8002d64:	4619      	mov	r1, r3
 8002d66:	f240 60d1 	movw	r0, #1745	@ 0x6d1
 8002d6a:	f000 fdc7 	bl	80038fc <RadioWrite>
            modReg= RadioRead(SUBGHZ_GBSYNCR);
 8002d6e:	f240 60ac 	movw	r0, #1708	@ 0x6ac
 8002d72:	f000 fdd5 	bl	8003920 <RadioRead>
 8002d76:	4603      	mov	r3, r0
 8002d78:	f887 3027 	strb.w	r3, [r7, #39]	@ 0x27
            modReg&=( RADIO_BIT_MASK(4) & RADIO_BIT_MASK(5) & RADIO_BIT_MASK(6) );
 8002d7c:	f897 3027 	ldrb.w	r3, [r7, #39]	@ 0x27
 8002d80:	f023 0370 	bic.w	r3, r3, #112	@ 0x70
 8002d84:	f887 3027 	strb.w	r3, [r7, #39]	@ 0x27
            RadioWrite(SUBGHZ_GBSYNCR, (modReg| (0x5<<4) ));
 8002d88:	f897 3027 	ldrb.w	r3, [r7, #39]	@ 0x27
 8002d8c:	f043 0350 	orr.w	r3, r3, #80	@ 0x50
 8002d90:	b2db      	uxtb	r3, r3
 8002d92:	4619      	mov	r1, r3
 8002d94:	f240 60ac 	movw	r0, #1708	@ 0x6ac
 8002d98:	f000 fdb0 	bl	80038fc <RadioWrite>
            SubgRf.RxTimeout = ( uint32_t )(( symbTimeout * 8 * 1000 ) /datarate);
 8002d9c:	8f3b      	ldrh	r3, [r7, #56]	@ 0x38
 8002d9e:	f44f 52fa 	mov.w	r2, #8000	@ 0x1f40
 8002da2:	fb02 f303 	mul.w	r3, r2, r3
 8002da6:	461a      	mov	r2, r3
 8002da8:	687b      	ldr	r3, [r7, #4]
 8002daa:	fbb2 f3f3 	udiv	r3, r2, r3
 8002dae:	4a4b      	ldr	r2, [pc, #300]	@ (8002edc <RadioSetRxConfig+0x2fc>)
 8002db0:	6093      	str	r3, [r2, #8]
            break;
 8002db2:	e115      	b.n	8002fe0 <RadioSetRxConfig+0x400>
            SUBGRF_SetStopRxTimerOnPreambleDetect( false );
 8002db4:	2000      	movs	r0, #0
 8002db6:	f001 ffc7 	bl	8004d48 <SUBGRF_SetStopRxTimerOnPreambleDetect>
            SubgRf.ModulationParams.PacketType = PACKET_TYPE_GFSK;
 8002dba:	4b48      	ldr	r3, [pc, #288]	@ (8002edc <RadioSetRxConfig+0x2fc>)
 8002dbc:	2200      	movs	r2, #0
 8002dbe:	f883 2038 	strb.w	r2, [r3, #56]	@ 0x38
            SubgRf.ModulationParams.Params.Gfsk.BitRate = datarate;
 8002dc2:	4a46      	ldr	r2, [pc, #280]	@ (8002edc <RadioSetRxConfig+0x2fc>)
 8002dc4:	687b      	ldr	r3, [r7, #4]
 8002dc6:	63d3      	str	r3, [r2, #60]	@ 0x3c
            SubgRf.ModulationParams.Params.Gfsk.ModulationShaping = MOD_SHAPING_G_BT_1;
 8002dc8:	4b44      	ldr	r3, [pc, #272]	@ (8002edc <RadioSetRxConfig+0x2fc>)
 8002dca:	220b      	movs	r2, #11
 8002dcc:	f883 2044 	strb.w	r2, [r3, #68]	@ 0x44
            SubgRf.ModulationParams.Params.Gfsk.Bandwidth = SUBGRF_GetFskBandwidthRegValue( bandwidth );
 8002dd0:	68b8      	ldr	r0, [r7, #8]
 8002dd2:	f002 fe03 	bl	80059dc <SUBGRF_GetFskBandwidthRegValue>
 8002dd6:	4603      	mov	r3, r0
 8002dd8:	461a      	mov	r2, r3
 8002dda:	4b40      	ldr	r3, [pc, #256]	@ (8002edc <RadioSetRxConfig+0x2fc>)
 8002ddc:	f883 2045 	strb.w	r2, [r3, #69]	@ 0x45
            SubgRf.PacketParams.PacketType = PACKET_TYPE_GFSK;
 8002de0:	4b3e      	ldr	r3, [pc, #248]	@ (8002edc <RadioSetRxConfig+0x2fc>)
 8002de2:	2200      	movs	r2, #0
 8002de4:	739a      	strb	r2, [r3, #14]
            SubgRf.PacketParams.Params.Gfsk.PreambleLength = ( preambleLen << 3 ); // convert byte into bit
 8002de6:	8ebb      	ldrh	r3, [r7, #52]	@ 0x34
 8002de8:	00db      	lsls	r3, r3, #3
 8002dea:	b29a      	uxth	r2, r3
 8002dec:	4b3b      	ldr	r3, [pc, #236]	@ (8002edc <RadioSetRxConfig+0x2fc>)
 8002dee:	821a      	strh	r2, [r3, #16]
            SubgRf.PacketParams.Params.Gfsk.PreambleMinDetect = RADIO_PREAMBLE_DETECTOR_08_BITS;
 8002df0:	4b3a      	ldr	r3, [pc, #232]	@ (8002edc <RadioSetRxConfig+0x2fc>)
 8002df2:	2204      	movs	r2, #4
 8002df4:	749a      	strb	r2, [r3, #18]
            SubgRf.PacketParams.Params.Gfsk.SyncWordLength = 3 << 3; // convert byte into bit
 8002df6:	4b39      	ldr	r3, [pc, #228]	@ (8002edc <RadioSetRxConfig+0x2fc>)
 8002df8:	2218      	movs	r2, #24
 8002dfa:	74da      	strb	r2, [r3, #19]
            SubgRf.PacketParams.Params.Gfsk.AddrComp = RADIO_ADDRESSCOMP_FILT_OFF;
 8002dfc:	4b37      	ldr	r3, [pc, #220]	@ (8002edc <RadioSetRxConfig+0x2fc>)
 8002dfe:	2200      	movs	r2, #0
 8002e00:	751a      	strb	r2, [r3, #20]
            SubgRf.PacketParams.Params.Gfsk.HeaderType = ( fixLen == true ) ? RADIO_PACKET_FIXED_LENGTH : RADIO_PACKET_VARIABLE_LENGTH;
 8002e02:	f897 303c 	ldrb.w	r3, [r7, #60]	@ 0x3c
 8002e06:	f083 0301 	eor.w	r3, r3, #1
 8002e0a:	b2db      	uxtb	r3, r3
 8002e0c:	461a      	mov	r2, r3
 8002e0e:	4b33      	ldr	r3, [pc, #204]	@ (8002edc <RadioSetRxConfig+0x2fc>)
 8002e10:	755a      	strb	r2, [r3, #21]
            SubgRf.PacketParams.Params.Gfsk.PayloadLength = MaxPayloadLength;
 8002e12:	4b33      	ldr	r3, [pc, #204]	@ (8002ee0 <RadioSetRxConfig+0x300>)
 8002e14:	781a      	ldrb	r2, [r3, #0]
 8002e16:	4b31      	ldr	r3, [pc, #196]	@ (8002edc <RadioSetRxConfig+0x2fc>)
 8002e18:	759a      	strb	r2, [r3, #22]
            if( crcOn == true )
 8002e1a:	f897 3044 	ldrb.w	r3, [r7, #68]	@ 0x44
 8002e1e:	2b00      	cmp	r3, #0
 8002e20:	d003      	beq.n	8002e2a <RadioSetRxConfig+0x24a>
                SubgRf.PacketParams.Params.Gfsk.CrcLength = RADIO_CRC_2_BYTES_CCIT;
 8002e22:	4b2e      	ldr	r3, [pc, #184]	@ (8002edc <RadioSetRxConfig+0x2fc>)
 8002e24:	22f2      	movs	r2, #242	@ 0xf2
 8002e26:	75da      	strb	r2, [r3, #23]
 8002e28:	e002      	b.n	8002e30 <RadioSetRxConfig+0x250>
                SubgRf.PacketParams.Params.Gfsk.CrcLength = RADIO_CRC_OFF;
 8002e2a:	4b2c      	ldr	r3, [pc, #176]	@ (8002edc <RadioSetRxConfig+0x2fc>)
 8002e2c:	2201      	movs	r2, #1
 8002e2e:	75da      	strb	r2, [r3, #23]
            SubgRf.PacketParams.Params.Gfsk.DcFree = RADIO_DC_FREEWHITENING;
 8002e30:	4b2a      	ldr	r3, [pc, #168]	@ (8002edc <RadioSetRxConfig+0x2fc>)
 8002e32:	2201      	movs	r2, #1
 8002e34:	761a      	strb	r2, [r3, #24]
            RadioStandby( );
 8002e36:	f000 fc60 	bl	80036fa <RadioStandby>
            RadioSetModem( MODEM_FSK );
 8002e3a:	2000      	movs	r0, #0
 8002e3c:	f7ff fdfc 	bl	8002a38 <RadioSetModem>
            SUBGRF_SetModulationParams( &SubgRf.ModulationParams );
 8002e40:	4828      	ldr	r0, [pc, #160]	@ (8002ee4 <RadioSetRxConfig+0x304>)
 8002e42:	f002 fa1f 	bl	8005284 <SUBGRF_SetModulationParams>
            SUBGRF_SetPacketParams( &SubgRf.PacketParams );
 8002e46:	4828      	ldr	r0, [pc, #160]	@ (8002ee8 <RadioSetRxConfig+0x308>)
 8002e48:	f002 faee 	bl	8005428 <SUBGRF_SetPacketParams>
            SUBGRF_SetSyncWord( ( uint8_t[] ){ 0xC1, 0x94, 0xC1, 0x00, 0x00, 0x00, 0x00, 0x00 } );
 8002e4c:	4a28      	ldr	r2, [pc, #160]	@ (8002ef0 <RadioSetRxConfig+0x310>)
 8002e4e:	f107 0314 	add.w	r3, r7, #20
 8002e52:	e892 0003 	ldmia.w	r2, {r0, r1}
 8002e56:	e883 0003 	stmia.w	r3, {r0, r1}
 8002e5a:	f107 0314 	add.w	r3, r7, #20
 8002e5e:	4618      	mov	r0, r3
 8002e60:	f001 fdab 	bl	80049ba <SUBGRF_SetSyncWord>
            SUBGRF_SetWhiteningSeed( 0x01FF );
 8002e64:	f240 10ff 	movw	r0, #511	@ 0x1ff
 8002e68:	f001 fdf6 	bl	8004a58 <SUBGRF_SetWhiteningSeed>
            SubgRf.RxTimeout = ( uint32_t )(( symbTimeout * 8 * 1000 ) /datarate);
 8002e6c:	8f3b      	ldrh	r3, [r7, #56]	@ 0x38
 8002e6e:	f44f 52fa 	mov.w	r2, #8000	@ 0x1f40
 8002e72:	fb02 f303 	mul.w	r3, r2, r3
 8002e76:	461a      	mov	r2, r3
 8002e78:	687b      	ldr	r3, [r7, #4]
 8002e7a:	fbb2 f3f3 	udiv	r3, r2, r3
 8002e7e:	4a17      	ldr	r2, [pc, #92]	@ (8002edc <RadioSetRxConfig+0x2fc>)
 8002e80:	6093      	str	r3, [r2, #8]
            break;
 8002e82:	e0ad      	b.n	8002fe0 <RadioSetRxConfig+0x400>
            SUBGRF_SetStopRxTimerOnPreambleDetect( false );
 8002e84:	2000      	movs	r0, #0
 8002e86:	f001 ff5f 	bl	8004d48 <SUBGRF_SetStopRxTimerOnPreambleDetect>
            SubgRf.ModulationParams.PacketType = PACKET_TYPE_LORA;
 8002e8a:	4b14      	ldr	r3, [pc, #80]	@ (8002edc <RadioSetRxConfig+0x2fc>)
 8002e8c:	2201      	movs	r2, #1
 8002e8e:	f883 2038 	strb.w	r2, [r3, #56]	@ 0x38
            SubgRf.ModulationParams.Params.LoRa.SpreadingFactor = ( RadioLoRaSpreadingFactors_t )datarate;
 8002e92:	687b      	ldr	r3, [r7, #4]
 8002e94:	b2da      	uxtb	r2, r3
 8002e96:	4b11      	ldr	r3, [pc, #68]	@ (8002edc <RadioSetRxConfig+0x2fc>)
 8002e98:	f883 2050 	strb.w	r2, [r3, #80]	@ 0x50
            SubgRf.ModulationParams.Params.LoRa.Bandwidth = Bandwidths[bandwidth];
 8002e9c:	4a15      	ldr	r2, [pc, #84]	@ (8002ef4 <RadioSetRxConfig+0x314>)
 8002e9e:	68bb      	ldr	r3, [r7, #8]
 8002ea0:	4413      	add	r3, r2
 8002ea2:	781a      	ldrb	r2, [r3, #0]
 8002ea4:	4b0d      	ldr	r3, [pc, #52]	@ (8002edc <RadioSetRxConfig+0x2fc>)
 8002ea6:	f883 2051 	strb.w	r2, [r3, #81]	@ 0x51
            SubgRf.ModulationParams.Params.LoRa.CodingRate = ( RadioLoRaCodingRates_t )coderate;
 8002eaa:	4a0c      	ldr	r2, [pc, #48]	@ (8002edc <RadioSetRxConfig+0x2fc>)
 8002eac:	7bbb      	ldrb	r3, [r7, #14]
 8002eae:	f882 3052 	strb.w	r3, [r2, #82]	@ 0x52
            if( ( ( bandwidth == 0 ) && ( ( datarate == 11 ) || ( datarate == 12 ) ) ) ||
 8002eb2:	68bb      	ldr	r3, [r7, #8]
 8002eb4:	2b00      	cmp	r3, #0
 8002eb6:	d105      	bne.n	8002ec4 <RadioSetRxConfig+0x2e4>
 8002eb8:	687b      	ldr	r3, [r7, #4]
 8002eba:	2b0b      	cmp	r3, #11
 8002ebc:	d008      	beq.n	8002ed0 <RadioSetRxConfig+0x2f0>
 8002ebe:	687b      	ldr	r3, [r7, #4]
 8002ec0:	2b0c      	cmp	r3, #12
 8002ec2:	d005      	beq.n	8002ed0 <RadioSetRxConfig+0x2f0>
 8002ec4:	68bb      	ldr	r3, [r7, #8]
 8002ec6:	2b01      	cmp	r3, #1
 8002ec8:	d116      	bne.n	8002ef8 <RadioSetRxConfig+0x318>
                ( ( bandwidth == 1 ) && ( datarate == 12 ) ) )
 8002eca:	687b      	ldr	r3, [r7, #4]
 8002ecc:	2b0c      	cmp	r3, #12
 8002ece:	d113      	bne.n	8002ef8 <RadioSetRxConfig+0x318>
                SubgRf.ModulationParams.Params.LoRa.LowDatarateOptimize = 0x01;
 8002ed0:	4b02      	ldr	r3, [pc, #8]	@ (8002edc <RadioSetRxConfig+0x2fc>)
 8002ed2:	2201      	movs	r2, #1
 8002ed4:	f883 2053 	strb.w	r2, [r3, #83]	@ 0x53
 8002ed8:	e012      	b.n	8002f00 <RadioSetRxConfig+0x320>
 8002eda:	bf00      	nop
 8002edc:	200001a4 	.word	0x200001a4
 8002ee0:	20000009 	.word	0x20000009
 8002ee4:	200001dc 	.word	0x200001dc
 8002ee8:	200001b2 	.word	0x200001b2
 8002eec:	080071d0 	.word	0x080071d0
 8002ef0:	080071d8 	.word	0x080071d8
 8002ef4:	08007354 	.word	0x08007354
                SubgRf.ModulationParams.Params.LoRa.LowDatarateOptimize = 0x00;
 8002ef8:	4b3b      	ldr	r3, [pc, #236]	@ (8002fe8 <RadioSetRxConfig+0x408>)
 8002efa:	2200      	movs	r2, #0
 8002efc:	f883 2053 	strb.w	r2, [r3, #83]	@ 0x53
            SubgRf.PacketParams.PacketType = PACKET_TYPE_LORA;
 8002f00:	4b39      	ldr	r3, [pc, #228]	@ (8002fe8 <RadioSetRxConfig+0x408>)
 8002f02:	2201      	movs	r2, #1
 8002f04:	739a      	strb	r2, [r3, #14]
            if( ( SubgRf.ModulationParams.Params.LoRa.SpreadingFactor == LORA_SF5 ) ||
 8002f06:	4b38      	ldr	r3, [pc, #224]	@ (8002fe8 <RadioSetRxConfig+0x408>)
 8002f08:	f893 3050 	ldrb.w	r3, [r3, #80]	@ 0x50
 8002f0c:	2b05      	cmp	r3, #5
 8002f0e:	d004      	beq.n	8002f1a <RadioSetRxConfig+0x33a>
                ( SubgRf.ModulationParams.Params.LoRa.SpreadingFactor == LORA_SF6 ) )
 8002f10:	4b35      	ldr	r3, [pc, #212]	@ (8002fe8 <RadioSetRxConfig+0x408>)
 8002f12:	f893 3050 	ldrb.w	r3, [r3, #80]	@ 0x50
            if( ( SubgRf.ModulationParams.Params.LoRa.SpreadingFactor == LORA_SF5 ) ||
 8002f16:	2b06      	cmp	r3, #6
 8002f18:	d10a      	bne.n	8002f30 <RadioSetRxConfig+0x350>
                if( preambleLen < 12 )
 8002f1a:	8ebb      	ldrh	r3, [r7, #52]	@ 0x34
 8002f1c:	2b0b      	cmp	r3, #11
 8002f1e:	d803      	bhi.n	8002f28 <RadioSetRxConfig+0x348>
                    SubgRf.PacketParams.Params.LoRa.PreambleLength = 12;
 8002f20:	4b31      	ldr	r3, [pc, #196]	@ (8002fe8 <RadioSetRxConfig+0x408>)
 8002f22:	220c      	movs	r2, #12
 8002f24:	839a      	strh	r2, [r3, #28]
                if( preambleLen < 12 )
 8002f26:	e006      	b.n	8002f36 <RadioSetRxConfig+0x356>
                    SubgRf.PacketParams.Params.LoRa.PreambleLength = preambleLen;
 8002f28:	4a2f      	ldr	r2, [pc, #188]	@ (8002fe8 <RadioSetRxConfig+0x408>)
 8002f2a:	8ebb      	ldrh	r3, [r7, #52]	@ 0x34
 8002f2c:	8393      	strh	r3, [r2, #28]
                if( preambleLen < 12 )
 8002f2e:	e002      	b.n	8002f36 <RadioSetRxConfig+0x356>
                SubgRf.PacketParams.Params.LoRa.PreambleLength = preambleLen;
 8002f30:	4a2d      	ldr	r2, [pc, #180]	@ (8002fe8 <RadioSetRxConfig+0x408>)
 8002f32:	8ebb      	ldrh	r3, [r7, #52]	@ 0x34
 8002f34:	8393      	strh	r3, [r2, #28]
            SubgRf.PacketParams.Params.LoRa.HeaderType = ( RadioLoRaPacketLengthsMode_t )fixLen;
 8002f36:	f897 203c 	ldrb.w	r2, [r7, #60]	@ 0x3c
 8002f3a:	4b2b      	ldr	r3, [pc, #172]	@ (8002fe8 <RadioSetRxConfig+0x408>)
 8002f3c:	779a      	strb	r2, [r3, #30]
            SubgRf.PacketParams.Params.LoRa.PayloadLength = MaxPayloadLength;
 8002f3e:	4b2b      	ldr	r3, [pc, #172]	@ (8002fec <RadioSetRxConfig+0x40c>)
 8002f40:	781a      	ldrb	r2, [r3, #0]
 8002f42:	4b29      	ldr	r3, [pc, #164]	@ (8002fe8 <RadioSetRxConfig+0x408>)
 8002f44:	77da      	strb	r2, [r3, #31]
            SubgRf.PacketParams.Params.LoRa.CrcMode = ( RadioLoRaCrcModes_t )crcOn;
 8002f46:	f897 2044 	ldrb.w	r2, [r7, #68]	@ 0x44
 8002f4a:	4b27      	ldr	r3, [pc, #156]	@ (8002fe8 <RadioSetRxConfig+0x408>)
 8002f4c:	f883 2020 	strb.w	r2, [r3, #32]
            SubgRf.PacketParams.Params.LoRa.InvertIQ = ( RadioLoRaIQModes_t )iqInverted;
 8002f50:	f897 2050 	ldrb.w	r2, [r7, #80]	@ 0x50
 8002f54:	4b24      	ldr	r3, [pc, #144]	@ (8002fe8 <RadioSetRxConfig+0x408>)
 8002f56:	f883 2021 	strb.w	r2, [r3, #33]	@ 0x21
            RadioStandby( );
 8002f5a:	f000 fbce 	bl	80036fa <RadioStandby>
            RadioSetModem( MODEM_LORA );
 8002f5e:	2001      	movs	r0, #1
 8002f60:	f7ff fd6a 	bl	8002a38 <RadioSetModem>
            SUBGRF_SetModulationParams( &SubgRf.ModulationParams );
 8002f64:	4822      	ldr	r0, [pc, #136]	@ (8002ff0 <RadioSetRxConfig+0x410>)
 8002f66:	f002 f98d 	bl	8005284 <SUBGRF_SetModulationParams>
            SUBGRF_SetPacketParams( &SubgRf.PacketParams );
 8002f6a:	4822      	ldr	r0, [pc, #136]	@ (8002ff4 <RadioSetRxConfig+0x414>)
 8002f6c:	f002 fa5c 	bl	8005428 <SUBGRF_SetPacketParams>
            SUBGRF_SetLoRaSymbNumTimeout( symbTimeout );
 8002f70:	8f3b      	ldrh	r3, [r7, #56]	@ 0x38
 8002f72:	b2db      	uxtb	r3, r3
 8002f74:	4618      	mov	r0, r3
 8002f76:	f001 fef6 	bl	8004d66 <SUBGRF_SetLoRaSymbNumTimeout>
            SUBGRF_WriteRegister(SUBGHZ_AGCCFG,SUBGRF_ReadRegister(SUBGHZ_AGCCFG)&0x1);
 8002f7a:	f640 00a3 	movw	r0, #2211	@ 0x8a3
 8002f7e:	f002 fbbd 	bl	80056fc <SUBGRF_ReadRegister>
 8002f82:	4603      	mov	r3, r0
 8002f84:	f003 0301 	and.w	r3, r3, #1
 8002f88:	b2db      	uxtb	r3, r3
 8002f8a:	4619      	mov	r1, r3
 8002f8c:	f640 00a3 	movw	r0, #2211	@ 0x8a3
 8002f90:	f002 fb92 	bl	80056b8 <SUBGRF_WriteRegister>
            if( SubgRf.PacketParams.Params.LoRa.InvertIQ == LORA_IQ_INVERTED )
 8002f94:	4b14      	ldr	r3, [pc, #80]	@ (8002fe8 <RadioSetRxConfig+0x408>)
 8002f96:	f893 3021 	ldrb.w	r3, [r3, #33]	@ 0x21
 8002f9a:	2b01      	cmp	r3, #1
 8002f9c:	d10d      	bne.n	8002fba <RadioSetRxConfig+0x3da>
                SUBGRF_WriteRegister( SUBGHZ_LIQPOLR, SUBGRF_ReadRegister( SUBGHZ_LIQPOLR ) & ~( 1 << 2 ) );
 8002f9e:	f240 7036 	movw	r0, #1846	@ 0x736
 8002fa2:	f002 fbab 	bl	80056fc <SUBGRF_ReadRegister>
 8002fa6:	4603      	mov	r3, r0
 8002fa8:	f023 0304 	bic.w	r3, r3, #4
 8002fac:	b2db      	uxtb	r3, r3
 8002fae:	4619      	mov	r1, r3
 8002fb0:	f240 7036 	movw	r0, #1846	@ 0x736
 8002fb4:	f002 fb80 	bl	80056b8 <SUBGRF_WriteRegister>
 8002fb8:	e00c      	b.n	8002fd4 <RadioSetRxConfig+0x3f4>
                SUBGRF_WriteRegister( SUBGHZ_LIQPOLR, SUBGRF_ReadRegister( SUBGHZ_LIQPOLR ) | ( 1 << 2 ) );
 8002fba:	f240 7036 	movw	r0, #1846	@ 0x736
 8002fbe:	f002 fb9d 	bl	80056fc <SUBGRF_ReadRegister>
 8002fc2:	4603      	mov	r3, r0
 8002fc4:	f043 0304 	orr.w	r3, r3, #4
 8002fc8:	b2db      	uxtb	r3, r3
 8002fca:	4619      	mov	r1, r3
 8002fcc:	f240 7036 	movw	r0, #1846	@ 0x736
 8002fd0:	f002 fb72 	bl	80056b8 <SUBGRF_WriteRegister>
            SubgRf.RxTimeout = 0xFFFF;
 8002fd4:	4b04      	ldr	r3, [pc, #16]	@ (8002fe8 <RadioSetRxConfig+0x408>)
 8002fd6:	f64f 72ff 	movw	r2, #65535	@ 0xffff
 8002fda:	609a      	str	r2, [r3, #8]
            break;
 8002fdc:	e000      	b.n	8002fe0 <RadioSetRxConfig+0x400>
            break;
 8002fde:	bf00      	nop
    }
}
 8002fe0:	bf00      	nop
 8002fe2:	3728      	adds	r7, #40	@ 0x28
 8002fe4:	46bd      	mov	sp, r7
 8002fe6:	bd80      	pop	{r7, pc}
 8002fe8:	200001a4 	.word	0x200001a4
 8002fec:	20000009 	.word	0x20000009
 8002ff0:	200001dc 	.word	0x200001dc
 8002ff4:	200001b2 	.word	0x200001b2

08002ff8 <RadioSetTxConfig>:
static void RadioSetTxConfig( RadioModems_t modem, int8_t power, uint32_t fdev,
                              uint32_t bandwidth, uint32_t datarate,
                              uint8_t coderate, uint16_t preambleLen,
                              bool fixLen, bool crcOn, bool freqHopOn,
                              uint8_t hopPeriod, bool iqInverted, uint32_t timeout )
{
 8002ff8:	b580      	push	{r7, lr}
 8002ffa:	b086      	sub	sp, #24
 8002ffc:	af00      	add	r7, sp, #0
 8002ffe:	60ba      	str	r2, [r7, #8]
 8003000:	607b      	str	r3, [r7, #4]
 8003002:	4603      	mov	r3, r0
 8003004:	73fb      	strb	r3, [r7, #15]
 8003006:	460b      	mov	r3, r1
 8003008:	73bb      	strb	r3, [r7, #14]
#if( RADIO_LR_FHSS_IS_ON == 1 )
    /*disable LrFhss*/
    SubgRf.lr_fhss.is_lr_fhss_on = false;
#endif /* RADIO_LR_FHSS_IS_ON == 1 */
    RFW_DeInit();
 800300a:	f002 fdb4 	bl	8005b76 <RFW_DeInit>
    switch( modem )
 800300e:	7bfb      	ldrb	r3, [r7, #15]
 8003010:	2b04      	cmp	r3, #4
 8003012:	f000 80c7 	beq.w	80031a4 <RadioSetTxConfig+0x1ac>
 8003016:	2b04      	cmp	r3, #4
 8003018:	f300 80d6 	bgt.w	80031c8 <RadioSetTxConfig+0x1d0>
 800301c:	2b00      	cmp	r3, #0
 800301e:	d002      	beq.n	8003026 <RadioSetTxConfig+0x2e>
 8003020:	2b01      	cmp	r3, #1
 8003022:	d059      	beq.n	80030d8 <RadioSetTxConfig+0xe0>
            SubgRf.ModulationParams.Params.Bpsk.ModulationShaping = MOD_SHAPING_DBPSK;
            SUBGRF_SetModulationParams( &SubgRf.ModulationParams );
            break;
#endif /*RADIO_SIGFOX_ENABLE == 1*/
        default:
            break;
 8003024:	e0d0      	b.n	80031c8 <RadioSetTxConfig+0x1d0>
            SubgRf.ModulationParams.PacketType = PACKET_TYPE_GFSK;
 8003026:	4b77      	ldr	r3, [pc, #476]	@ (8003204 <RadioSetTxConfig+0x20c>)
 8003028:	2200      	movs	r2, #0
 800302a:	f883 2038 	strb.w	r2, [r3, #56]	@ 0x38
            SubgRf.ModulationParams.Params.Gfsk.BitRate = datarate;
 800302e:	4a75      	ldr	r2, [pc, #468]	@ (8003204 <RadioSetTxConfig+0x20c>)
 8003030:	6a3b      	ldr	r3, [r7, #32]
 8003032:	63d3      	str	r3, [r2, #60]	@ 0x3c
            SubgRf.ModulationParams.Params.Gfsk.ModulationShaping = MOD_SHAPING_G_BT_1;
 8003034:	4b73      	ldr	r3, [pc, #460]	@ (8003204 <RadioSetTxConfig+0x20c>)
 8003036:	220b      	movs	r2, #11
 8003038:	f883 2044 	strb.w	r2, [r3, #68]	@ 0x44
            SubgRf.ModulationParams.Params.Gfsk.Bandwidth = SUBGRF_GetFskBandwidthRegValue( bandwidth );
 800303c:	6878      	ldr	r0, [r7, #4]
 800303e:	f002 fccd 	bl	80059dc <SUBGRF_GetFskBandwidthRegValue>
 8003042:	4603      	mov	r3, r0
 8003044:	461a      	mov	r2, r3
 8003046:	4b6f      	ldr	r3, [pc, #444]	@ (8003204 <RadioSetTxConfig+0x20c>)
 8003048:	f883 2045 	strb.w	r2, [r3, #69]	@ 0x45
            SubgRf.ModulationParams.Params.Gfsk.Fdev = fdev;
 800304c:	4a6d      	ldr	r2, [pc, #436]	@ (8003204 <RadioSetTxConfig+0x20c>)
 800304e:	68bb      	ldr	r3, [r7, #8]
 8003050:	6413      	str	r3, [r2, #64]	@ 0x40
            SubgRf.PacketParams.PacketType = PACKET_TYPE_GFSK;
 8003052:	4b6c      	ldr	r3, [pc, #432]	@ (8003204 <RadioSetTxConfig+0x20c>)
 8003054:	2200      	movs	r2, #0
 8003056:	739a      	strb	r2, [r3, #14]
            SubgRf.PacketParams.Params.Gfsk.PreambleLength = ( preambleLen << 3 ); // convert byte into bit
 8003058:	8d3b      	ldrh	r3, [r7, #40]	@ 0x28
 800305a:	00db      	lsls	r3, r3, #3
 800305c:	b29a      	uxth	r2, r3
 800305e:	4b69      	ldr	r3, [pc, #420]	@ (8003204 <RadioSetTxConfig+0x20c>)
 8003060:	821a      	strh	r2, [r3, #16]
            SubgRf.PacketParams.Params.Gfsk.PreambleMinDetect = RADIO_PREAMBLE_DETECTOR_08_BITS;
 8003062:	4b68      	ldr	r3, [pc, #416]	@ (8003204 <RadioSetTxConfig+0x20c>)
 8003064:	2204      	movs	r2, #4
 8003066:	749a      	strb	r2, [r3, #18]
            SubgRf.PacketParams.Params.Gfsk.SyncWordLength = 3 << 3 ; // convert byte into bit
 8003068:	4b66      	ldr	r3, [pc, #408]	@ (8003204 <RadioSetTxConfig+0x20c>)
 800306a:	2218      	movs	r2, #24
 800306c:	74da      	strb	r2, [r3, #19]
            SubgRf.PacketParams.Params.Gfsk.AddrComp = RADIO_ADDRESSCOMP_FILT_OFF;
 800306e:	4b65      	ldr	r3, [pc, #404]	@ (8003204 <RadioSetTxConfig+0x20c>)
 8003070:	2200      	movs	r2, #0
 8003072:	751a      	strb	r2, [r3, #20]
            SubgRf.PacketParams.Params.Gfsk.HeaderType = ( fixLen == true ) ? RADIO_PACKET_FIXED_LENGTH : RADIO_PACKET_VARIABLE_LENGTH;
 8003074:	f897 302c 	ldrb.w	r3, [r7, #44]	@ 0x2c
 8003078:	f083 0301 	eor.w	r3, r3, #1
 800307c:	b2db      	uxtb	r3, r3
 800307e:	461a      	mov	r2, r3
 8003080:	4b60      	ldr	r3, [pc, #384]	@ (8003204 <RadioSetTxConfig+0x20c>)
 8003082:	755a      	strb	r2, [r3, #21]
            if( crcOn == true )
 8003084:	f897 3030 	ldrb.w	r3, [r7, #48]	@ 0x30
 8003088:	2b00      	cmp	r3, #0
 800308a:	d003      	beq.n	8003094 <RadioSetTxConfig+0x9c>
                SubgRf.PacketParams.Params.Gfsk.CrcLength = RADIO_CRC_2_BYTES_CCIT;
 800308c:	4b5d      	ldr	r3, [pc, #372]	@ (8003204 <RadioSetTxConfig+0x20c>)
 800308e:	22f2      	movs	r2, #242	@ 0xf2
 8003090:	75da      	strb	r2, [r3, #23]
 8003092:	e002      	b.n	800309a <RadioSetTxConfig+0xa2>
                SubgRf.PacketParams.Params.Gfsk.CrcLength = RADIO_CRC_OFF;
 8003094:	4b5b      	ldr	r3, [pc, #364]	@ (8003204 <RadioSetTxConfig+0x20c>)
 8003096:	2201      	movs	r2, #1
 8003098:	75da      	strb	r2, [r3, #23]
            SubgRf.PacketParams.Params.Gfsk.DcFree = RADIO_DC_FREEWHITENING;
 800309a:	4b5a      	ldr	r3, [pc, #360]	@ (8003204 <RadioSetTxConfig+0x20c>)
 800309c:	2201      	movs	r2, #1
 800309e:	761a      	strb	r2, [r3, #24]
            RadioStandby( );
 80030a0:	f000 fb2b 	bl	80036fa <RadioStandby>
            RadioSetModem(  MODEM_FSK  );
 80030a4:	2000      	movs	r0, #0
 80030a6:	f7ff fcc7 	bl	8002a38 <RadioSetModem>
            SUBGRF_SetModulationParams( &SubgRf.ModulationParams );
 80030aa:	4857      	ldr	r0, [pc, #348]	@ (8003208 <RadioSetTxConfig+0x210>)
 80030ac:	f002 f8ea 	bl	8005284 <SUBGRF_SetModulationParams>
            SUBGRF_SetPacketParams( &SubgRf.PacketParams );
 80030b0:	4856      	ldr	r0, [pc, #344]	@ (800320c <RadioSetTxConfig+0x214>)
 80030b2:	f002 f9b9 	bl	8005428 <SUBGRF_SetPacketParams>
            SUBGRF_SetSyncWord( ( uint8_t[] ){ 0xC1, 0x94, 0xC1, 0x00, 0x00, 0x00, 0x00, 0x00 } );
 80030b6:	4a56      	ldr	r2, [pc, #344]	@ (8003210 <RadioSetTxConfig+0x218>)
 80030b8:	f107 0310 	add.w	r3, r7, #16
 80030bc:	e892 0003 	ldmia.w	r2, {r0, r1}
 80030c0:	e883 0003 	stmia.w	r3, {r0, r1}
 80030c4:	f107 0310 	add.w	r3, r7, #16
 80030c8:	4618      	mov	r0, r3
 80030ca:	f001 fc76 	bl	80049ba <SUBGRF_SetSyncWord>
            SUBGRF_SetWhiteningSeed( 0x01FF );
 80030ce:	f240 10ff 	movw	r0, #511	@ 0x1ff
 80030d2:	f001 fcc1 	bl	8004a58 <SUBGRF_SetWhiteningSeed>
            break;
 80030d6:	e078      	b.n	80031ca <RadioSetTxConfig+0x1d2>
            SubgRf.ModulationParams.PacketType = PACKET_TYPE_LORA;
 80030d8:	4b4a      	ldr	r3, [pc, #296]	@ (8003204 <RadioSetTxConfig+0x20c>)
 80030da:	2201      	movs	r2, #1
 80030dc:	f883 2038 	strb.w	r2, [r3, #56]	@ 0x38
            SubgRf.ModulationParams.Params.LoRa.SpreadingFactor = ( RadioLoRaSpreadingFactors_t ) datarate;
 80030e0:	6a3b      	ldr	r3, [r7, #32]
 80030e2:	b2da      	uxtb	r2, r3
 80030e4:	4b47      	ldr	r3, [pc, #284]	@ (8003204 <RadioSetTxConfig+0x20c>)
 80030e6:	f883 2050 	strb.w	r2, [r3, #80]	@ 0x50
            SubgRf.ModulationParams.Params.LoRa.Bandwidth =  Bandwidths[bandwidth];
 80030ea:	4a4a      	ldr	r2, [pc, #296]	@ (8003214 <RadioSetTxConfig+0x21c>)
 80030ec:	687b      	ldr	r3, [r7, #4]
 80030ee:	4413      	add	r3, r2
 80030f0:	781a      	ldrb	r2, [r3, #0]
 80030f2:	4b44      	ldr	r3, [pc, #272]	@ (8003204 <RadioSetTxConfig+0x20c>)
 80030f4:	f883 2051 	strb.w	r2, [r3, #81]	@ 0x51
            SubgRf.ModulationParams.Params.LoRa.CodingRate= ( RadioLoRaCodingRates_t )coderate;
 80030f8:	4a42      	ldr	r2, [pc, #264]	@ (8003204 <RadioSetTxConfig+0x20c>)
 80030fa:	f897 3024 	ldrb.w	r3, [r7, #36]	@ 0x24
 80030fe:	f882 3052 	strb.w	r3, [r2, #82]	@ 0x52
            if( ( ( bandwidth == 0 ) && ( ( datarate == 11 ) || ( datarate == 12 ) ) ) ||
 8003102:	687b      	ldr	r3, [r7, #4]
 8003104:	2b00      	cmp	r3, #0
 8003106:	d105      	bne.n	8003114 <RadioSetTxConfig+0x11c>
 8003108:	6a3b      	ldr	r3, [r7, #32]
 800310a:	2b0b      	cmp	r3, #11
 800310c:	d008      	beq.n	8003120 <RadioSetTxConfig+0x128>
 800310e:	6a3b      	ldr	r3, [r7, #32]
 8003110:	2b0c      	cmp	r3, #12
 8003112:	d005      	beq.n	8003120 <RadioSetTxConfig+0x128>
 8003114:	687b      	ldr	r3, [r7, #4]
 8003116:	2b01      	cmp	r3, #1
 8003118:	d107      	bne.n	800312a <RadioSetTxConfig+0x132>
                ( ( bandwidth == 1 ) && ( datarate == 12 ) ) )
 800311a:	6a3b      	ldr	r3, [r7, #32]
 800311c:	2b0c      	cmp	r3, #12
 800311e:	d104      	bne.n	800312a <RadioSetTxConfig+0x132>
                SubgRf.ModulationParams.Params.LoRa.LowDatarateOptimize = 0x01;
 8003120:	4b38      	ldr	r3, [pc, #224]	@ (8003204 <RadioSetTxConfig+0x20c>)
 8003122:	2201      	movs	r2, #1
 8003124:	f883 2053 	strb.w	r2, [r3, #83]	@ 0x53
 8003128:	e003      	b.n	8003132 <RadioSetTxConfig+0x13a>
                SubgRf.ModulationParams.Params.LoRa.LowDatarateOptimize = 0x00;
 800312a:	4b36      	ldr	r3, [pc, #216]	@ (8003204 <RadioSetTxConfig+0x20c>)
 800312c:	2200      	movs	r2, #0
 800312e:	f883 2053 	strb.w	r2, [r3, #83]	@ 0x53
            SubgRf.PacketParams.PacketType = PACKET_TYPE_LORA;
 8003132:	4b34      	ldr	r3, [pc, #208]	@ (8003204 <RadioSetTxConfig+0x20c>)
 8003134:	2201      	movs	r2, #1
 8003136:	739a      	strb	r2, [r3, #14]
            if( ( SubgRf.ModulationParams.Params.LoRa.SpreadingFactor == LORA_SF5 ) ||
 8003138:	4b32      	ldr	r3, [pc, #200]	@ (8003204 <RadioSetTxConfig+0x20c>)
 800313a:	f893 3050 	ldrb.w	r3, [r3, #80]	@ 0x50
 800313e:	2b05      	cmp	r3, #5
 8003140:	d004      	beq.n	800314c <RadioSetTxConfig+0x154>
                ( SubgRf.ModulationParams.Params.LoRa.SpreadingFactor == LORA_SF6 ) )
 8003142:	4b30      	ldr	r3, [pc, #192]	@ (8003204 <RadioSetTxConfig+0x20c>)
 8003144:	f893 3050 	ldrb.w	r3, [r3, #80]	@ 0x50
            if( ( SubgRf.ModulationParams.Params.LoRa.SpreadingFactor == LORA_SF5 ) ||
 8003148:	2b06      	cmp	r3, #6
 800314a:	d10a      	bne.n	8003162 <RadioSetTxConfig+0x16a>
                if( preambleLen < 12 )
 800314c:	8d3b      	ldrh	r3, [r7, #40]	@ 0x28
 800314e:	2b0b      	cmp	r3, #11
 8003150:	d803      	bhi.n	800315a <RadioSetTxConfig+0x162>
                    SubgRf.PacketParams.Params.LoRa.PreambleLength = 12;
 8003152:	4b2c      	ldr	r3, [pc, #176]	@ (8003204 <RadioSetTxConfig+0x20c>)
 8003154:	220c      	movs	r2, #12
 8003156:	839a      	strh	r2, [r3, #28]
                if( preambleLen < 12 )
 8003158:	e006      	b.n	8003168 <RadioSetTxConfig+0x170>
                    SubgRf.PacketParams.Params.LoRa.PreambleLength = preambleLen;
 800315a:	4a2a      	ldr	r2, [pc, #168]	@ (8003204 <RadioSetTxConfig+0x20c>)
 800315c:	8d3b      	ldrh	r3, [r7, #40]	@ 0x28
 800315e:	8393      	strh	r3, [r2, #28]
                if( preambleLen < 12 )
 8003160:	e002      	b.n	8003168 <RadioSetTxConfig+0x170>
                SubgRf.PacketParams.Params.LoRa.PreambleLength = preambleLen;
 8003162:	4a28      	ldr	r2, [pc, #160]	@ (8003204 <RadioSetTxConfig+0x20c>)
 8003164:	8d3b      	ldrh	r3, [r7, #40]	@ 0x28
 8003166:	8393      	strh	r3, [r2, #28]
            SubgRf.PacketParams.Params.LoRa.HeaderType = ( RadioLoRaPacketLengthsMode_t )fixLen;
 8003168:	f897 202c 	ldrb.w	r2, [r7, #44]	@ 0x2c
 800316c:	4b25      	ldr	r3, [pc, #148]	@ (8003204 <RadioSetTxConfig+0x20c>)
 800316e:	779a      	strb	r2, [r3, #30]
            SubgRf.PacketParams.Params.LoRa.PayloadLength = MaxPayloadLength;
 8003170:	4b29      	ldr	r3, [pc, #164]	@ (8003218 <RadioSetTxConfig+0x220>)
 8003172:	781a      	ldrb	r2, [r3, #0]
 8003174:	4b23      	ldr	r3, [pc, #140]	@ (8003204 <RadioSetTxConfig+0x20c>)
 8003176:	77da      	strb	r2, [r3, #31]
            SubgRf.PacketParams.Params.LoRa.CrcMode = ( RadioLoRaCrcModes_t )crcOn;
 8003178:	f897 2030 	ldrb.w	r2, [r7, #48]	@ 0x30
 800317c:	4b21      	ldr	r3, [pc, #132]	@ (8003204 <RadioSetTxConfig+0x20c>)
 800317e:	f883 2020 	strb.w	r2, [r3, #32]
            SubgRf.PacketParams.Params.LoRa.InvertIQ = ( RadioLoRaIQModes_t )iqInverted;
 8003182:	f897 203c 	ldrb.w	r2, [r7, #60]	@ 0x3c
 8003186:	4b1f      	ldr	r3, [pc, #124]	@ (8003204 <RadioSetTxConfig+0x20c>)
 8003188:	f883 2021 	strb.w	r2, [r3, #33]	@ 0x21
            RadioStandby( );
 800318c:	f000 fab5 	bl	80036fa <RadioStandby>
            RadioSetModem( MODEM_LORA );
 8003190:	2001      	movs	r0, #1
 8003192:	f7ff fc51 	bl	8002a38 <RadioSetModem>
            SUBGRF_SetModulationParams( &SubgRf.ModulationParams );
 8003196:	481c      	ldr	r0, [pc, #112]	@ (8003208 <RadioSetTxConfig+0x210>)
 8003198:	f002 f874 	bl	8005284 <SUBGRF_SetModulationParams>
            SUBGRF_SetPacketParams( &SubgRf.PacketParams );
 800319c:	481b      	ldr	r0, [pc, #108]	@ (800320c <RadioSetTxConfig+0x214>)
 800319e:	f002 f943 	bl	8005428 <SUBGRF_SetPacketParams>
            break;
 80031a2:	e012      	b.n	80031ca <RadioSetTxConfig+0x1d2>
            RadioSetModem(MODEM_SIGFOX_TX);
 80031a4:	2004      	movs	r0, #4
 80031a6:	f7ff fc47 	bl	8002a38 <RadioSetModem>
            SubgRf.ModulationParams.PacketType = PACKET_TYPE_BPSK;
 80031aa:	4b16      	ldr	r3, [pc, #88]	@ (8003204 <RadioSetTxConfig+0x20c>)
 80031ac:	2202      	movs	r2, #2
 80031ae:	f883 2038 	strb.w	r2, [r3, #56]	@ 0x38
            SubgRf.ModulationParams.Params.Bpsk.BitRate           = datarate;
 80031b2:	4a14      	ldr	r2, [pc, #80]	@ (8003204 <RadioSetTxConfig+0x20c>)
 80031b4:	6a3b      	ldr	r3, [r7, #32]
 80031b6:	6493      	str	r3, [r2, #72]	@ 0x48
            SubgRf.ModulationParams.Params.Bpsk.ModulationShaping = MOD_SHAPING_DBPSK;
 80031b8:	4b12      	ldr	r3, [pc, #72]	@ (8003204 <RadioSetTxConfig+0x20c>)
 80031ba:	2216      	movs	r2, #22
 80031bc:	f883 204c 	strb.w	r2, [r3, #76]	@ 0x4c
            SUBGRF_SetModulationParams( &SubgRf.ModulationParams );
 80031c0:	4811      	ldr	r0, [pc, #68]	@ (8003208 <RadioSetTxConfig+0x210>)
 80031c2:	f002 f85f 	bl	8005284 <SUBGRF_SetModulationParams>
            break;
 80031c6:	e000      	b.n	80031ca <RadioSetTxConfig+0x1d2>
            break;
 80031c8:	bf00      	nop
    }

    SubgRf.AntSwitchPaSelect = SUBGRF_SetRfTxPower( power );
 80031ca:	f997 300e 	ldrsb.w	r3, [r7, #14]
 80031ce:	4618      	mov	r0, r3
 80031d0:	f002 fba8 	bl	8005924 <SUBGRF_SetRfTxPower>
 80031d4:	4603      	mov	r3, r0
 80031d6:	461a      	mov	r2, r3
 80031d8:	4b0a      	ldr	r3, [pc, #40]	@ (8003204 <RadioSetTxConfig+0x20c>)
 80031da:	f883 2056 	strb.w	r2, [r3, #86]	@ 0x56
    /* WORKAROUND - Trimming the output voltage power_ldo to 3.3V */
    SUBGRF_WriteRegister(REG_DRV_CTRL, 0x7 << 1);
 80031de:	210e      	movs	r1, #14
 80031e0:	f640 101f 	movw	r0, #2335	@ 0x91f
 80031e4:	f002 fa68 	bl	80056b8 <SUBGRF_WriteRegister>
    RFW_SetAntSwitch( SubgRf.AntSwitchPaSelect );
 80031e8:	4b06      	ldr	r3, [pc, #24]	@ (8003204 <RadioSetTxConfig+0x20c>)
 80031ea:	f893 3056 	ldrb.w	r3, [r3, #86]	@ 0x56
 80031ee:	4618      	mov	r0, r3
 80031f0:	f002 fcd5 	bl	8005b9e <RFW_SetAntSwitch>
    SubgRf.TxTimeout = timeout;
 80031f4:	4a03      	ldr	r2, [pc, #12]	@ (8003204 <RadioSetTxConfig+0x20c>)
 80031f6:	6c3b      	ldr	r3, [r7, #64]	@ 0x40
 80031f8:	6053      	str	r3, [r2, #4]
}
 80031fa:	bf00      	nop
 80031fc:	3718      	adds	r7, #24
 80031fe:	46bd      	mov	sp, r7
 8003200:	bd80      	pop	{r7, pc}
 8003202:	bf00      	nop
 8003204:	200001a4 	.word	0x200001a4
 8003208:	200001dc 	.word	0x200001dc
 800320c:	200001b2 	.word	0x200001b2
 8003210:	080071d8 	.word	0x080071d8
 8003214:	08007354 	.word	0x08007354
 8003218:	20000009 	.word	0x20000009

0800321c <RadioCheckRfFrequency>:

static bool RadioCheckRfFrequency( uint32_t frequency )
{
 800321c:	b480      	push	{r7}
 800321e:	b083      	sub	sp, #12
 8003220:	af00      	add	r7, sp, #0
 8003222:	6078      	str	r0, [r7, #4]
    return true;
 8003224:	2301      	movs	r3, #1
}
 8003226:	4618      	mov	r0, r3
 8003228:	370c      	adds	r7, #12
 800322a:	46bd      	mov	sp, r7
 800322c:	bc80      	pop	{r7}
 800322e:	4770      	bx	lr

08003230 <RadioGetLoRaBandwidthInHz>:

static uint32_t RadioGetLoRaBandwidthInHz( RadioLoRaBandwidths_t bw )
{
 8003230:	b480      	push	{r7}
 8003232:	b085      	sub	sp, #20
 8003234:	af00      	add	r7, sp, #0
 8003236:	4603      	mov	r3, r0
 8003238:	71fb      	strb	r3, [r7, #7]
    uint32_t bandwidthInHz = 0;
 800323a:	2300      	movs	r3, #0
 800323c:	60fb      	str	r3, [r7, #12]

    switch( bw )
 800323e:	79fb      	ldrb	r3, [r7, #7]
 8003240:	2b0a      	cmp	r3, #10
 8003242:	d83e      	bhi.n	80032c2 <RadioGetLoRaBandwidthInHz+0x92>
 8003244:	a201      	add	r2, pc, #4	@ (adr r2, 800324c <RadioGetLoRaBandwidthInHz+0x1c>)
 8003246:	f852 f023 	ldr.w	pc, [r2, r3, lsl #2]
 800324a:	bf00      	nop
 800324c:	08003279 	.word	0x08003279
 8003250:	08003289 	.word	0x08003289
 8003254:	08003299 	.word	0x08003299
 8003258:	080032a9 	.word	0x080032a9
 800325c:	080032b1 	.word	0x080032b1
 8003260:	080032b7 	.word	0x080032b7
 8003264:	080032bd 	.word	0x080032bd
 8003268:	080032c3 	.word	0x080032c3
 800326c:	08003281 	.word	0x08003281
 8003270:	08003291 	.word	0x08003291
 8003274:	080032a1 	.word	0x080032a1
    {
    case LORA_BW_007:
        bandwidthInHz = 7812UL;
 8003278:	f641 6384 	movw	r3, #7812	@ 0x1e84
 800327c:	60fb      	str	r3, [r7, #12]
        break;
 800327e:	e020      	b.n	80032c2 <RadioGetLoRaBandwidthInHz+0x92>
    case LORA_BW_010:
        bandwidthInHz = 10417UL;
 8003280:	f642 03b1 	movw	r3, #10417	@ 0x28b1
 8003284:	60fb      	str	r3, [r7, #12]
        break;
 8003286:	e01c      	b.n	80032c2 <RadioGetLoRaBandwidthInHz+0x92>
    case LORA_BW_015:
        bandwidthInHz = 15625UL;
 8003288:	f643 5309 	movw	r3, #15625	@ 0x3d09
 800328c:	60fb      	str	r3, [r7, #12]
        break;
 800328e:	e018      	b.n	80032c2 <RadioGetLoRaBandwidthInHz+0x92>
    case LORA_BW_020:
        bandwidthInHz = 20833UL;
 8003290:	f245 1361 	movw	r3, #20833	@ 0x5161
 8003294:	60fb      	str	r3, [r7, #12]
        break;
 8003296:	e014      	b.n	80032c2 <RadioGetLoRaBandwidthInHz+0x92>
    case LORA_BW_031:
        bandwidthInHz = 31250UL;
 8003298:	f647 2312 	movw	r3, #31250	@ 0x7a12
 800329c:	60fb      	str	r3, [r7, #12]
        break;
 800329e:	e010      	b.n	80032c2 <RadioGetLoRaBandwidthInHz+0x92>
    case LORA_BW_041:
        bandwidthInHz = 41667UL;
 80032a0:	f24a 23c3 	movw	r3, #41667	@ 0xa2c3
 80032a4:	60fb      	str	r3, [r7, #12]
        break;
 80032a6:	e00c      	b.n	80032c2 <RadioGetLoRaBandwidthInHz+0x92>
    case LORA_BW_062:
        bandwidthInHz = 62500UL;
 80032a8:	f24f 4324 	movw	r3, #62500	@ 0xf424
 80032ac:	60fb      	str	r3, [r7, #12]
        break;
 80032ae:	e008      	b.n	80032c2 <RadioGetLoRaBandwidthInHz+0x92>
    case LORA_BW_125:
        bandwidthInHz = 125000UL;
 80032b0:	4b07      	ldr	r3, [pc, #28]	@ (80032d0 <RadioGetLoRaBandwidthInHz+0xa0>)
 80032b2:	60fb      	str	r3, [r7, #12]
        break;
 80032b4:	e005      	b.n	80032c2 <RadioGetLoRaBandwidthInHz+0x92>
    case LORA_BW_250:
        bandwidthInHz = 250000UL;
 80032b6:	4b07      	ldr	r3, [pc, #28]	@ (80032d4 <RadioGetLoRaBandwidthInHz+0xa4>)
 80032b8:	60fb      	str	r3, [r7, #12]
        break;
 80032ba:	e002      	b.n	80032c2 <RadioGetLoRaBandwidthInHz+0x92>
    case LORA_BW_500:
        bandwidthInHz = 500000UL;
 80032bc:	4b06      	ldr	r3, [pc, #24]	@ (80032d8 <RadioGetLoRaBandwidthInHz+0xa8>)
 80032be:	60fb      	str	r3, [r7, #12]
        break;
 80032c0:	bf00      	nop
    }

    return bandwidthInHz;
 80032c2:	68fb      	ldr	r3, [r7, #12]
}
 80032c4:	4618      	mov	r0, r3
 80032c6:	3714      	adds	r7, #20
 80032c8:	46bd      	mov	sp, r7
 80032ca:	bc80      	pop	{r7}
 80032cc:	4770      	bx	lr
 80032ce:	bf00      	nop
 80032d0:	0001e848 	.word	0x0001e848
 80032d4:	0003d090 	.word	0x0003d090
 80032d8:	0007a120 	.word	0x0007a120

080032dc <RadioGetGfskTimeOnAirNumerator>:

static uint32_t RadioGetGfskTimeOnAirNumerator( uint32_t datarate, uint8_t coderate,
                                                uint16_t preambleLen, bool fixLen, uint8_t payloadLen,
                                                bool crcOn )
{
 80032dc:	b480      	push	{r7}
 80032de:	b083      	sub	sp, #12
 80032e0:	af00      	add	r7, sp, #0
 80032e2:	6078      	str	r0, [r7, #4]
 80032e4:	4608      	mov	r0, r1
 80032e6:	4611      	mov	r1, r2
 80032e8:	461a      	mov	r2, r3
 80032ea:	4603      	mov	r3, r0
 80032ec:	70fb      	strb	r3, [r7, #3]
 80032ee:	460b      	mov	r3, r1
 80032f0:	803b      	strh	r3, [r7, #0]
 80032f2:	4613      	mov	r3, r2
 80032f4:	70bb      	strb	r3, [r7, #2]
    return ( preambleLen << 3 ) +
 80032f6:	883b      	ldrh	r3, [r7, #0]
 80032f8:	00db      	lsls	r3, r3, #3
           ( ( fixLen == false ) ? 8 : 0 ) + 24 +
 80032fa:	78ba      	ldrb	r2, [r7, #2]
 80032fc:	f082 0201 	eor.w	r2, r2, #1
 8003300:	b2d2      	uxtb	r2, r2
 8003302:	2a00      	cmp	r2, #0
 8003304:	d001      	beq.n	800330a <RadioGetGfskTimeOnAirNumerator+0x2e>
 8003306:	2208      	movs	r2, #8
 8003308:	e000      	b.n	800330c <RadioGetGfskTimeOnAirNumerator+0x30>
 800330a:	2200      	movs	r2, #0
    return ( preambleLen << 3 ) +
 800330c:	4413      	add	r3, r2
           ( ( fixLen == false ) ? 8 : 0 ) + 24 +
 800330e:	f103 0218 	add.w	r2, r3, #24
           ( ( payloadLen + ( ( crcOn == true ) ? 2 : 0 ) ) << 3 );
 8003312:	7c3b      	ldrb	r3, [r7, #16]
 8003314:	7d39      	ldrb	r1, [r7, #20]
 8003316:	2900      	cmp	r1, #0
 8003318:	d001      	beq.n	800331e <RadioGetGfskTimeOnAirNumerator+0x42>
 800331a:	2102      	movs	r1, #2
 800331c:	e000      	b.n	8003320 <RadioGetGfskTimeOnAirNumerator+0x44>
 800331e:	2100      	movs	r1, #0
 8003320:	440b      	add	r3, r1
 8003322:	00db      	lsls	r3, r3, #3
           ( ( fixLen == false ) ? 8 : 0 ) + 24 +
 8003324:	4413      	add	r3, r2
}
 8003326:	4618      	mov	r0, r3
 8003328:	370c      	adds	r7, #12
 800332a:	46bd      	mov	sp, r7
 800332c:	bc80      	pop	{r7}
 800332e:	4770      	bx	lr

08003330 <RadioGetLoRaTimeOnAirNumerator>:

static uint32_t RadioGetLoRaTimeOnAirNumerator( uint32_t bandwidth,
                                                uint32_t datarate, uint8_t coderate,
                                                uint16_t preambleLen, bool fixLen, uint8_t payloadLen,
                                                bool crcOn )
{
 8003330:	b480      	push	{r7}
 8003332:	b08b      	sub	sp, #44	@ 0x2c
 8003334:	af00      	add	r7, sp, #0
 8003336:	60f8      	str	r0, [r7, #12]
 8003338:	60b9      	str	r1, [r7, #8]
 800333a:	4611      	mov	r1, r2
 800333c:	461a      	mov	r2, r3
 800333e:	460b      	mov	r3, r1
 8003340:	71fb      	strb	r3, [r7, #7]
 8003342:	4613      	mov	r3, r2
 8003344:	80bb      	strh	r3, [r7, #4]
    int32_t crDenom           = coderate + 4;
 8003346:	79fb      	ldrb	r3, [r7, #7]
 8003348:	3304      	adds	r3, #4
 800334a:	617b      	str	r3, [r7, #20]
    bool    lowDatareOptimize = false;
 800334c:	2300      	movs	r3, #0
 800334e:	f887 3027 	strb.w	r3, [r7, #39]	@ 0x27

    // Ensure that the preamble length is at least 12 symbols when using SF5 or SF6
    if( ( datarate == 5 ) || ( datarate == 6 ) )
 8003352:	68bb      	ldr	r3, [r7, #8]
 8003354:	2b05      	cmp	r3, #5
 8003356:	d002      	beq.n	800335e <RadioGetLoRaTimeOnAirNumerator+0x2e>
 8003358:	68bb      	ldr	r3, [r7, #8]
 800335a:	2b06      	cmp	r3, #6
 800335c:	d104      	bne.n	8003368 <RadioGetLoRaTimeOnAirNumerator+0x38>
    {
        if( preambleLen < 12 )
 800335e:	88bb      	ldrh	r3, [r7, #4]
 8003360:	2b0b      	cmp	r3, #11
 8003362:	d801      	bhi.n	8003368 <RadioGetLoRaTimeOnAirNumerator+0x38>
        {
            preambleLen = 12;
 8003364:	230c      	movs	r3, #12
 8003366:	80bb      	strh	r3, [r7, #4]
        }
    }

    if( ( ( bandwidth == 0 ) && ( ( datarate == 11 ) || ( datarate == 12 ) ) ) ||
 8003368:	68fb      	ldr	r3, [r7, #12]
 800336a:	2b00      	cmp	r3, #0
 800336c:	d105      	bne.n	800337a <RadioGetLoRaTimeOnAirNumerator+0x4a>
 800336e:	68bb      	ldr	r3, [r7, #8]
 8003370:	2b0b      	cmp	r3, #11
 8003372:	d008      	beq.n	8003386 <RadioGetLoRaTimeOnAirNumerator+0x56>
 8003374:	68bb      	ldr	r3, [r7, #8]
 8003376:	2b0c      	cmp	r3, #12
 8003378:	d005      	beq.n	8003386 <RadioGetLoRaTimeOnAirNumerator+0x56>
 800337a:	68fb      	ldr	r3, [r7, #12]
 800337c:	2b01      	cmp	r3, #1
 800337e:	d105      	bne.n	800338c <RadioGetLoRaTimeOnAirNumerator+0x5c>
        ( ( bandwidth == 1 ) && ( datarate == 12 ) ) )
 8003380:	68bb      	ldr	r3, [r7, #8]
 8003382:	2b0c      	cmp	r3, #12
 8003384:	d102      	bne.n	800338c <RadioGetLoRaTimeOnAirNumerator+0x5c>
    {
        lowDatareOptimize = true;
 8003386:	2301      	movs	r3, #1
 8003388:	f887 3027 	strb.w	r3, [r7, #39]	@ 0x27
    }

    int32_t ceilDenominator;
    int32_t ceilNumerator = ( payloadLen << 3 ) +
 800338c:	f897 3034 	ldrb.w	r3, [r7, #52]	@ 0x34
 8003390:	00db      	lsls	r3, r3, #3
                            ( crcOn ? 16 : 0 ) -
 8003392:	f897 2038 	ldrb.w	r2, [r7, #56]	@ 0x38
 8003396:	2a00      	cmp	r2, #0
 8003398:	d001      	beq.n	800339e <RadioGetLoRaTimeOnAirNumerator+0x6e>
 800339a:	2210      	movs	r2, #16
 800339c:	e000      	b.n	80033a0 <RadioGetLoRaTimeOnAirNumerator+0x70>
 800339e:	2200      	movs	r2, #0
    int32_t ceilNumerator = ( payloadLen << 3 ) +
 80033a0:	4413      	add	r3, r2
 80033a2:	461a      	mov	r2, r3
                            ( 4 * datarate ) +
 80033a4:	68bb      	ldr	r3, [r7, #8]
 80033a6:	009b      	lsls	r3, r3, #2
                            ( crcOn ? 16 : 0 ) -
 80033a8:	1ad3      	subs	r3, r2, r3
                            ( fixLen ? 0 : 20 );
 80033aa:	f897 2030 	ldrb.w	r2, [r7, #48]	@ 0x30
 80033ae:	2a00      	cmp	r2, #0
 80033b0:	d001      	beq.n	80033b6 <RadioGetLoRaTimeOnAirNumerator+0x86>
 80033b2:	2200      	movs	r2, #0
 80033b4:	e000      	b.n	80033b8 <RadioGetLoRaTimeOnAirNumerator+0x88>
 80033b6:	2214      	movs	r2, #20
                            ( 4 * datarate ) +
 80033b8:	4413      	add	r3, r2
    int32_t ceilNumerator = ( payloadLen << 3 ) +
 80033ba:	61fb      	str	r3, [r7, #28]

    if( datarate <= 6 )
 80033bc:	68bb      	ldr	r3, [r7, #8]
 80033be:	2b06      	cmp	r3, #6
 80033c0:	d803      	bhi.n	80033ca <RadioGetLoRaTimeOnAirNumerator+0x9a>
    {
        ceilDenominator = 4 * datarate;
 80033c2:	68bb      	ldr	r3, [r7, #8]
 80033c4:	009b      	lsls	r3, r3, #2
 80033c6:	623b      	str	r3, [r7, #32]
 80033c8:	e00e      	b.n	80033e8 <RadioGetLoRaTimeOnAirNumerator+0xb8>
    }
    else
    {
        ceilNumerator += 8;
 80033ca:	69fb      	ldr	r3, [r7, #28]
 80033cc:	3308      	adds	r3, #8
 80033ce:	61fb      	str	r3, [r7, #28]

        if( lowDatareOptimize == true )
 80033d0:	f897 3027 	ldrb.w	r3, [r7, #39]	@ 0x27
 80033d4:	2b00      	cmp	r3, #0
 80033d6:	d004      	beq.n	80033e2 <RadioGetLoRaTimeOnAirNumerator+0xb2>
        {
            ceilDenominator = 4 * ( datarate - 2 );
 80033d8:	68bb      	ldr	r3, [r7, #8]
 80033da:	3b02      	subs	r3, #2
 80033dc:	009b      	lsls	r3, r3, #2
 80033de:	623b      	str	r3, [r7, #32]
 80033e0:	e002      	b.n	80033e8 <RadioGetLoRaTimeOnAirNumerator+0xb8>
        }
        else
        {
            ceilDenominator = 4 * datarate;
 80033e2:	68bb      	ldr	r3, [r7, #8]
 80033e4:	009b      	lsls	r3, r3, #2
 80033e6:	623b      	str	r3, [r7, #32]
        }
    }

    if( ceilNumerator < 0 )
 80033e8:	69fb      	ldr	r3, [r7, #28]
 80033ea:	2b00      	cmp	r3, #0
 80033ec:	da01      	bge.n	80033f2 <RadioGetLoRaTimeOnAirNumerator+0xc2>
    {
        ceilNumerator = 0;
 80033ee:	2300      	movs	r3, #0
 80033f0:	61fb      	str	r3, [r7, #28]
    }

    // Perform integral ceil()
    int32_t intermediate =
        ( ( ceilNumerator + ceilDenominator - 1 ) / ceilDenominator ) * crDenom + preambleLen + 12;
 80033f2:	69fa      	ldr	r2, [r7, #28]
 80033f4:	6a3b      	ldr	r3, [r7, #32]
 80033f6:	4413      	add	r3, r2
 80033f8:	1e5a      	subs	r2, r3, #1
 80033fa:	6a3b      	ldr	r3, [r7, #32]
 80033fc:	fb92 f3f3 	sdiv	r3, r2, r3
 8003400:	697a      	ldr	r2, [r7, #20]
 8003402:	fb03 f202 	mul.w	r2, r3, r2
 8003406:	88bb      	ldrh	r3, [r7, #4]
 8003408:	4413      	add	r3, r2
    int32_t intermediate =
 800340a:	330c      	adds	r3, #12
 800340c:	61bb      	str	r3, [r7, #24]

    if( datarate <= 6 )
 800340e:	68bb      	ldr	r3, [r7, #8]
 8003410:	2b06      	cmp	r3, #6
 8003412:	d802      	bhi.n	800341a <RadioGetLoRaTimeOnAirNumerator+0xea>
    {
        intermediate += 2;
 8003414:	69bb      	ldr	r3, [r7, #24]
 8003416:	3302      	adds	r3, #2
 8003418:	61bb      	str	r3, [r7, #24]
    }

    return ( uint32_t )( ( 4 * intermediate + 1 ) * ( 1 << ( datarate - 2 ) ) );
 800341a:	69bb      	ldr	r3, [r7, #24]
 800341c:	009b      	lsls	r3, r3, #2
 800341e:	1c5a      	adds	r2, r3, #1
 8003420:	68bb      	ldr	r3, [r7, #8]
 8003422:	3b02      	subs	r3, #2
 8003424:	fa02 f303 	lsl.w	r3, r2, r3
}
 8003428:	4618      	mov	r0, r3
 800342a:	372c      	adds	r7, #44	@ 0x2c
 800342c:	46bd      	mov	sp, r7
 800342e:	bc80      	pop	{r7}
 8003430:	4770      	bx	lr
	...

08003434 <RadioTimeOnAir>:

static uint32_t RadioTimeOnAir( RadioModems_t modem, uint32_t bandwidth,
                                uint32_t datarate, uint8_t coderate,
                                uint16_t preambleLen, bool fixLen, uint8_t payloadLen,
                                bool crcOn )
{
 8003434:	b580      	push	{r7, lr}
 8003436:	b08a      	sub	sp, #40	@ 0x28
 8003438:	af04      	add	r7, sp, #16
 800343a:	60b9      	str	r1, [r7, #8]
 800343c:	607a      	str	r2, [r7, #4]
 800343e:	461a      	mov	r2, r3
 8003440:	4603      	mov	r3, r0
 8003442:	73fb      	strb	r3, [r7, #15]
 8003444:	4613      	mov	r3, r2
 8003446:	73bb      	strb	r3, [r7, #14]
    uint32_t numerator = 0;
 8003448:	2300      	movs	r3, #0
 800344a:	617b      	str	r3, [r7, #20]
    uint32_t denominator = 1;
 800344c:	2301      	movs	r3, #1
 800344e:	613b      	str	r3, [r7, #16]

    switch( modem )
 8003450:	7bfb      	ldrb	r3, [r7, #15]
 8003452:	2b00      	cmp	r3, #0
 8003454:	d002      	beq.n	800345c <RadioTimeOnAir+0x28>
 8003456:	2b01      	cmp	r3, #1
 8003458:	d017      	beq.n	800348a <RadioTimeOnAir+0x56>
                                                                  fixLen, payloadLen, crcOn );
            denominator = RadioGetLoRaBandwidthInHz( Bandwidths[bandwidth] );
        }
        break;
    default:
        break;
 800345a:	e035      	b.n	80034c8 <RadioTimeOnAir+0x94>
            numerator   = 1000U * RadioGetGfskTimeOnAirNumerator( datarate, coderate,
 800345c:	f897 0024 	ldrb.w	r0, [r7, #36]	@ 0x24
 8003460:	8c3a      	ldrh	r2, [r7, #32]
 8003462:	7bb9      	ldrb	r1, [r7, #14]
 8003464:	f897 302c 	ldrb.w	r3, [r7, #44]	@ 0x2c
 8003468:	9301      	str	r3, [sp, #4]
 800346a:	f897 3028 	ldrb.w	r3, [r7, #40]	@ 0x28
 800346e:	9300      	str	r3, [sp, #0]
 8003470:	4603      	mov	r3, r0
 8003472:	6878      	ldr	r0, [r7, #4]
 8003474:	f7ff ff32 	bl	80032dc <RadioGetGfskTimeOnAirNumerator>
 8003478:	4603      	mov	r3, r0
 800347a:	f44f 727a 	mov.w	r2, #1000	@ 0x3e8
 800347e:	fb02 f303 	mul.w	r3, r2, r3
 8003482:	617b      	str	r3, [r7, #20]
            denominator = datarate;
 8003484:	687b      	ldr	r3, [r7, #4]
 8003486:	613b      	str	r3, [r7, #16]
        break;
 8003488:	e01e      	b.n	80034c8 <RadioTimeOnAir+0x94>
            numerator   = 1000U * RadioGetLoRaTimeOnAirNumerator( bandwidth, datarate,
 800348a:	8c39      	ldrh	r1, [r7, #32]
 800348c:	7bba      	ldrb	r2, [r7, #14]
 800348e:	f897 302c 	ldrb.w	r3, [r7, #44]	@ 0x2c
 8003492:	9302      	str	r3, [sp, #8]
 8003494:	f897 3028 	ldrb.w	r3, [r7, #40]	@ 0x28
 8003498:	9301      	str	r3, [sp, #4]
 800349a:	f897 3024 	ldrb.w	r3, [r7, #36]	@ 0x24
 800349e:	9300      	str	r3, [sp, #0]
 80034a0:	460b      	mov	r3, r1
 80034a2:	6879      	ldr	r1, [r7, #4]
 80034a4:	68b8      	ldr	r0, [r7, #8]
 80034a6:	f7ff ff43 	bl	8003330 <RadioGetLoRaTimeOnAirNumerator>
 80034aa:	4603      	mov	r3, r0
 80034ac:	f44f 727a 	mov.w	r2, #1000	@ 0x3e8
 80034b0:	fb02 f303 	mul.w	r3, r2, r3
 80034b4:	617b      	str	r3, [r7, #20]
            denominator = RadioGetLoRaBandwidthInHz( Bandwidths[bandwidth] );
 80034b6:	4a0a      	ldr	r2, [pc, #40]	@ (80034e0 <RadioTimeOnAir+0xac>)
 80034b8:	68bb      	ldr	r3, [r7, #8]
 80034ba:	4413      	add	r3, r2
 80034bc:	781b      	ldrb	r3, [r3, #0]
 80034be:	4618      	mov	r0, r3
 80034c0:	f7ff feb6 	bl	8003230 <RadioGetLoRaBandwidthInHz>
 80034c4:	6138      	str	r0, [r7, #16]
        break;
 80034c6:	bf00      	nop
    }
    // Perform integral ceil()
    return DIVC( numerator, denominator );
 80034c8:	697a      	ldr	r2, [r7, #20]
 80034ca:	693b      	ldr	r3, [r7, #16]
 80034cc:	4413      	add	r3, r2
 80034ce:	1e5a      	subs	r2, r3, #1
 80034d0:	693b      	ldr	r3, [r7, #16]
 80034d2:	fbb2 f3f3 	udiv	r3, r2, r3
}
 80034d6:	4618      	mov	r0, r3
 80034d8:	3718      	adds	r7, #24
 80034da:	46bd      	mov	sp, r7
 80034dc:	bd80      	pop	{r7, pc}
 80034de:	bf00      	nop
 80034e0:	08007354 	.word	0x08007354

080034e4 <RadioSend>:

static radio_status_t RadioSend( uint8_t *buffer, uint8_t size )
{
 80034e4:	b580      	push	{r7, lr}
 80034e6:	b084      	sub	sp, #16
 80034e8:	af00      	add	r7, sp, #0
 80034ea:	6078      	str	r0, [r7, #4]
 80034ec:	460b      	mov	r3, r1
 80034ee:	70fb      	strb	r3, [r7, #3]
    SUBGRF_SetDioIrqParams( IRQ_TX_DONE | IRQ_RX_TX_TIMEOUT | IRQ_TX_DBG,
 80034f0:	2300      	movs	r3, #0
 80034f2:	2200      	movs	r2, #0
 80034f4:	f240 2101 	movw	r1, #513	@ 0x201
 80034f8:	f240 2001 	movw	r0, #513	@ 0x201
 80034fc:	f001 fd2c 	bl	8004f58 <SUBGRF_SetDioIrqParams>

    /* Set DBG pin */
    DBG_GPIO_RADIO_TX( SET );

    /* Set RF switch */
    SUBGRF_SetSwitch( SubgRf.AntSwitchPaSelect, RFSWITCH_TX );
 8003500:	4b70      	ldr	r3, [pc, #448]	@ (80036c4 <RadioSend+0x1e0>)
 8003502:	f893 3056 	ldrb.w	r3, [r3, #86]	@ 0x56
 8003506:	2101      	movs	r1, #1
 8003508:	4618      	mov	r0, r3
 800350a:	f002 f9e3 	bl	80058d4 <SUBGRF_SetSwitch>
    /* WORKAROUND - Modulation Quality with 500 kHz LoRaTM Bandwidth*/
    /* RegTxModulation = @address 0x0889 */
    if( ( SubgRf.Modem == MODEM_LORA ) && ( SubgRf.ModulationParams.Params.LoRa.Bandwidth == LORA_BW_500 ) )
 800350e:	4b6d      	ldr	r3, [pc, #436]	@ (80036c4 <RadioSend+0x1e0>)
 8003510:	781b      	ldrb	r3, [r3, #0]
 8003512:	2b01      	cmp	r3, #1
 8003514:	d112      	bne.n	800353c <RadioSend+0x58>
 8003516:	4b6b      	ldr	r3, [pc, #428]	@ (80036c4 <RadioSend+0x1e0>)
 8003518:	f893 3051 	ldrb.w	r3, [r3, #81]	@ 0x51
 800351c:	2b06      	cmp	r3, #6
 800351e:	d10d      	bne.n	800353c <RadioSend+0x58>
    {
        SUBGRF_WriteRegister( SUBGHZ_SDCFG0R, SUBGRF_ReadRegister( SUBGHZ_SDCFG0R ) & ~( 1 << 2 ) );
 8003520:	f640 0089 	movw	r0, #2185	@ 0x889
 8003524:	f002 f8ea 	bl	80056fc <SUBGRF_ReadRegister>
 8003528:	4603      	mov	r3, r0
 800352a:	f023 0304 	bic.w	r3, r3, #4
 800352e:	b2db      	uxtb	r3, r3
 8003530:	4619      	mov	r1, r3
 8003532:	f640 0089 	movw	r0, #2185	@ 0x889
 8003536:	f002 f8bf 	bl	80056b8 <SUBGRF_WriteRegister>
 800353a:	e00c      	b.n	8003556 <RadioSend+0x72>
    }
    else
    {
        SUBGRF_WriteRegister( SUBGHZ_SDCFG0R, SUBGRF_ReadRegister( SUBGHZ_SDCFG0R ) | ( 1 << 2 ) );
 800353c:	f640 0089 	movw	r0, #2185	@ 0x889
 8003540:	f002 f8dc 	bl	80056fc <SUBGRF_ReadRegister>
 8003544:	4603      	mov	r3, r0
 8003546:	f043 0304 	orr.w	r3, r3, #4
 800354a:	b2db      	uxtb	r3, r3
 800354c:	4619      	mov	r1, r3
 800354e:	f640 0089 	movw	r0, #2185	@ 0x889
 8003552:	f002 f8b1 	bl	80056b8 <SUBGRF_WriteRegister>
    }
    else
#endif /* RADIO_LR_FHSS_IS_ON == 1 */
    {
        /* WORKAROUND END */
        switch( SubgRf.Modem )
 8003556:	4b5b      	ldr	r3, [pc, #364]	@ (80036c4 <RadioSend+0x1e0>)
 8003558:	781b      	ldrb	r3, [r3, #0]
 800355a:	2b04      	cmp	r3, #4
 800355c:	f200 80a2 	bhi.w	80036a4 <RadioSend+0x1c0>
 8003560:	a201      	add	r2, pc, #4	@ (adr r2, 8003568 <RadioSend+0x84>)
 8003562:	f852 f023 	ldr.w	pc, [r2, r3, lsl #2]
 8003566:	bf00      	nop
 8003568:	08003597 	.word	0x08003597
 800356c:	0800357d 	.word	0x0800357d
 8003570:	08003597 	.word	0x08003597
 8003574:	080035ed 	.word	0x080035ed
 8003578:	0800360d 	.word	0x0800360d
        {
        case MODEM_LORA:
        {
            SubgRf.PacketParams.Params.LoRa.PayloadLength = size;
 800357c:	4a51      	ldr	r2, [pc, #324]	@ (80036c4 <RadioSend+0x1e0>)
 800357e:	78fb      	ldrb	r3, [r7, #3]
 8003580:	77d3      	strb	r3, [r2, #31]
            SUBGRF_SetPacketParams( &SubgRf.PacketParams );
 8003582:	4851      	ldr	r0, [pc, #324]	@ (80036c8 <RadioSend+0x1e4>)
 8003584:	f001 ff50 	bl	8005428 <SUBGRF_SetPacketParams>
            SUBGRF_SendPayload( buffer, size, 0 );
 8003588:	78fb      	ldrb	r3, [r7, #3]
 800358a:	2200      	movs	r2, #0
 800358c:	4619      	mov	r1, r3
 800358e:	6878      	ldr	r0, [r7, #4]
 8003590:	f001 fa00 	bl	8004994 <SUBGRF_SendPayload>
            break;
 8003594:	e087      	b.n	80036a6 <RadioSend+0x1c2>
        }
        case MODEM_MSK:
        case MODEM_FSK:
        {
            if ( 1UL == RFW_Is_Init( ) )
 8003596:	f002 faf4 	bl	8005b82 <RFW_Is_Init>
 800359a:	4603      	mov	r3, r0
 800359c:	2b01      	cmp	r3, #1
 800359e:	d118      	bne.n	80035d2 <RadioSend+0xee>
            {
                uint8_t outsize;
                if ( 0UL == RFW_TransmitInit( buffer,size, &outsize ) )
 80035a0:	f107 020d 	add.w	r2, r7, #13
 80035a4:	78fb      	ldrb	r3, [r7, #3]
 80035a6:	4619      	mov	r1, r3
 80035a8:	6878      	ldr	r0, [r7, #4]
 80035aa:	f002 fb02 	bl	8005bb2 <RFW_TransmitInit>
 80035ae:	4603      	mov	r3, r0
 80035b0:	2b00      	cmp	r3, #0
 80035b2:	d10c      	bne.n	80035ce <RadioSend+0xea>
                {
                    SubgRf.PacketParams.Params.Gfsk.PayloadLength = outsize;
 80035b4:	7b7a      	ldrb	r2, [r7, #13]
 80035b6:	4b43      	ldr	r3, [pc, #268]	@ (80036c4 <RadioSend+0x1e0>)
 80035b8:	759a      	strb	r2, [r3, #22]
                    SUBGRF_SetPacketParams( &SubgRf.PacketParams );
 80035ba:	4843      	ldr	r0, [pc, #268]	@ (80036c8 <RadioSend+0x1e4>)
 80035bc:	f001 ff34 	bl	8005428 <SUBGRF_SetPacketParams>
                    SUBGRF_SendPayload( buffer, outsize, 0 );
 80035c0:	7b7b      	ldrb	r3, [r7, #13]
 80035c2:	2200      	movs	r2, #0
 80035c4:	4619      	mov	r1, r3
 80035c6:	6878      	ldr	r0, [r7, #4]
 80035c8:	f001 f9e4 	bl	8004994 <SUBGRF_SendPayload>
            {
                SubgRf.PacketParams.Params.Gfsk.PayloadLength = size;
                SUBGRF_SetPacketParams( &SubgRf.PacketParams );
                SUBGRF_SendPayload( buffer, size, 0 );
            }
            break;
 80035cc:	e06b      	b.n	80036a6 <RadioSend+0x1c2>
                    return RADIO_STATUS_ERROR;
 80035ce:	2303      	movs	r3, #3
 80035d0:	e073      	b.n	80036ba <RadioSend+0x1d6>
                SubgRf.PacketParams.Params.Gfsk.PayloadLength = size;
 80035d2:	4a3c      	ldr	r2, [pc, #240]	@ (80036c4 <RadioSend+0x1e0>)
 80035d4:	78fb      	ldrb	r3, [r7, #3]
 80035d6:	7593      	strb	r3, [r2, #22]
                SUBGRF_SetPacketParams( &SubgRf.PacketParams );
 80035d8:	483b      	ldr	r0, [pc, #236]	@ (80036c8 <RadioSend+0x1e4>)
 80035da:	f001 ff25 	bl	8005428 <SUBGRF_SetPacketParams>
                SUBGRF_SendPayload( buffer, size, 0 );
 80035de:	78fb      	ldrb	r3, [r7, #3]
 80035e0:	2200      	movs	r2, #0
 80035e2:	4619      	mov	r1, r3
 80035e4:	6878      	ldr	r0, [r7, #4]
 80035e6:	f001 f9d5 	bl	8004994 <SUBGRF_SendPayload>
            break;
 80035ea:	e05c      	b.n	80036a6 <RadioSend+0x1c2>
        }
        case MODEM_BPSK:
        {
            SubgRf.PacketParams.PacketType = PACKET_TYPE_BPSK;
 80035ec:	4b35      	ldr	r3, [pc, #212]	@ (80036c4 <RadioSend+0x1e0>)
 80035ee:	2202      	movs	r2, #2
 80035f0:	739a      	strb	r2, [r3, #14]
            SubgRf.PacketParams.Params.Bpsk.PayloadLength = size;
 80035f2:	4a34      	ldr	r2, [pc, #208]	@ (80036c4 <RadioSend+0x1e0>)
 80035f4:	78fb      	ldrb	r3, [r7, #3]
 80035f6:	7693      	strb	r3, [r2, #26]
            SUBGRF_SetPacketParams( &SubgRf.PacketParams );
 80035f8:	4833      	ldr	r0, [pc, #204]	@ (80036c8 <RadioSend+0x1e4>)
 80035fa:	f001 ff15 	bl	8005428 <SUBGRF_SetPacketParams>
            SUBGRF_SendPayload( buffer, size, 0 );
 80035fe:	78fb      	ldrb	r3, [r7, #3]
 8003600:	2200      	movs	r2, #0
 8003602:	4619      	mov	r1, r3
 8003604:	6878      	ldr	r0, [r7, #4]
 8003606:	f001 f9c5 	bl	8004994 <SUBGRF_SendPayload>
            break;
 800360a:	e04c      	b.n	80036a6 <RadioSend+0x1c2>
        case MODEM_SIGFOX_TX:
        {
            /* from bpsk to dbpsk */
            /* first 1 bit duplicated */
            /* RadioBuffer is 1 bytes more */
            payload_integration( RadioBuffer, buffer, size );
 800360c:	78fb      	ldrb	r3, [r7, #3]
 800360e:	461a      	mov	r2, r3
 8003610:	6879      	ldr	r1, [r7, #4]
 8003612:	482e      	ldr	r0, [pc, #184]	@ (80036cc <RadioSend+0x1e8>)
 8003614:	f000 fc96 	bl	8003f44 <payload_integration>

            SubgRf.PacketParams.PacketType = PACKET_TYPE_BPSK;
 8003618:	4b2a      	ldr	r3, [pc, #168]	@ (80036c4 <RadioSend+0x1e0>)
 800361a:	2202      	movs	r2, #2
 800361c:	739a      	strb	r2, [r3, #14]
            SubgRf.PacketParams.Params.Bpsk.PayloadLength = size + 1;
 800361e:	78fb      	ldrb	r3, [r7, #3]
 8003620:	3301      	adds	r3, #1
 8003622:	b2da      	uxtb	r2, r3
 8003624:	4b27      	ldr	r3, [pc, #156]	@ (80036c4 <RadioSend+0x1e0>)
 8003626:	769a      	strb	r2, [r3, #26]
            SUBGRF_SetPacketParams( &SubgRf.PacketParams );
 8003628:	4827      	ldr	r0, [pc, #156]	@ (80036c8 <RadioSend+0x1e4>)
 800362a:	f001 fefd 	bl	8005428 <SUBGRF_SetPacketParams>

            RadioWrite( SUBGHZ_RAM_RAMPUPL, 0 ); // clean start-up LSB
 800362e:	2100      	movs	r1, #0
 8003630:	20f1      	movs	r0, #241	@ 0xf1
 8003632:	f000 f963 	bl	80038fc <RadioWrite>
            RadioWrite( SUBGHZ_RAM_RAMPUPH, 0 ); // clean start-up MSB
 8003636:	2100      	movs	r1, #0
 8003638:	20f0      	movs	r0, #240	@ 0xf0
 800363a:	f000 f95f 	bl	80038fc <RadioWrite>
            if( SubgRf.ModulationParams.Params.Bpsk.BitRate == 100 )
 800363e:	4b21      	ldr	r3, [pc, #132]	@ (80036c4 <RadioSend+0x1e0>)
 8003640:	6c9b      	ldr	r3, [r3, #72]	@ 0x48
 8003642:	2b64      	cmp	r3, #100	@ 0x64
 8003644:	d108      	bne.n	8003658 <RadioSend+0x174>
            {
                RadioWrite( SUBGHZ_RAM_RAMPDNL, 0x70 ); // clean end of frame LSB
 8003646:	2170      	movs	r1, #112	@ 0x70
 8003648:	20f3      	movs	r0, #243	@ 0xf3
 800364a:	f000 f957 	bl	80038fc <RadioWrite>
                RadioWrite( SUBGHZ_RAM_RAMPDNH, 0x1D ); // clean end of frame MSB
 800364e:	211d      	movs	r1, #29
 8003650:	20f2      	movs	r0, #242	@ 0xf2
 8003652:	f000 f953 	bl	80038fc <RadioWrite>
 8003656:	e007      	b.n	8003668 <RadioSend+0x184>
            }
            else // 600 bps
            {
                RadioWrite( SUBGHZ_RAM_RAMPDNL, 0xE1 ); // clean end of frame LSB
 8003658:	21e1      	movs	r1, #225	@ 0xe1
 800365a:	20f3      	movs	r0, #243	@ 0xf3
 800365c:	f000 f94e 	bl	80038fc <RadioWrite>
                RadioWrite( SUBGHZ_RAM_RAMPDNH, 0x04 ); // clean end of frame MSB
 8003660:	2104      	movs	r1, #4
 8003662:	20f2      	movs	r0, #242	@ 0xf2
 8003664:	f000 f94a 	bl	80038fc <RadioWrite>
            }

            uint16_t bitNum = ( size * 8 ) + 2;
 8003668:	78fb      	ldrb	r3, [r7, #3]
 800366a:	b29b      	uxth	r3, r3
 800366c:	00db      	lsls	r3, r3, #3
 800366e:	b29b      	uxth	r3, r3
 8003670:	3302      	adds	r3, #2
 8003672:	81fb      	strh	r3, [r7, #14]
            RadioWrite( SUBGHZ_RAM_FRAMELIMH, ( bitNum >> 8 ) & 0x00FF );    // limit frame
 8003674:	89fb      	ldrh	r3, [r7, #14]
 8003676:	0a1b      	lsrs	r3, r3, #8
 8003678:	b29b      	uxth	r3, r3
 800367a:	b2db      	uxtb	r3, r3
 800367c:	4619      	mov	r1, r3
 800367e:	20f4      	movs	r0, #244	@ 0xf4
 8003680:	f000 f93c 	bl	80038fc <RadioWrite>
            RadioWrite( SUBGHZ_RAM_FRAMELIML, bitNum & 0x00FF );             // limit frame
 8003684:	89fb      	ldrh	r3, [r7, #14]
 8003686:	b2db      	uxtb	r3, r3
 8003688:	4619      	mov	r1, r3
 800368a:	20f5      	movs	r0, #245	@ 0xf5
 800368c:	f000 f936 	bl	80038fc <RadioWrite>
            SUBGRF_SendPayload( RadioBuffer, size + 1, 0xFFFFFF );
 8003690:	78fb      	ldrb	r3, [r7, #3]
 8003692:	3301      	adds	r3, #1
 8003694:	b2db      	uxtb	r3, r3
 8003696:	f06f 427f 	mvn.w	r2, #4278190080	@ 0xff000000
 800369a:	4619      	mov	r1, r3
 800369c:	480b      	ldr	r0, [pc, #44]	@ (80036cc <RadioSend+0x1e8>)
 800369e:	f001 f979 	bl	8004994 <SUBGRF_SendPayload>
            break;
 80036a2:	e000      	b.n	80036a6 <RadioSend+0x1c2>
        }
#endif /*RADIO_SIGFOX_ENABLE == 1*/
        default:
            break;
 80036a4:	bf00      	nop
        }

        TimerSetValue( &TxTimeoutTimer, SubgRf.TxTimeout );
 80036a6:	4b07      	ldr	r3, [pc, #28]	@ (80036c4 <RadioSend+0x1e0>)
 80036a8:	685b      	ldr	r3, [r3, #4]
 80036aa:	4619      	mov	r1, r3
 80036ac:	4808      	ldr	r0, [pc, #32]	@ (80036d0 <RadioSend+0x1ec>)
 80036ae:	f002 fcfd 	bl	80060ac <UTIL_TIMER_SetPeriod>
        TimerStart( &TxTimeoutTimer );
 80036b2:	4807      	ldr	r0, [pc, #28]	@ (80036d0 <RadioSend+0x1ec>)
 80036b4:	f002 fc1c 	bl	8005ef0 <UTIL_TIMER_Start>
    }

    return RADIO_STATUS_OK;
 80036b8:	2300      	movs	r3, #0
}
 80036ba:	4618      	mov	r0, r3
 80036bc:	3710      	adds	r7, #16
 80036be:	46bd      	mov	sp, r7
 80036c0:	bd80      	pop	{r7, pc}
 80036c2:	bf00      	nop
 80036c4:	200001a4 	.word	0x200001a4
 80036c8:	200001b2 	.word	0x200001b2
 80036cc:	200000a0 	.word	0x200000a0
 80036d0:	20000200 	.word	0x20000200

080036d4 <RadioSleep>:

static void RadioSleep( void )
{
 80036d4:	b580      	push	{r7, lr}
 80036d6:	b082      	sub	sp, #8
 80036d8:	af00      	add	r7, sp, #0
    SleepParams_t params = { 0 };
 80036da:	2300      	movs	r3, #0
 80036dc:	713b      	strb	r3, [r7, #4]

    params.Fields.WarmStart = 1;
 80036de:	793b      	ldrb	r3, [r7, #4]
 80036e0:	f043 0304 	orr.w	r3, r3, #4
 80036e4:	713b      	strb	r3, [r7, #4]
    SUBGRF_SetSleep( params );
 80036e6:	7938      	ldrb	r0, [r7, #4]
 80036e8:	f001 fa30 	bl	8004b4c <SUBGRF_SetSleep>

    RADIO_DELAY_MS( 2 );
 80036ec:	2002      	movs	r0, #2
 80036ee:	f7fd f839 	bl	8000764 <HAL_Delay>
}
 80036f2:	bf00      	nop
 80036f4:	3708      	adds	r7, #8
 80036f6:	46bd      	mov	sp, r7
 80036f8:	bd80      	pop	{r7, pc}

080036fa <RadioStandby>:

static void RadioStandby( void )
{
 80036fa:	b580      	push	{r7, lr}
 80036fc:	af00      	add	r7, sp, #0
    SUBGRF_SetStandby( STDBY_RC );
 80036fe:	2000      	movs	r0, #0
 8003700:	f001 fa56 	bl	8004bb0 <SUBGRF_SetStandby>
}
 8003704:	bf00      	nop
 8003706:	bd80      	pop	{r7, pc}

08003708 <RadioRx>:

static void RadioRx( uint32_t timeout )
{
 8003708:	b580      	push	{r7, lr}
 800370a:	b082      	sub	sp, #8
 800370c:	af00      	add	r7, sp, #0
 800370e:	6078      	str	r0, [r7, #4]
    if( SubgRf.lr_fhss.is_lr_fhss_on == true )
    {
        //return LORAMAC_RADIO_STATUS_ERROR;
    }
#endif /* RADIO_LR_FHSS_IS_ON == 1 */
    if( 1UL == RFW_Is_Init( ) )
 8003710:	f002 fa37 	bl	8005b82 <RFW_Is_Init>
 8003714:	4603      	mov	r3, r0
 8003716:	2b01      	cmp	r3, #1
 8003718:	d102      	bne.n	8003720 <RadioRx+0x18>
    {
        RFW_ReceiveInit( );
 800371a:	f002 fa5a 	bl	8005bd2 <RFW_ReceiveInit>
 800371e:	e007      	b.n	8003730 <RadioRx+0x28>
    }
    else
    {
        SUBGRF_SetDioIrqParams( IRQ_RX_DONE | IRQ_RX_TX_TIMEOUT | IRQ_CRC_ERROR | IRQ_HEADER_ERROR | IRQ_RX_DBG,
 8003720:	2300      	movs	r3, #0
 8003722:	2200      	movs	r2, #0
 8003724:	f240 2162 	movw	r1, #610	@ 0x262
 8003728:	f240 2062 	movw	r0, #610	@ 0x262
 800372c:	f001 fc14 	bl	8004f58 <SUBGRF_SetDioIrqParams>
                                IRQ_RX_DONE | IRQ_RX_TX_TIMEOUT | IRQ_CRC_ERROR | IRQ_HEADER_ERROR | IRQ_RX_DBG,
                                IRQ_RADIO_NONE,
                                IRQ_RADIO_NONE );
    }

    if( timeout != 0 )
 8003730:	687b      	ldr	r3, [r7, #4]
 8003732:	2b00      	cmp	r3, #0
 8003734:	d006      	beq.n	8003744 <RadioRx+0x3c>
    {
        TimerSetValue( &RxTimeoutTimer, timeout );
 8003736:	6879      	ldr	r1, [r7, #4]
 8003738:	4811      	ldr	r0, [pc, #68]	@ (8003780 <RadioRx+0x78>)
 800373a:	f002 fcb7 	bl	80060ac <UTIL_TIMER_SetPeriod>
        TimerStart( &RxTimeoutTimer );
 800373e:	4810      	ldr	r0, [pc, #64]	@ (8003780 <RadioRx+0x78>)
 8003740:	f002 fbd6 	bl	8005ef0 <UTIL_TIMER_Start>
    }
    /* switch off RxDcPreambleDetect See STM32WL Errata: RadioSetRxDutyCycle*/
    SubgRf.RxDcPreambleDetectTimeout = 0;
 8003744:	4b0f      	ldr	r3, [pc, #60]	@ (8003784 <RadioRx+0x7c>)
 8003746:	2200      	movs	r2, #0
 8003748:	659a      	str	r2, [r3, #88]	@ 0x58
    /* Set DBG pin */
    DBG_GPIO_RADIO_RX( SET );
    /* RF switch configuration */
    SUBGRF_SetSwitch( SubgRf.AntSwitchPaSelect, RFSWITCH_RX );
 800374a:	4b0e      	ldr	r3, [pc, #56]	@ (8003784 <RadioRx+0x7c>)
 800374c:	f893 3056 	ldrb.w	r3, [r3, #86]	@ 0x56
 8003750:	2100      	movs	r1, #0
 8003752:	4618      	mov	r0, r3
 8003754:	f002 f8be 	bl	80058d4 <SUBGRF_SetSwitch>

    if( SubgRf.RxContinuous == true )
 8003758:	4b0a      	ldr	r3, [pc, #40]	@ (8003784 <RadioRx+0x7c>)
 800375a:	785b      	ldrb	r3, [r3, #1]
 800375c:	2b00      	cmp	r3, #0
 800375e:	d004      	beq.n	800376a <RadioRx+0x62>
    {
        SUBGRF_SetRx( 0xFFFFFF ); // Rx Continuous
 8003760:	f06f 407f 	mvn.w	r0, #4278190080	@ 0xff000000
 8003764:	f001 fa60 	bl	8004c28 <SUBGRF_SetRx>
    }
    else
    {
        SUBGRF_SetRx( SubgRf.RxTimeout << 6 );
    }
}
 8003768:	e005      	b.n	8003776 <RadioRx+0x6e>
        SUBGRF_SetRx( SubgRf.RxTimeout << 6 );
 800376a:	4b06      	ldr	r3, [pc, #24]	@ (8003784 <RadioRx+0x7c>)
 800376c:	689b      	ldr	r3, [r3, #8]
 800376e:	019b      	lsls	r3, r3, #6
 8003770:	4618      	mov	r0, r3
 8003772:	f001 fa59 	bl	8004c28 <SUBGRF_SetRx>
}
 8003776:	bf00      	nop
 8003778:	3708      	adds	r7, #8
 800377a:	46bd      	mov	sp, r7
 800377c:	bd80      	pop	{r7, pc}
 800377e:	bf00      	nop
 8003780:	20000218 	.word	0x20000218
 8003784:	200001a4 	.word	0x200001a4

08003788 <RadioRxBoosted>:

static void RadioRxBoosted( uint32_t timeout )
{
 8003788:	b580      	push	{r7, lr}
 800378a:	b082      	sub	sp, #8
 800378c:	af00      	add	r7, sp, #0
 800378e:	6078      	str	r0, [r7, #4]
    if( SubgRf.lr_fhss.is_lr_fhss_on == true )
    {
        //return LORAMAC_RADIO_STATUS_ERROR;
    }
#endif /* RADIO_LR_FHSS_IS_ON == 1 */
    if( 1UL == RFW_Is_Init() )
 8003790:	f002 f9f7 	bl	8005b82 <RFW_Is_Init>
 8003794:	4603      	mov	r3, r0
 8003796:	2b01      	cmp	r3, #1
 8003798:	d102      	bne.n	80037a0 <RadioRxBoosted+0x18>
    {
        RFW_ReceiveInit();
 800379a:	f002 fa1a 	bl	8005bd2 <RFW_ReceiveInit>
 800379e:	e007      	b.n	80037b0 <RadioRxBoosted+0x28>
    }
    else
    {
        SUBGRF_SetDioIrqParams( IRQ_RX_DONE | IRQ_RX_TX_TIMEOUT | IRQ_CRC_ERROR | IRQ_HEADER_ERROR | IRQ_RX_DBG,
 80037a0:	2300      	movs	r3, #0
 80037a2:	2200      	movs	r2, #0
 80037a4:	f240 2162 	movw	r1, #610	@ 0x262
 80037a8:	f240 2062 	movw	r0, #610	@ 0x262
 80037ac:	f001 fbd4 	bl	8004f58 <SUBGRF_SetDioIrqParams>
                                IRQ_RX_DONE | IRQ_RX_TX_TIMEOUT | IRQ_CRC_ERROR | IRQ_HEADER_ERROR | IRQ_RX_DBG,
                                IRQ_RADIO_NONE,
                                IRQ_RADIO_NONE );
    }
    if( timeout != 0 )
 80037b0:	687b      	ldr	r3, [r7, #4]
 80037b2:	2b00      	cmp	r3, #0
 80037b4:	d006      	beq.n	80037c4 <RadioRxBoosted+0x3c>
    {
        TimerSetValue( &RxTimeoutTimer, timeout );
 80037b6:	6879      	ldr	r1, [r7, #4]
 80037b8:	4811      	ldr	r0, [pc, #68]	@ (8003800 <RadioRxBoosted+0x78>)
 80037ba:	f002 fc77 	bl	80060ac <UTIL_TIMER_SetPeriod>
        TimerStart( &RxTimeoutTimer );
 80037be:	4810      	ldr	r0, [pc, #64]	@ (8003800 <RadioRxBoosted+0x78>)
 80037c0:	f002 fb96 	bl	8005ef0 <UTIL_TIMER_Start>
    }
    /* switch off RxDcPreambleDetect See STM32WL Errata: RadioSetRxDutyCycle*/
    SubgRf.RxDcPreambleDetectTimeout = 0;
 80037c4:	4b0f      	ldr	r3, [pc, #60]	@ (8003804 <RadioRxBoosted+0x7c>)
 80037c6:	2200      	movs	r2, #0
 80037c8:	659a      	str	r2, [r3, #88]	@ 0x58
    /* Set DBG pin */
    DBG_GPIO_RADIO_RX( SET );
    /* RF switch configuration */
    SUBGRF_SetSwitch( SubgRf.AntSwitchPaSelect, RFSWITCH_RX );
 80037ca:	4b0e      	ldr	r3, [pc, #56]	@ (8003804 <RadioRxBoosted+0x7c>)
 80037cc:	f893 3056 	ldrb.w	r3, [r3, #86]	@ 0x56
 80037d0:	2100      	movs	r1, #0
 80037d2:	4618      	mov	r0, r3
 80037d4:	f002 f87e 	bl	80058d4 <SUBGRF_SetSwitch>

    if( SubgRf.RxContinuous == true )
 80037d8:	4b0a      	ldr	r3, [pc, #40]	@ (8003804 <RadioRxBoosted+0x7c>)
 80037da:	785b      	ldrb	r3, [r3, #1]
 80037dc:	2b00      	cmp	r3, #0
 80037de:	d004      	beq.n	80037ea <RadioRxBoosted+0x62>
    {
        SUBGRF_SetRxBoosted( 0xFFFFFF ); // Rx Continuous
 80037e0:	f06f 407f 	mvn.w	r0, #4278190080	@ 0xff000000
 80037e4:	f001 fa40 	bl	8004c68 <SUBGRF_SetRxBoosted>
    }
    else
    {
        SUBGRF_SetRxBoosted( SubgRf.RxTimeout << 6 );
    }
}
 80037e8:	e005      	b.n	80037f6 <RadioRxBoosted+0x6e>
        SUBGRF_SetRxBoosted( SubgRf.RxTimeout << 6 );
 80037ea:	4b06      	ldr	r3, [pc, #24]	@ (8003804 <RadioRxBoosted+0x7c>)
 80037ec:	689b      	ldr	r3, [r3, #8]
 80037ee:	019b      	lsls	r3, r3, #6
 80037f0:	4618      	mov	r0, r3
 80037f2:	f001 fa39 	bl	8004c68 <SUBGRF_SetRxBoosted>
}
 80037f6:	bf00      	nop
 80037f8:	3708      	adds	r7, #8
 80037fa:	46bd      	mov	sp, r7
 80037fc:	bd80      	pop	{r7, pc}
 80037fe:	bf00      	nop
 8003800:	20000218 	.word	0x20000218
 8003804:	200001a4 	.word	0x200001a4

08003808 <RadioSetRxDutyCycle>:

static void RadioSetRxDutyCycle( uint32_t rxTime, uint32_t sleepTime )
{
 8003808:	b580      	push	{r7, lr}
 800380a:	b082      	sub	sp, #8
 800380c:	af00      	add	r7, sp, #0
 800380e:	6078      	str	r0, [r7, #4]
 8003810:	6039      	str	r1, [r7, #0]
    /*See STM32WL Errata: RadioSetRxDutyCycle*/
    SubgRf.RxDcPreambleDetectTimeout = 2 * rxTime + sleepTime;
 8003812:	687b      	ldr	r3, [r7, #4]
 8003814:	005a      	lsls	r2, r3, #1
 8003816:	683b      	ldr	r3, [r7, #0]
 8003818:	4413      	add	r3, r2
 800381a:	4a0c      	ldr	r2, [pc, #48]	@ (800384c <RadioSetRxDutyCycle+0x44>)
 800381c:	6593      	str	r3, [r2, #88]	@ 0x58
    /*Enable also the IRQ_PREAMBLE_DETECTED*/
    SUBGRF_SetDioIrqParams( IRQ_RADIO_ALL, IRQ_RADIO_ALL, IRQ_RADIO_NONE, IRQ_RADIO_NONE );
 800381e:	2300      	movs	r3, #0
 8003820:	2200      	movs	r2, #0
 8003822:	f64f 71ff 	movw	r1, #65535	@ 0xffff
 8003826:	f64f 70ff 	movw	r0, #65535	@ 0xffff
 800382a:	f001 fb95 	bl	8004f58 <SUBGRF_SetDioIrqParams>
    /* RF switch configuration */
    SUBGRF_SetSwitch( SubgRf.AntSwitchPaSelect, RFSWITCH_RX );
 800382e:	4b07      	ldr	r3, [pc, #28]	@ (800384c <RadioSetRxDutyCycle+0x44>)
 8003830:	f893 3056 	ldrb.w	r3, [r3, #86]	@ 0x56
 8003834:	2100      	movs	r1, #0
 8003836:	4618      	mov	r0, r3
 8003838:	f002 f84c 	bl	80058d4 <SUBGRF_SetSwitch>
    /* Start Rx DutyCycle*/
    SUBGRF_SetRxDutyCycle( rxTime, sleepTime );
 800383c:	6839      	ldr	r1, [r7, #0]
 800383e:	6878      	ldr	r0, [r7, #4]
 8003840:	f001 fa36 	bl	8004cb0 <SUBGRF_SetRxDutyCycle>
}
 8003844:	bf00      	nop
 8003846:	3708      	adds	r7, #8
 8003848:	46bd      	mov	sp, r7
 800384a:	bd80      	pop	{r7, pc}
 800384c:	200001a4 	.word	0x200001a4

08003850 <RadioStartCad>:

static void RadioStartCad( void )
{
 8003850:	b580      	push	{r7, lr}
 8003852:	af00      	add	r7, sp, #0
    /* RF switch configuration */
    SUBGRF_SetSwitch( SubgRf.AntSwitchPaSelect, RFSWITCH_RX );
 8003854:	4b09      	ldr	r3, [pc, #36]	@ (800387c <RadioStartCad+0x2c>)
 8003856:	f893 3056 	ldrb.w	r3, [r3, #86]	@ 0x56
 800385a:	2100      	movs	r1, #0
 800385c:	4618      	mov	r0, r3
 800385e:	f002 f839 	bl	80058d4 <SUBGRF_SetSwitch>

    SUBGRF_SetDioIrqParams( IRQ_CAD_CLEAR | IRQ_CAD_DETECTED,
 8003862:	2300      	movs	r3, #0
 8003864:	2200      	movs	r2, #0
 8003866:	f44f 71c0 	mov.w	r1, #384	@ 0x180
 800386a:	f44f 70c0 	mov.w	r0, #384	@ 0x180
 800386e:	f001 fb73 	bl	8004f58 <SUBGRF_SetDioIrqParams>
                            IRQ_CAD_CLEAR | IRQ_CAD_DETECTED,
                            IRQ_RADIO_NONE,
                            IRQ_RADIO_NONE );
    SUBGRF_SetCad( );
 8003872:	f001 fa49 	bl	8004d08 <SUBGRF_SetCad>
}
 8003876:	bf00      	nop
 8003878:	bd80      	pop	{r7, pc}
 800387a:	bf00      	nop
 800387c:	200001a4 	.word	0x200001a4

08003880 <RadioSetTxContinuousWave>:

static void RadioSetTxContinuousWave( uint32_t freq, int8_t power, uint16_t time )
{
 8003880:	b580      	push	{r7, lr}
 8003882:	b084      	sub	sp, #16
 8003884:	af00      	add	r7, sp, #0
 8003886:	6078      	str	r0, [r7, #4]
 8003888:	460b      	mov	r3, r1
 800388a:	70fb      	strb	r3, [r7, #3]
 800388c:	4613      	mov	r3, r2
 800388e:	803b      	strh	r3, [r7, #0]
    if( SubgRf.lr_fhss.is_lr_fhss_on == true )
    {
        //return LORAMAC_RADIO_STATUS_ERROR;
    }
#endif /* RADIO_LR_FHSS_IS_ON == 1 */
    uint32_t timeout = ( uint32_t )time * 1000;
 8003890:	883b      	ldrh	r3, [r7, #0]
 8003892:	f44f 727a 	mov.w	r2, #1000	@ 0x3e8
 8003896:	fb02 f303 	mul.w	r3, r2, r3
 800389a:	60fb      	str	r3, [r7, #12]
    uint8_t antswitchpow;

    SUBGRF_SetRfFrequency( freq );
 800389c:	6878      	ldr	r0, [r7, #4]
 800389e:	f001 fbb7 	bl	8005010 <SUBGRF_SetRfFrequency>

    antswitchpow = SUBGRF_SetRfTxPower( power );
 80038a2:	f997 3003 	ldrsb.w	r3, [r7, #3]
 80038a6:	4618      	mov	r0, r3
 80038a8:	f002 f83c 	bl	8005924 <SUBGRF_SetRfTxPower>
 80038ac:	4603      	mov	r3, r0
 80038ae:	72fb      	strb	r3, [r7, #11]

    /* WORKAROUND - Trimming the output voltage power_ldo to 3.3V */
    SUBGRF_WriteRegister(REG_DRV_CTRL, 0x7 << 1);
 80038b0:	210e      	movs	r1, #14
 80038b2:	f640 101f 	movw	r0, #2335	@ 0x91f
 80038b6:	f001 feff 	bl	80056b8 <SUBGRF_WriteRegister>

    /* Set RF switch */
    SUBGRF_SetSwitch( antswitchpow, RFSWITCH_TX );
 80038ba:	7afb      	ldrb	r3, [r7, #11]
 80038bc:	2101      	movs	r1, #1
 80038be:	4618      	mov	r0, r3
 80038c0:	f002 f808 	bl	80058d4 <SUBGRF_SetSwitch>

    SUBGRF_SetTxContinuousWave( );
 80038c4:	f001 fa2e 	bl	8004d24 <SUBGRF_SetTxContinuousWave>

    TimerSetValue( &TxTimeoutTimer, timeout );
 80038c8:	68f9      	ldr	r1, [r7, #12]
 80038ca:	4805      	ldr	r0, [pc, #20]	@ (80038e0 <RadioSetTxContinuousWave+0x60>)
 80038cc:	f002 fbee 	bl	80060ac <UTIL_TIMER_SetPeriod>
    TimerStart( &TxTimeoutTimer );
 80038d0:	4803      	ldr	r0, [pc, #12]	@ (80038e0 <RadioSetTxContinuousWave+0x60>)
 80038d2:	f002 fb0d 	bl	8005ef0 <UTIL_TIMER_Start>
}
 80038d6:	bf00      	nop
 80038d8:	3710      	adds	r7, #16
 80038da:	46bd      	mov	sp, r7
 80038dc:	bd80      	pop	{r7, pc}
 80038de:	bf00      	nop
 80038e0:	20000200 	.word	0x20000200

080038e4 <RadioRssi>:

static int16_t RadioRssi( RadioModems_t modem )
{
 80038e4:	b580      	push	{r7, lr}
 80038e6:	b082      	sub	sp, #8
 80038e8:	af00      	add	r7, sp, #0
 80038ea:	4603      	mov	r3, r0
 80038ec:	71fb      	strb	r3, [r7, #7]
    return SUBGRF_GetRssiInst( );
 80038ee:	f001 fe50 	bl	8005592 <SUBGRF_GetRssiInst>
 80038f2:	4603      	mov	r3, r0
}
 80038f4:	4618      	mov	r0, r3
 80038f6:	3708      	adds	r7, #8
 80038f8:	46bd      	mov	sp, r7
 80038fa:	bd80      	pop	{r7, pc}

080038fc <RadioWrite>:

static void RadioWrite( uint16_t addr, uint8_t data )
{
 80038fc:	b580      	push	{r7, lr}
 80038fe:	b082      	sub	sp, #8
 8003900:	af00      	add	r7, sp, #0
 8003902:	4603      	mov	r3, r0
 8003904:	460a      	mov	r2, r1
 8003906:	80fb      	strh	r3, [r7, #6]
 8003908:	4613      	mov	r3, r2
 800390a:	717b      	strb	r3, [r7, #5]
    SUBGRF_WriteRegister( addr, data );
 800390c:	797a      	ldrb	r2, [r7, #5]
 800390e:	88fb      	ldrh	r3, [r7, #6]
 8003910:	4611      	mov	r1, r2
 8003912:	4618      	mov	r0, r3
 8003914:	f001 fed0 	bl	80056b8 <SUBGRF_WriteRegister>
}
 8003918:	bf00      	nop
 800391a:	3708      	adds	r7, #8
 800391c:	46bd      	mov	sp, r7
 800391e:	bd80      	pop	{r7, pc}

08003920 <RadioRead>:

static uint8_t RadioRead( uint16_t addr )
{
 8003920:	b580      	push	{r7, lr}
 8003922:	b082      	sub	sp, #8
 8003924:	af00      	add	r7, sp, #0
 8003926:	4603      	mov	r3, r0
 8003928:	80fb      	strh	r3, [r7, #6]
    return SUBGRF_ReadRegister( addr );
 800392a:	88fb      	ldrh	r3, [r7, #6]
 800392c:	4618      	mov	r0, r3
 800392e:	f001 fee5 	bl	80056fc <SUBGRF_ReadRegister>
 8003932:	4603      	mov	r3, r0
}
 8003934:	4618      	mov	r0, r3
 8003936:	3708      	adds	r7, #8
 8003938:	46bd      	mov	sp, r7
 800393a:	bd80      	pop	{r7, pc}

0800393c <RadioWriteRegisters>:

static void RadioWriteRegisters( uint16_t addr, uint8_t *buffer, uint8_t size )
{
 800393c:	b580      	push	{r7, lr}
 800393e:	b082      	sub	sp, #8
 8003940:	af00      	add	r7, sp, #0
 8003942:	4603      	mov	r3, r0
 8003944:	6039      	str	r1, [r7, #0]
 8003946:	80fb      	strh	r3, [r7, #6]
 8003948:	4613      	mov	r3, r2
 800394a:	717b      	strb	r3, [r7, #5]
    SUBGRF_WriteRegisters( addr, buffer, size );
 800394c:	797b      	ldrb	r3, [r7, #5]
 800394e:	b29a      	uxth	r2, r3
 8003950:	88fb      	ldrh	r3, [r7, #6]
 8003952:	6839      	ldr	r1, [r7, #0]
 8003954:	4618      	mov	r0, r3
 8003956:	f001 fef1 	bl	800573c <SUBGRF_WriteRegisters>
}
 800395a:	bf00      	nop
 800395c:	3708      	adds	r7, #8
 800395e:	46bd      	mov	sp, r7
 8003960:	bd80      	pop	{r7, pc}

08003962 <RadioReadRegisters>:

static void RadioReadRegisters( uint16_t addr, uint8_t *buffer, uint8_t size )
{
 8003962:	b580      	push	{r7, lr}
 8003964:	b082      	sub	sp, #8
 8003966:	af00      	add	r7, sp, #0
 8003968:	4603      	mov	r3, r0
 800396a:	6039      	str	r1, [r7, #0]
 800396c:	80fb      	strh	r3, [r7, #6]
 800396e:	4613      	mov	r3, r2
 8003970:	717b      	strb	r3, [r7, #5]
    SUBGRF_ReadRegisters( addr, buffer, size );
 8003972:	797b      	ldrb	r3, [r7, #5]
 8003974:	b29a      	uxth	r2, r3
 8003976:	88fb      	ldrh	r3, [r7, #6]
 8003978:	6839      	ldr	r1, [r7, #0]
 800397a:	4618      	mov	r0, r3
 800397c:	f001 ff00 	bl	8005780 <SUBGRF_ReadRegisters>
}
 8003980:	bf00      	nop
 8003982:	3708      	adds	r7, #8
 8003984:	46bd      	mov	sp, r7
 8003986:	bd80      	pop	{r7, pc}

08003988 <RadioSetMaxPayloadLength>:

static void RadioSetMaxPayloadLength( RadioModems_t modem, uint8_t max )
{
 8003988:	b580      	push	{r7, lr}
 800398a:	b082      	sub	sp, #8
 800398c:	af00      	add	r7, sp, #0
 800398e:	4603      	mov	r3, r0
 8003990:	460a      	mov	r2, r1
 8003992:	71fb      	strb	r3, [r7, #7]
 8003994:	4613      	mov	r3, r2
 8003996:	71bb      	strb	r3, [r7, #6]
    if( modem == MODEM_LORA )
 8003998:	79fb      	ldrb	r3, [r7, #7]
 800399a:	2b01      	cmp	r3, #1
 800399c:	d10a      	bne.n	80039b4 <RadioSetMaxPayloadLength+0x2c>
    {
        SubgRf.PacketParams.Params.LoRa.PayloadLength = MaxPayloadLength = max;
 800399e:	4a0e      	ldr	r2, [pc, #56]	@ (80039d8 <RadioSetMaxPayloadLength+0x50>)
 80039a0:	79bb      	ldrb	r3, [r7, #6]
 80039a2:	7013      	strb	r3, [r2, #0]
 80039a4:	4b0c      	ldr	r3, [pc, #48]	@ (80039d8 <RadioSetMaxPayloadLength+0x50>)
 80039a6:	781a      	ldrb	r2, [r3, #0]
 80039a8:	4b0c      	ldr	r3, [pc, #48]	@ (80039dc <RadioSetMaxPayloadLength+0x54>)
 80039aa:	77da      	strb	r2, [r3, #31]
        SUBGRF_SetPacketParams( &SubgRf.PacketParams );
 80039ac:	480c      	ldr	r0, [pc, #48]	@ (80039e0 <RadioSetMaxPayloadLength+0x58>)
 80039ae:	f001 fd3b 	bl	8005428 <SUBGRF_SetPacketParams>
        {
            SubgRf.PacketParams.Params.Gfsk.PayloadLength = MaxPayloadLength = max;
            SUBGRF_SetPacketParams( &SubgRf.PacketParams );
        }
    }
}
 80039b2:	e00d      	b.n	80039d0 <RadioSetMaxPayloadLength+0x48>
        if( SubgRf.PacketParams.Params.Gfsk.HeaderType == RADIO_PACKET_VARIABLE_LENGTH )
 80039b4:	4b09      	ldr	r3, [pc, #36]	@ (80039dc <RadioSetMaxPayloadLength+0x54>)
 80039b6:	7d5b      	ldrb	r3, [r3, #21]
 80039b8:	2b01      	cmp	r3, #1
 80039ba:	d109      	bne.n	80039d0 <RadioSetMaxPayloadLength+0x48>
            SubgRf.PacketParams.Params.Gfsk.PayloadLength = MaxPayloadLength = max;
 80039bc:	4a06      	ldr	r2, [pc, #24]	@ (80039d8 <RadioSetMaxPayloadLength+0x50>)
 80039be:	79bb      	ldrb	r3, [r7, #6]
 80039c0:	7013      	strb	r3, [r2, #0]
 80039c2:	4b05      	ldr	r3, [pc, #20]	@ (80039d8 <RadioSetMaxPayloadLength+0x50>)
 80039c4:	781a      	ldrb	r2, [r3, #0]
 80039c6:	4b05      	ldr	r3, [pc, #20]	@ (80039dc <RadioSetMaxPayloadLength+0x54>)
 80039c8:	759a      	strb	r2, [r3, #22]
            SUBGRF_SetPacketParams( &SubgRf.PacketParams );
 80039ca:	4805      	ldr	r0, [pc, #20]	@ (80039e0 <RadioSetMaxPayloadLength+0x58>)
 80039cc:	f001 fd2c 	bl	8005428 <SUBGRF_SetPacketParams>
}
 80039d0:	bf00      	nop
 80039d2:	3708      	adds	r7, #8
 80039d4:	46bd      	mov	sp, r7
 80039d6:	bd80      	pop	{r7, pc}
 80039d8:	20000009 	.word	0x20000009
 80039dc:	200001a4 	.word	0x200001a4
 80039e0:	200001b2 	.word	0x200001b2

080039e4 <RadioSetPublicNetwork>:

static void RadioSetPublicNetwork( bool enable )
{
 80039e4:	b580      	push	{r7, lr}
 80039e6:	b082      	sub	sp, #8
 80039e8:	af00      	add	r7, sp, #0
 80039ea:	4603      	mov	r3, r0
 80039ec:	71fb      	strb	r3, [r7, #7]
    SubgRf.PublicNetwork.Current = SubgRf.PublicNetwork.Previous = enable;
 80039ee:	4a13      	ldr	r2, [pc, #76]	@ (8003a3c <RadioSetPublicNetwork+0x58>)
 80039f0:	79fb      	ldrb	r3, [r7, #7]
 80039f2:	7313      	strb	r3, [r2, #12]
 80039f4:	4b11      	ldr	r3, [pc, #68]	@ (8003a3c <RadioSetPublicNetwork+0x58>)
 80039f6:	7b1a      	ldrb	r2, [r3, #12]
 80039f8:	4b10      	ldr	r3, [pc, #64]	@ (8003a3c <RadioSetPublicNetwork+0x58>)
 80039fa:	735a      	strb	r2, [r3, #13]

    RadioSetModem( MODEM_LORA );
 80039fc:	2001      	movs	r0, #1
 80039fe:	f7ff f81b 	bl	8002a38 <RadioSetModem>
    if( enable == true )
 8003a02:	79fb      	ldrb	r3, [r7, #7]
 8003a04:	2b00      	cmp	r3, #0
 8003a06:	d00a      	beq.n	8003a1e <RadioSetPublicNetwork+0x3a>
    {
        // Change LoRa modem SyncWord
        SUBGRF_WriteRegister( REG_LR_SYNCWORD, ( LORA_MAC_PUBLIC_SYNCWORD >> 8 ) & 0xFF );
 8003a08:	2134      	movs	r1, #52	@ 0x34
 8003a0a:	f44f 60e8 	mov.w	r0, #1856	@ 0x740
 8003a0e:	f001 fe53 	bl	80056b8 <SUBGRF_WriteRegister>
        SUBGRF_WriteRegister( REG_LR_SYNCWORD + 1, LORA_MAC_PUBLIC_SYNCWORD & 0xFF );
 8003a12:	2144      	movs	r1, #68	@ 0x44
 8003a14:	f240 7041 	movw	r0, #1857	@ 0x741
 8003a18:	f001 fe4e 	bl	80056b8 <SUBGRF_WriteRegister>
    {
        // Change LoRa modem SyncWord
        SUBGRF_WriteRegister( REG_LR_SYNCWORD, ( LORA_MAC_PRIVATE_SYNCWORD >> 8 ) & 0xFF );
        SUBGRF_WriteRegister( REG_LR_SYNCWORD + 1, LORA_MAC_PRIVATE_SYNCWORD & 0xFF );
    }
}
 8003a1c:	e009      	b.n	8003a32 <RadioSetPublicNetwork+0x4e>
        SUBGRF_WriteRegister( REG_LR_SYNCWORD, ( LORA_MAC_PRIVATE_SYNCWORD >> 8 ) & 0xFF );
 8003a1e:	2114      	movs	r1, #20
 8003a20:	f44f 60e8 	mov.w	r0, #1856	@ 0x740
 8003a24:	f001 fe48 	bl	80056b8 <SUBGRF_WriteRegister>
        SUBGRF_WriteRegister( REG_LR_SYNCWORD + 1, LORA_MAC_PRIVATE_SYNCWORD & 0xFF );
 8003a28:	2124      	movs	r1, #36	@ 0x24
 8003a2a:	f240 7041 	movw	r0, #1857	@ 0x741
 8003a2e:	f001 fe43 	bl	80056b8 <SUBGRF_WriteRegister>
}
 8003a32:	bf00      	nop
 8003a34:	3708      	adds	r7, #8
 8003a36:	46bd      	mov	sp, r7
 8003a38:	bd80      	pop	{r7, pc}
 8003a3a:	bf00      	nop
 8003a3c:	200001a4 	.word	0x200001a4

08003a40 <RadioGetWakeupTime>:

static uint32_t RadioGetWakeupTime( void )
{
 8003a40:	b580      	push	{r7, lr}
 8003a42:	af00      	add	r7, sp, #0
    return SUBGRF_GetRadioWakeUpTime() + RADIO_WAKEUP_TIME;
 8003a44:	f001 ffa2 	bl	800598c <SUBGRF_GetRadioWakeUpTime>
 8003a48:	4603      	mov	r3, r0
 8003a4a:	3303      	adds	r3, #3
}
 8003a4c:	4618      	mov	r0, r3
 8003a4e:	bd80      	pop	{r7, pc}

08003a50 <RadioOnTxTimeoutIrq>:

static void RadioOnTxTimeoutIrq( void *context )
{
 8003a50:	b580      	push	{r7, lr}
 8003a52:	b082      	sub	sp, #8
 8003a54:	af00      	add	r7, sp, #0
 8003a56:	6078      	str	r0, [r7, #4]
    RADIO_TX_TIMEOUT_PROCESS();
 8003a58:	f000 f80e 	bl	8003a78 <RadioOnTxTimeoutProcess>
}
 8003a5c:	bf00      	nop
 8003a5e:	3708      	adds	r7, #8
 8003a60:	46bd      	mov	sp, r7
 8003a62:	bd80      	pop	{r7, pc}

08003a64 <RadioOnRxTimeoutIrq>:

static void RadioOnRxTimeoutIrq( void *context )
{
 8003a64:	b580      	push	{r7, lr}
 8003a66:	b082      	sub	sp, #8
 8003a68:	af00      	add	r7, sp, #0
 8003a6a:	6078      	str	r0, [r7, #4]
    RADIO_RX_TIMEOUT_PROCESS();
 8003a6c:	f000 f818 	bl	8003aa0 <RadioOnRxTimeoutProcess>
}
 8003a70:	bf00      	nop
 8003a72:	3708      	adds	r7, #8
 8003a74:	46bd      	mov	sp, r7
 8003a76:	bd80      	pop	{r7, pc}

08003a78 <RadioOnTxTimeoutProcess>:

static void RadioOnTxTimeoutProcess( void )
{
 8003a78:	b580      	push	{r7, lr}
 8003a7a:	af00      	add	r7, sp, #0
    DBG_GPIO_RADIO_TX( RST );

    if( ( RadioEvents != NULL ) && ( RadioEvents->TxTimeout != NULL ) )
 8003a7c:	4b07      	ldr	r3, [pc, #28]	@ (8003a9c <RadioOnTxTimeoutProcess+0x24>)
 8003a7e:	681b      	ldr	r3, [r3, #0]
 8003a80:	2b00      	cmp	r3, #0
 8003a82:	d008      	beq.n	8003a96 <RadioOnTxTimeoutProcess+0x1e>
 8003a84:	4b05      	ldr	r3, [pc, #20]	@ (8003a9c <RadioOnTxTimeoutProcess+0x24>)
 8003a86:	681b      	ldr	r3, [r3, #0]
 8003a88:	685b      	ldr	r3, [r3, #4]
 8003a8a:	2b00      	cmp	r3, #0
 8003a8c:	d003      	beq.n	8003a96 <RadioOnTxTimeoutProcess+0x1e>
    {
        RadioEvents->TxTimeout( );
 8003a8e:	4b03      	ldr	r3, [pc, #12]	@ (8003a9c <RadioOnTxTimeoutProcess+0x24>)
 8003a90:	681b      	ldr	r3, [r3, #0]
 8003a92:	685b      	ldr	r3, [r3, #4]
 8003a94:	4798      	blx	r3
    }
}
 8003a96:	bf00      	nop
 8003a98:	bd80      	pop	{r7, pc}
 8003a9a:	bf00      	nop
 8003a9c:	200001a0 	.word	0x200001a0

08003aa0 <RadioOnRxTimeoutProcess>:

static void RadioOnRxTimeoutProcess( void )
{
 8003aa0:	b580      	push	{r7, lr}
 8003aa2:	af00      	add	r7, sp, #0
    DBG_GPIO_RADIO_RX( RST );

    if( ( RadioEvents != NULL ) && ( RadioEvents->RxTimeout != NULL ) )
 8003aa4:	4b07      	ldr	r3, [pc, #28]	@ (8003ac4 <RadioOnRxTimeoutProcess+0x24>)
 8003aa6:	681b      	ldr	r3, [r3, #0]
 8003aa8:	2b00      	cmp	r3, #0
 8003aaa:	d008      	beq.n	8003abe <RadioOnRxTimeoutProcess+0x1e>
 8003aac:	4b05      	ldr	r3, [pc, #20]	@ (8003ac4 <RadioOnRxTimeoutProcess+0x24>)
 8003aae:	681b      	ldr	r3, [r3, #0]
 8003ab0:	68db      	ldr	r3, [r3, #12]
 8003ab2:	2b00      	cmp	r3, #0
 8003ab4:	d003      	beq.n	8003abe <RadioOnRxTimeoutProcess+0x1e>
    {
        RadioEvents->RxTimeout( );
 8003ab6:	4b03      	ldr	r3, [pc, #12]	@ (8003ac4 <RadioOnRxTimeoutProcess+0x24>)
 8003ab8:	681b      	ldr	r3, [r3, #0]
 8003aba:	68db      	ldr	r3, [r3, #12]
 8003abc:	4798      	blx	r3
    }
}
 8003abe:	bf00      	nop
 8003ac0:	bd80      	pop	{r7, pc}
 8003ac2:	bf00      	nop
 8003ac4:	200001a0 	.word	0x200001a0

08003ac8 <RadioOnDioIrq>:

static void RadioOnDioIrq( RadioIrqMasks_t radioIrq )
{
 8003ac8:	b580      	push	{r7, lr}
 8003aca:	b082      	sub	sp, #8
 8003acc:	af00      	add	r7, sp, #0
 8003ace:	4603      	mov	r3, r0
 8003ad0:	80fb      	strh	r3, [r7, #6]
    SubgRf.RadioIrq = radioIrq;
 8003ad2:	4a05      	ldr	r2, [pc, #20]	@ (8003ae8 <RadioOnDioIrq+0x20>)
 8003ad4:	88fb      	ldrh	r3, [r7, #6]
 8003ad6:	f8a2 3054 	strh.w	r3, [r2, #84]	@ 0x54

    RADIO_IRQ_PROCESS();
 8003ada:	f000 f807 	bl	8003aec <RadioIrqProcess>
}
 8003ade:	bf00      	nop
 8003ae0:	3708      	adds	r7, #8
 8003ae2:	46bd      	mov	sp, r7
 8003ae4:	bd80      	pop	{r7, pc}
 8003ae6:	bf00      	nop
 8003ae8:	200001a4 	.word	0x200001a4

08003aec <RadioIrqProcess>:

static void RadioIrqProcess( void )
{
 8003aec:	b5b0      	push	{r4, r5, r7, lr}
 8003aee:	b082      	sub	sp, #8
 8003af0:	af00      	add	r7, sp, #0
    uint8_t size = 0;
 8003af2:	2300      	movs	r3, #0
 8003af4:	71fb      	strb	r3, [r7, #7]
    int32_t cfo = 0;
 8003af6:	2300      	movs	r3, #0
 8003af8:	603b      	str	r3, [r7, #0]

    switch( SubgRf.RadioIrq )
 8003afa:	4ba5      	ldr	r3, [pc, #660]	@ (8003d90 <RadioIrqProcess+0x2a4>)
 8003afc:	f8b3 3054 	ldrh.w	r3, [r3, #84]	@ 0x54
 8003b00:	f5b3 7f00 	cmp.w	r3, #512	@ 0x200
 8003b04:	f000 810d 	beq.w	8003d22 <RadioIrqProcess+0x236>
 8003b08:	f5b3 7f00 	cmp.w	r3, #512	@ 0x200
 8003b0c:	f300 81c0 	bgt.w	8003e90 <RadioIrqProcess+0x3a4>
 8003b10:	f5b3 7f80 	cmp.w	r3, #256	@ 0x100
 8003b14:	f000 80f1 	beq.w	8003cfa <RadioIrqProcess+0x20e>
 8003b18:	f5b3 7f80 	cmp.w	r3, #256	@ 0x100
 8003b1c:	f300 81b8 	bgt.w	8003e90 <RadioIrqProcess+0x3a4>
 8003b20:	2b80      	cmp	r3, #128	@ 0x80
 8003b22:	f000 80d6 	beq.w	8003cd2 <RadioIrqProcess+0x1e6>
 8003b26:	2b80      	cmp	r3, #128	@ 0x80
 8003b28:	f300 81b2 	bgt.w	8003e90 <RadioIrqProcess+0x3a4>
 8003b2c:	2b20      	cmp	r3, #32
 8003b2e:	dc49      	bgt.n	8003bc4 <RadioIrqProcess+0xd8>
 8003b30:	2b00      	cmp	r3, #0
 8003b32:	f340 81ad 	ble.w	8003e90 <RadioIrqProcess+0x3a4>
 8003b36:	3b01      	subs	r3, #1
 8003b38:	2b1f      	cmp	r3, #31
 8003b3a:	f200 81a9 	bhi.w	8003e90 <RadioIrqProcess+0x3a4>
 8003b3e:	a201      	add	r2, pc, #4	@ (adr r2, 8003b44 <RadioIrqProcess+0x58>)
 8003b40:	f852 f023 	ldr.w	pc, [r2, r3, lsl #2]
 8003b44:	08003bcd 	.word	0x08003bcd
 8003b48:	08003c07 	.word	0x08003c07
 8003b4c:	08003e91 	.word	0x08003e91
 8003b50:	08003dad 	.word	0x08003dad
 8003b54:	08003e91 	.word	0x08003e91
 8003b58:	08003e91 	.word	0x08003e91
 8003b5c:	08003e91 	.word	0x08003e91
 8003b60:	08003e1b 	.word	0x08003e1b
 8003b64:	08003e91 	.word	0x08003e91
 8003b68:	08003e91 	.word	0x08003e91
 8003b6c:	08003e91 	.word	0x08003e91
 8003b70:	08003e91 	.word	0x08003e91
 8003b74:	08003e91 	.word	0x08003e91
 8003b78:	08003e91 	.word	0x08003e91
 8003b7c:	08003e91 	.word	0x08003e91
 8003b80:	08003e91 	.word	0x08003e91
 8003b84:	08003e91 	.word	0x08003e91
 8003b88:	08003e91 	.word	0x08003e91
 8003b8c:	08003e91 	.word	0x08003e91
 8003b90:	08003e91 	.word	0x08003e91
 8003b94:	08003e91 	.word	0x08003e91
 8003b98:	08003e91 	.word	0x08003e91
 8003b9c:	08003e91 	.word	0x08003e91
 8003ba0:	08003e91 	.word	0x08003e91
 8003ba4:	08003e91 	.word	0x08003e91
 8003ba8:	08003e91 	.word	0x08003e91
 8003bac:	08003e91 	.word	0x08003e91
 8003bb0:	08003e91 	.word	0x08003e91
 8003bb4:	08003e91 	.word	0x08003e91
 8003bb8:	08003e91 	.word	0x08003e91
 8003bbc:	08003e91 	.word	0x08003e91
 8003bc0:	08003e2b 	.word	0x08003e2b
 8003bc4:	2b40      	cmp	r3, #64	@ 0x40
 8003bc6:	f000 814b 	beq.w	8003e60 <RadioIrqProcess+0x374>
        MW_LOG( TS_ON, VLEVEL_M,  "HOP\r\n" );
        break;
    }
#endif /* RADIO_LR_FHSS_IS_ON == 1 */
    default:
        break;
 8003bca:	e161      	b.n	8003e90 <RadioIrqProcess+0x3a4>
        TimerStop( &TxTimeoutTimer );
 8003bcc:	4871      	ldr	r0, [pc, #452]	@ (8003d94 <RadioIrqProcess+0x2a8>)
 8003bce:	f002 f9fd 	bl	8005fcc <UTIL_TIMER_Stop>
        SUBGRF_SetStandby( STDBY_RC );
 8003bd2:	2000      	movs	r0, #0
 8003bd4:	f000 ffec 	bl	8004bb0 <SUBGRF_SetStandby>
        if( RFW_Is_LongPacketModeEnabled() == 1 )
 8003bd8:	f001 ffda 	bl	8005b90 <RFW_Is_LongPacketModeEnabled>
 8003bdc:	4603      	mov	r3, r0
 8003bde:	2b01      	cmp	r3, #1
 8003be0:	d101      	bne.n	8003be6 <RadioIrqProcess+0xfa>
            RFW_DeInit_TxLongPacket( );
 8003be2:	f001 fffe 	bl	8005be2 <RFW_DeInit_TxLongPacket>
        if( ( RadioEvents != NULL ) && ( RadioEvents->TxDone != NULL ) )
 8003be6:	4b6c      	ldr	r3, [pc, #432]	@ (8003d98 <RadioIrqProcess+0x2ac>)
 8003be8:	681b      	ldr	r3, [r3, #0]
 8003bea:	2b00      	cmp	r3, #0
 8003bec:	f000 8152 	beq.w	8003e94 <RadioIrqProcess+0x3a8>
 8003bf0:	4b69      	ldr	r3, [pc, #420]	@ (8003d98 <RadioIrqProcess+0x2ac>)
 8003bf2:	681b      	ldr	r3, [r3, #0]
 8003bf4:	681b      	ldr	r3, [r3, #0]
 8003bf6:	2b00      	cmp	r3, #0
 8003bf8:	f000 814c 	beq.w	8003e94 <RadioIrqProcess+0x3a8>
            RadioEvents->TxDone( );
 8003bfc:	4b66      	ldr	r3, [pc, #408]	@ (8003d98 <RadioIrqProcess+0x2ac>)
 8003bfe:	681b      	ldr	r3, [r3, #0]
 8003c00:	681b      	ldr	r3, [r3, #0]
 8003c02:	4798      	blx	r3
        break;
 8003c04:	e146      	b.n	8003e94 <RadioIrqProcess+0x3a8>
        TimerStop( &RxTimeoutTimer );
 8003c06:	4865      	ldr	r0, [pc, #404]	@ (8003d9c <RadioIrqProcess+0x2b0>)
 8003c08:	f002 f9e0 	bl	8005fcc <UTIL_TIMER_Stop>
        if( SubgRf.RxContinuous == false )
 8003c0c:	4b60      	ldr	r3, [pc, #384]	@ (8003d90 <RadioIrqProcess+0x2a4>)
 8003c0e:	785b      	ldrb	r3, [r3, #1]
 8003c10:	f083 0301 	eor.w	r3, r3, #1
 8003c14:	b2db      	uxtb	r3, r3
 8003c16:	2b00      	cmp	r3, #0
 8003c18:	d014      	beq.n	8003c44 <RadioIrqProcess+0x158>
            SUBGRF_SetStandby( STDBY_RC );
 8003c1a:	2000      	movs	r0, #0
 8003c1c:	f000 ffc8 	bl	8004bb0 <SUBGRF_SetStandby>
            SUBGRF_WriteRegister( SUBGHZ_RTCCTLR, 0x00 );
 8003c20:	2100      	movs	r1, #0
 8003c22:	f640 1002 	movw	r0, #2306	@ 0x902
 8003c26:	f001 fd47 	bl	80056b8 <SUBGRF_WriteRegister>
            SUBGRF_WriteRegister( SUBGHZ_EVENTMASKR, SUBGRF_ReadRegister( SUBGHZ_EVENTMASKR ) | ( 1 << 1 ) );
 8003c2a:	f640 1044 	movw	r0, #2372	@ 0x944
 8003c2e:	f001 fd65 	bl	80056fc <SUBGRF_ReadRegister>
 8003c32:	4603      	mov	r3, r0
 8003c34:	f043 0302 	orr.w	r3, r3, #2
 8003c38:	b2db      	uxtb	r3, r3
 8003c3a:	4619      	mov	r1, r3
 8003c3c:	f640 1044 	movw	r0, #2372	@ 0x944
 8003c40:	f001 fd3a 	bl	80056b8 <SUBGRF_WriteRegister>
        SUBGRF_GetPayload( RadioBuffer, &size, 255 );
 8003c44:	1dfb      	adds	r3, r7, #7
 8003c46:	22ff      	movs	r2, #255	@ 0xff
 8003c48:	4619      	mov	r1, r3
 8003c4a:	4855      	ldr	r0, [pc, #340]	@ (8003da0 <RadioIrqProcess+0x2b4>)
 8003c4c:	f000 fe80 	bl	8004950 <SUBGRF_GetPayload>
        SUBGRF_GetPacketStatus( &( SubgRf.PacketStatus ) );
 8003c50:	4854      	ldr	r0, [pc, #336]	@ (8003da4 <RadioIrqProcess+0x2b8>)
 8003c52:	f001 fcdf 	bl	8005614 <SUBGRF_GetPacketStatus>
        if( ( RadioEvents != NULL ) && ( RadioEvents->RxDone != NULL ) )
 8003c56:	4b50      	ldr	r3, [pc, #320]	@ (8003d98 <RadioIrqProcess+0x2ac>)
 8003c58:	681b      	ldr	r3, [r3, #0]
 8003c5a:	2b00      	cmp	r3, #0
 8003c5c:	f000 811c 	beq.w	8003e98 <RadioIrqProcess+0x3ac>
 8003c60:	4b4d      	ldr	r3, [pc, #308]	@ (8003d98 <RadioIrqProcess+0x2ac>)
 8003c62:	681b      	ldr	r3, [r3, #0]
 8003c64:	689b      	ldr	r3, [r3, #8]
 8003c66:	2b00      	cmp	r3, #0
 8003c68:	f000 8116 	beq.w	8003e98 <RadioIrqProcess+0x3ac>
            switch( SubgRf.PacketStatus.packetType )
 8003c6c:	4b48      	ldr	r3, [pc, #288]	@ (8003d90 <RadioIrqProcess+0x2a4>)
 8003c6e:	f893 3024 	ldrb.w	r3, [r3, #36]	@ 0x24
 8003c72:	2b01      	cmp	r3, #1
 8003c74:	d10e      	bne.n	8003c94 <RadioIrqProcess+0x1a8>
                RadioEvents->RxDone( RadioBuffer, size, SubgRf.PacketStatus.Params.LoRa.RssiPkt,
 8003c76:	4b48      	ldr	r3, [pc, #288]	@ (8003d98 <RadioIrqProcess+0x2ac>)
 8003c78:	681b      	ldr	r3, [r3, #0]
 8003c7a:	689c      	ldr	r4, [r3, #8]
 8003c7c:	79fb      	ldrb	r3, [r7, #7]
 8003c7e:	4619      	mov	r1, r3
 8003c80:	4b43      	ldr	r3, [pc, #268]	@ (8003d90 <RadioIrqProcess+0x2a4>)
 8003c82:	f993 3030 	ldrsb.w	r3, [r3, #48]	@ 0x30
 8003c86:	461a      	mov	r2, r3
 8003c88:	4b41      	ldr	r3, [pc, #260]	@ (8003d90 <RadioIrqProcess+0x2a4>)
 8003c8a:	f993 3031 	ldrsb.w	r3, [r3, #49]	@ 0x31
 8003c8e:	4844      	ldr	r0, [pc, #272]	@ (8003da0 <RadioIrqProcess+0x2b4>)
 8003c90:	47a0      	blx	r4
                break;
 8003c92:	e01d      	b.n	8003cd0 <RadioIrqProcess+0x1e4>
                SUBGRF_GetCFO( SubgRf.ModulationParams.Params.Gfsk.BitRate, &cfo );
 8003c94:	4b3e      	ldr	r3, [pc, #248]	@ (8003d90 <RadioIrqProcess+0x2a4>)
 8003c96:	6bdb      	ldr	r3, [r3, #60]	@ 0x3c
 8003c98:	463a      	mov	r2, r7
 8003c9a:	4611      	mov	r1, r2
 8003c9c:	4618      	mov	r0, r3
 8003c9e:	f001 fec5 	bl	8005a2c <SUBGRF_GetCFO>
                RadioEvents->RxDone( RadioBuffer, size, SubgRf.PacketStatus.Params.Gfsk.RssiAvg, ( int8_t ) DIVR( cfo, 1000 ) );
 8003ca2:	4b3d      	ldr	r3, [pc, #244]	@ (8003d98 <RadioIrqProcess+0x2ac>)
 8003ca4:	681b      	ldr	r3, [r3, #0]
 8003ca6:	689c      	ldr	r4, [r3, #8]
 8003ca8:	79fb      	ldrb	r3, [r7, #7]
 8003caa:	4619      	mov	r1, r3
 8003cac:	4b38      	ldr	r3, [pc, #224]	@ (8003d90 <RadioIrqProcess+0x2a4>)
 8003cae:	f993 3029 	ldrsb.w	r3, [r3, #41]	@ 0x29
 8003cb2:	4618      	mov	r0, r3
 8003cb4:	683b      	ldr	r3, [r7, #0]
 8003cb6:	f503 73fa 	add.w	r3, r3, #500	@ 0x1f4
 8003cba:	4a3b      	ldr	r2, [pc, #236]	@ (8003da8 <RadioIrqProcess+0x2bc>)
 8003cbc:	fb82 5203 	smull	r5, r2, r2, r3
 8003cc0:	1192      	asrs	r2, r2, #6
 8003cc2:	17db      	asrs	r3, r3, #31
 8003cc4:	1ad3      	subs	r3, r2, r3
 8003cc6:	b25b      	sxtb	r3, r3
 8003cc8:	4602      	mov	r2, r0
 8003cca:	4835      	ldr	r0, [pc, #212]	@ (8003da0 <RadioIrqProcess+0x2b4>)
 8003ccc:	47a0      	blx	r4
                break;
 8003cce:	bf00      	nop
        break;
 8003cd0:	e0e2      	b.n	8003e98 <RadioIrqProcess+0x3ac>
        SUBGRF_SetStandby( STDBY_RC );
 8003cd2:	2000      	movs	r0, #0
 8003cd4:	f000 ff6c 	bl	8004bb0 <SUBGRF_SetStandby>
        if( ( RadioEvents != NULL ) && ( RadioEvents->CadDone != NULL ) )
 8003cd8:	4b2f      	ldr	r3, [pc, #188]	@ (8003d98 <RadioIrqProcess+0x2ac>)
 8003cda:	681b      	ldr	r3, [r3, #0]
 8003cdc:	2b00      	cmp	r3, #0
 8003cde:	f000 80dd 	beq.w	8003e9c <RadioIrqProcess+0x3b0>
 8003ce2:	4b2d      	ldr	r3, [pc, #180]	@ (8003d98 <RadioIrqProcess+0x2ac>)
 8003ce4:	681b      	ldr	r3, [r3, #0]
 8003ce6:	699b      	ldr	r3, [r3, #24]
 8003ce8:	2b00      	cmp	r3, #0
 8003cea:	f000 80d7 	beq.w	8003e9c <RadioIrqProcess+0x3b0>
            RadioEvents->CadDone( false );
 8003cee:	4b2a      	ldr	r3, [pc, #168]	@ (8003d98 <RadioIrqProcess+0x2ac>)
 8003cf0:	681b      	ldr	r3, [r3, #0]
 8003cf2:	699b      	ldr	r3, [r3, #24]
 8003cf4:	2000      	movs	r0, #0
 8003cf6:	4798      	blx	r3
        break;
 8003cf8:	e0d0      	b.n	8003e9c <RadioIrqProcess+0x3b0>
        SUBGRF_SetStandby( STDBY_RC );
 8003cfa:	2000      	movs	r0, #0
 8003cfc:	f000 ff58 	bl	8004bb0 <SUBGRF_SetStandby>
        if( ( RadioEvents != NULL ) && ( RadioEvents->CadDone != NULL ) )
 8003d00:	4b25      	ldr	r3, [pc, #148]	@ (8003d98 <RadioIrqProcess+0x2ac>)
 8003d02:	681b      	ldr	r3, [r3, #0]
 8003d04:	2b00      	cmp	r3, #0
 8003d06:	f000 80cb 	beq.w	8003ea0 <RadioIrqProcess+0x3b4>
 8003d0a:	4b23      	ldr	r3, [pc, #140]	@ (8003d98 <RadioIrqProcess+0x2ac>)
 8003d0c:	681b      	ldr	r3, [r3, #0]
 8003d0e:	699b      	ldr	r3, [r3, #24]
 8003d10:	2b00      	cmp	r3, #0
 8003d12:	f000 80c5 	beq.w	8003ea0 <RadioIrqProcess+0x3b4>
            RadioEvents->CadDone( true );
 8003d16:	4b20      	ldr	r3, [pc, #128]	@ (8003d98 <RadioIrqProcess+0x2ac>)
 8003d18:	681b      	ldr	r3, [r3, #0]
 8003d1a:	699b      	ldr	r3, [r3, #24]
 8003d1c:	2001      	movs	r0, #1
 8003d1e:	4798      	blx	r3
        break;
 8003d20:	e0be      	b.n	8003ea0 <RadioIrqProcess+0x3b4>
        if( SUBGRF_GetOperatingMode( ) == MODE_TX )
 8003d22:	f000 fdfb 	bl	800491c <SUBGRF_GetOperatingMode>
 8003d26:	4603      	mov	r3, r0
 8003d28:	2b04      	cmp	r3, #4
 8003d2a:	d115      	bne.n	8003d58 <RadioIrqProcess+0x26c>
            TimerStop( &TxTimeoutTimer );
 8003d2c:	4819      	ldr	r0, [pc, #100]	@ (8003d94 <RadioIrqProcess+0x2a8>)
 8003d2e:	f002 f94d 	bl	8005fcc <UTIL_TIMER_Stop>
            SUBGRF_SetStandby( STDBY_RC );
 8003d32:	2000      	movs	r0, #0
 8003d34:	f000 ff3c 	bl	8004bb0 <SUBGRF_SetStandby>
            if( ( RadioEvents != NULL ) && ( RadioEvents->TxTimeout != NULL ) )
 8003d38:	4b17      	ldr	r3, [pc, #92]	@ (8003d98 <RadioIrqProcess+0x2ac>)
 8003d3a:	681b      	ldr	r3, [r3, #0]
 8003d3c:	2b00      	cmp	r3, #0
 8003d3e:	f000 80b1 	beq.w	8003ea4 <RadioIrqProcess+0x3b8>
 8003d42:	4b15      	ldr	r3, [pc, #84]	@ (8003d98 <RadioIrqProcess+0x2ac>)
 8003d44:	681b      	ldr	r3, [r3, #0]
 8003d46:	685b      	ldr	r3, [r3, #4]
 8003d48:	2b00      	cmp	r3, #0
 8003d4a:	f000 80ab 	beq.w	8003ea4 <RadioIrqProcess+0x3b8>
                RadioEvents->TxTimeout( );
 8003d4e:	4b12      	ldr	r3, [pc, #72]	@ (8003d98 <RadioIrqProcess+0x2ac>)
 8003d50:	681b      	ldr	r3, [r3, #0]
 8003d52:	685b      	ldr	r3, [r3, #4]
 8003d54:	4798      	blx	r3
        break;
 8003d56:	e0a5      	b.n	8003ea4 <RadioIrqProcess+0x3b8>
        else if( SUBGRF_GetOperatingMode( ) == MODE_RX )
 8003d58:	f000 fde0 	bl	800491c <SUBGRF_GetOperatingMode>
 8003d5c:	4603      	mov	r3, r0
 8003d5e:	2b05      	cmp	r3, #5
 8003d60:	f040 80a0 	bne.w	8003ea4 <RadioIrqProcess+0x3b8>
            TimerStop( &RxTimeoutTimer );
 8003d64:	480d      	ldr	r0, [pc, #52]	@ (8003d9c <RadioIrqProcess+0x2b0>)
 8003d66:	f002 f931 	bl	8005fcc <UTIL_TIMER_Stop>
            SUBGRF_SetStandby( STDBY_RC );
 8003d6a:	2000      	movs	r0, #0
 8003d6c:	f000 ff20 	bl	8004bb0 <SUBGRF_SetStandby>
            if( ( RadioEvents != NULL ) && ( RadioEvents->RxTimeout != NULL ) )
 8003d70:	4b09      	ldr	r3, [pc, #36]	@ (8003d98 <RadioIrqProcess+0x2ac>)
 8003d72:	681b      	ldr	r3, [r3, #0]
 8003d74:	2b00      	cmp	r3, #0
 8003d76:	f000 8095 	beq.w	8003ea4 <RadioIrqProcess+0x3b8>
 8003d7a:	4b07      	ldr	r3, [pc, #28]	@ (8003d98 <RadioIrqProcess+0x2ac>)
 8003d7c:	681b      	ldr	r3, [r3, #0]
 8003d7e:	68db      	ldr	r3, [r3, #12]
 8003d80:	2b00      	cmp	r3, #0
 8003d82:	f000 808f 	beq.w	8003ea4 <RadioIrqProcess+0x3b8>
                RadioEvents->RxTimeout( );
 8003d86:	4b04      	ldr	r3, [pc, #16]	@ (8003d98 <RadioIrqProcess+0x2ac>)
 8003d88:	681b      	ldr	r3, [r3, #0]
 8003d8a:	68db      	ldr	r3, [r3, #12]
 8003d8c:	4798      	blx	r3
        break;
 8003d8e:	e089      	b.n	8003ea4 <RadioIrqProcess+0x3b8>
 8003d90:	200001a4 	.word	0x200001a4
 8003d94:	20000200 	.word	0x20000200
 8003d98:	200001a0 	.word	0x200001a0
 8003d9c:	20000218 	.word	0x20000218
 8003da0:	200000a0 	.word	0x200000a0
 8003da4:	200001c8 	.word	0x200001c8
 8003da8:	10624dd3 	.word	0x10624dd3
        if( SubgRf.RxDcPreambleDetectTimeout != 0 )
 8003dac:	4b44      	ldr	r3, [pc, #272]	@ (8003ec0 <RadioIrqProcess+0x3d4>)
 8003dae:	6d9b      	ldr	r3, [r3, #88]	@ 0x58
 8003db0:	2b00      	cmp	r3, #0
 8003db2:	d079      	beq.n	8003ea8 <RadioIrqProcess+0x3bc>
            Radio.Write( SUBGHZ_RTCPRDR2, ( SubgRf.RxDcPreambleDetectTimeout >> 16 ) & 0xFF ); /*Update Radio RTC Period MSB*/
 8003db4:	4a43      	ldr	r2, [pc, #268]	@ (8003ec4 <RadioIrqProcess+0x3d8>)
 8003db6:	4b42      	ldr	r3, [pc, #264]	@ (8003ec0 <RadioIrqProcess+0x3d4>)
 8003db8:	6d9b      	ldr	r3, [r3, #88]	@ 0x58
 8003dba:	0c1b      	lsrs	r3, r3, #16
 8003dbc:	b2db      	uxtb	r3, r3
 8003dbe:	4619      	mov	r1, r3
 8003dc0:	f640 1003 	movw	r0, #2307	@ 0x903
 8003dc4:	4790      	blx	r2
            Radio.Write( SUBGHZ_RTCPRDR1, ( SubgRf.RxDcPreambleDetectTimeout >> 8 ) & 0xFF ); /*Update Radio RTC Period MidByte*/
 8003dc6:	4a3f      	ldr	r2, [pc, #252]	@ (8003ec4 <RadioIrqProcess+0x3d8>)
 8003dc8:	4b3d      	ldr	r3, [pc, #244]	@ (8003ec0 <RadioIrqProcess+0x3d4>)
 8003dca:	6d9b      	ldr	r3, [r3, #88]	@ 0x58
 8003dcc:	0a1b      	lsrs	r3, r3, #8
 8003dce:	b2db      	uxtb	r3, r3
 8003dd0:	4619      	mov	r1, r3
 8003dd2:	f640 1004 	movw	r0, #2308	@ 0x904
 8003dd6:	4790      	blx	r2
            Radio.Write( SUBGHZ_RTCPRDR0, ( SubgRf.RxDcPreambleDetectTimeout ) & 0xFF ); /*Update Radio RTC Period lsb*/
 8003dd8:	4a3a      	ldr	r2, [pc, #232]	@ (8003ec4 <RadioIrqProcess+0x3d8>)
 8003dda:	4b39      	ldr	r3, [pc, #228]	@ (8003ec0 <RadioIrqProcess+0x3d4>)
 8003ddc:	6d9b      	ldr	r3, [r3, #88]	@ 0x58
 8003dde:	b2db      	uxtb	r3, r3
 8003de0:	4619      	mov	r1, r3
 8003de2:	f640 1005 	movw	r0, #2309	@ 0x905
 8003de6:	4790      	blx	r2
            Radio.Write( SUBGHZ_RTCCTLR, Radio.Read( SUBGHZ_RTCCTLR ) | 0x1 ); /*restart Radio RTC*/
 8003de8:	4c36      	ldr	r4, [pc, #216]	@ (8003ec4 <RadioIrqProcess+0x3d8>)
 8003dea:	4b37      	ldr	r3, [pc, #220]	@ (8003ec8 <RadioIrqProcess+0x3dc>)
 8003dec:	f640 1002 	movw	r0, #2306	@ 0x902
 8003df0:	4798      	blx	r3
 8003df2:	4603      	mov	r3, r0
 8003df4:	f043 0301 	orr.w	r3, r3, #1
 8003df8:	b2db      	uxtb	r3, r3
 8003dfa:	4619      	mov	r1, r3
 8003dfc:	f640 1002 	movw	r0, #2306	@ 0x902
 8003e00:	47a0      	blx	r4
            SubgRf.RxDcPreambleDetectTimeout = 0;
 8003e02:	4b2f      	ldr	r3, [pc, #188]	@ (8003ec0 <RadioIrqProcess+0x3d4>)
 8003e04:	2200      	movs	r2, #0
 8003e06:	659a      	str	r2, [r3, #88]	@ 0x58
            SUBGRF_SetDioIrqParams( IRQ_RX_DONE | IRQ_RX_TX_TIMEOUT | IRQ_CRC_ERROR | IRQ_HEADER_ERROR | IRQ_RX_DBG,
 8003e08:	2300      	movs	r3, #0
 8003e0a:	2200      	movs	r2, #0
 8003e0c:	f240 2162 	movw	r1, #610	@ 0x262
 8003e10:	f240 2062 	movw	r0, #610	@ 0x262
 8003e14:	f001 f8a0 	bl	8004f58 <SUBGRF_SetDioIrqParams>
        break;
 8003e18:	e046      	b.n	8003ea8 <RadioIrqProcess+0x3bc>
        if( 1UL == RFW_Is_Init( ) )
 8003e1a:	f001 feb2 	bl	8005b82 <RFW_Is_Init>
 8003e1e:	4603      	mov	r3, r0
 8003e20:	2b01      	cmp	r3, #1
 8003e22:	d143      	bne.n	8003eac <RadioIrqProcess+0x3c0>
            RFW_ReceivePayload( );
 8003e24:	f001 fee3 	bl	8005bee <RFW_ReceivePayload>
        break;
 8003e28:	e040      	b.n	8003eac <RadioIrqProcess+0x3c0>
        TimerStop( &RxTimeoutTimer );
 8003e2a:	4828      	ldr	r0, [pc, #160]	@ (8003ecc <RadioIrqProcess+0x3e0>)
 8003e2c:	f002 f8ce 	bl	8005fcc <UTIL_TIMER_Stop>
        if( SubgRf.RxContinuous == false )
 8003e30:	4b23      	ldr	r3, [pc, #140]	@ (8003ec0 <RadioIrqProcess+0x3d4>)
 8003e32:	785b      	ldrb	r3, [r3, #1]
 8003e34:	f083 0301 	eor.w	r3, r3, #1
 8003e38:	b2db      	uxtb	r3, r3
 8003e3a:	2b00      	cmp	r3, #0
 8003e3c:	d002      	beq.n	8003e44 <RadioIrqProcess+0x358>
            SUBGRF_SetStandby( STDBY_RC );
 8003e3e:	2000      	movs	r0, #0
 8003e40:	f000 feb6 	bl	8004bb0 <SUBGRF_SetStandby>
        if( ( RadioEvents != NULL ) && ( RadioEvents->RxTimeout != NULL ) )
 8003e44:	4b22      	ldr	r3, [pc, #136]	@ (8003ed0 <RadioIrqProcess+0x3e4>)
 8003e46:	681b      	ldr	r3, [r3, #0]
 8003e48:	2b00      	cmp	r3, #0
 8003e4a:	d031      	beq.n	8003eb0 <RadioIrqProcess+0x3c4>
 8003e4c:	4b20      	ldr	r3, [pc, #128]	@ (8003ed0 <RadioIrqProcess+0x3e4>)
 8003e4e:	681b      	ldr	r3, [r3, #0]
 8003e50:	68db      	ldr	r3, [r3, #12]
 8003e52:	2b00      	cmp	r3, #0
 8003e54:	d02c      	beq.n	8003eb0 <RadioIrqProcess+0x3c4>
            RadioEvents->RxTimeout( );
 8003e56:	4b1e      	ldr	r3, [pc, #120]	@ (8003ed0 <RadioIrqProcess+0x3e4>)
 8003e58:	681b      	ldr	r3, [r3, #0]
 8003e5a:	68db      	ldr	r3, [r3, #12]
 8003e5c:	4798      	blx	r3
        break;
 8003e5e:	e027      	b.n	8003eb0 <RadioIrqProcess+0x3c4>
        if( SubgRf.RxContinuous == false )
 8003e60:	4b17      	ldr	r3, [pc, #92]	@ (8003ec0 <RadioIrqProcess+0x3d4>)
 8003e62:	785b      	ldrb	r3, [r3, #1]
 8003e64:	f083 0301 	eor.w	r3, r3, #1
 8003e68:	b2db      	uxtb	r3, r3
 8003e6a:	2b00      	cmp	r3, #0
 8003e6c:	d002      	beq.n	8003e74 <RadioIrqProcess+0x388>
            SUBGRF_SetStandby( STDBY_RC );
 8003e6e:	2000      	movs	r0, #0
 8003e70:	f000 fe9e 	bl	8004bb0 <SUBGRF_SetStandby>
        if( ( RadioEvents != NULL ) && ( RadioEvents->RxError ) )
 8003e74:	4b16      	ldr	r3, [pc, #88]	@ (8003ed0 <RadioIrqProcess+0x3e4>)
 8003e76:	681b      	ldr	r3, [r3, #0]
 8003e78:	2b00      	cmp	r3, #0
 8003e7a:	d01b      	beq.n	8003eb4 <RadioIrqProcess+0x3c8>
 8003e7c:	4b14      	ldr	r3, [pc, #80]	@ (8003ed0 <RadioIrqProcess+0x3e4>)
 8003e7e:	681b      	ldr	r3, [r3, #0]
 8003e80:	691b      	ldr	r3, [r3, #16]
 8003e82:	2b00      	cmp	r3, #0
 8003e84:	d016      	beq.n	8003eb4 <RadioIrqProcess+0x3c8>
            RadioEvents->RxError( );
 8003e86:	4b12      	ldr	r3, [pc, #72]	@ (8003ed0 <RadioIrqProcess+0x3e4>)
 8003e88:	681b      	ldr	r3, [r3, #0]
 8003e8a:	691b      	ldr	r3, [r3, #16]
 8003e8c:	4798      	blx	r3
        break;
 8003e8e:	e011      	b.n	8003eb4 <RadioIrqProcess+0x3c8>
        break;
 8003e90:	bf00      	nop
 8003e92:	e010      	b.n	8003eb6 <RadioIrqProcess+0x3ca>
        break;
 8003e94:	bf00      	nop
 8003e96:	e00e      	b.n	8003eb6 <RadioIrqProcess+0x3ca>
        break;
 8003e98:	bf00      	nop
 8003e9a:	e00c      	b.n	8003eb6 <RadioIrqProcess+0x3ca>
        break;
 8003e9c:	bf00      	nop
 8003e9e:	e00a      	b.n	8003eb6 <RadioIrqProcess+0x3ca>
        break;
 8003ea0:	bf00      	nop
 8003ea2:	e008      	b.n	8003eb6 <RadioIrqProcess+0x3ca>
        break;
 8003ea4:	bf00      	nop
 8003ea6:	e006      	b.n	8003eb6 <RadioIrqProcess+0x3ca>
        break;
 8003ea8:	bf00      	nop
 8003eaa:	e004      	b.n	8003eb6 <RadioIrqProcess+0x3ca>
        break;
 8003eac:	bf00      	nop
 8003eae:	e002      	b.n	8003eb6 <RadioIrqProcess+0x3ca>
        break;
 8003eb0:	bf00      	nop
 8003eb2:	e000      	b.n	8003eb6 <RadioIrqProcess+0x3ca>
        break;
 8003eb4:	bf00      	nop
    }
}
 8003eb6:	bf00      	nop
 8003eb8:	3708      	adds	r7, #8
 8003eba:	46bd      	mov	sp, r7
 8003ebc:	bdb0      	pop	{r4, r5, r7, pc}
 8003ebe:	bf00      	nop
 8003ec0:	200001a4 	.word	0x200001a4
 8003ec4:	080038fd 	.word	0x080038fd
 8003ec8:	08003921 	.word	0x08003921
 8003ecc:	20000218 	.word	0x20000218
 8003ed0:	200001a0 	.word	0x200001a0

08003ed4 <RadioTxPrbs>:

static void RadioTxPrbs( void )
{
 8003ed4:	b580      	push	{r7, lr}
 8003ed6:	af00      	add	r7, sp, #0
    SUBGRF_SetSwitch( SubgRf.AntSwitchPaSelect, RFSWITCH_TX );
 8003ed8:	4b09      	ldr	r3, [pc, #36]	@ (8003f00 <RadioTxPrbs+0x2c>)
 8003eda:	f893 3056 	ldrb.w	r3, [r3, #86]	@ 0x56
 8003ede:	2101      	movs	r1, #1
 8003ee0:	4618      	mov	r0, r3
 8003ee2:	f001 fcf7 	bl	80058d4 <SUBGRF_SetSwitch>
    Radio.Write( SUBGHZ_GPKTCTL1AR, 0x2d );  // sel mode prbs9 instead of preamble
 8003ee6:	4b07      	ldr	r3, [pc, #28]	@ (8003f04 <RadioTxPrbs+0x30>)
 8003ee8:	212d      	movs	r1, #45	@ 0x2d
 8003eea:	f44f 60d7 	mov.w	r0, #1720	@ 0x6b8
 8003eee:	4798      	blx	r3
    SUBGRF_SetTxInfinitePreamble( );
 8003ef0:	f000 ff21 	bl	8004d36 <SUBGRF_SetTxInfinitePreamble>
    SUBGRF_SetTx( 0x0fffff );
 8003ef4:	4804      	ldr	r0, [pc, #16]	@ (8003f08 <RadioTxPrbs+0x34>)
 8003ef6:	f000 fe77 	bl	8004be8 <SUBGRF_SetTx>
}
 8003efa:	bf00      	nop
 8003efc:	bd80      	pop	{r7, pc}
 8003efe:	bf00      	nop
 8003f00:	200001a4 	.word	0x200001a4
 8003f04:	080038fd 	.word	0x080038fd
 8003f08:	000fffff 	.word	0x000fffff

08003f0c <RadioTxCw>:

static void RadioTxCw( int8_t power )
{
 8003f0c:	b580      	push	{r7, lr}
 8003f0e:	b084      	sub	sp, #16
 8003f10:	af00      	add	r7, sp, #0
 8003f12:	4603      	mov	r3, r0
 8003f14:	71fb      	strb	r3, [r7, #7]
    uint8_t paselect = SUBGRF_SetRfTxPower( power );
 8003f16:	f997 3007 	ldrsb.w	r3, [r7, #7]
 8003f1a:	4618      	mov	r0, r3
 8003f1c:	f001 fd02 	bl	8005924 <SUBGRF_SetRfTxPower>
 8003f20:	4603      	mov	r3, r0
 8003f22:	73fb      	strb	r3, [r7, #15]
    /* WORKAROUND - Trimming the output voltage power_ldo to 3.3V */
    SUBGRF_WriteRegister(REG_DRV_CTRL, 0x7 << 1);
 8003f24:	210e      	movs	r1, #14
 8003f26:	f640 101f 	movw	r0, #2335	@ 0x91f
 8003f2a:	f001 fbc5 	bl	80056b8 <SUBGRF_WriteRegister>
    SUBGRF_SetSwitch( paselect, RFSWITCH_TX );
 8003f2e:	7bfb      	ldrb	r3, [r7, #15]
 8003f30:	2101      	movs	r1, #1
 8003f32:	4618      	mov	r0, r3
 8003f34:	f001 fcce 	bl	80058d4 <SUBGRF_SetSwitch>
    SUBGRF_SetTxContinuousWave( );
 8003f38:	f000 fef4 	bl	8004d24 <SUBGRF_SetTxContinuousWave>
}
 8003f3c:	bf00      	nop
 8003f3e:	3710      	adds	r7, #16
 8003f40:	46bd      	mov	sp, r7
 8003f42:	bd80      	pop	{r7, pc}

08003f44 <payload_integration>:

#if (RADIO_SIGFOX_ENABLE == 1)
static void payload_integration( uint8_t *outBuffer, uint8_t *inBuffer, uint8_t size )
{
 8003f44:	b480      	push	{r7}
 8003f46:	b089      	sub	sp, #36	@ 0x24
 8003f48:	af00      	add	r7, sp, #0
 8003f4a:	60f8      	str	r0, [r7, #12]
 8003f4c:	60b9      	str	r1, [r7, #8]
 8003f4e:	4613      	mov	r3, r2
 8003f50:	71fb      	strb	r3, [r7, #7]
    uint8_t prevInt = 0;
 8003f52:	2300      	movs	r3, #0
 8003f54:	77fb      	strb	r3, [r7, #31]
    uint8_t currBit;
    uint8_t index_bit;
    uint8_t index_byte;
    uint8_t index_bit_out;
    uint8_t index_byte_out;
    int32_t i = 0;
 8003f56:	2300      	movs	r3, #0
 8003f58:	61bb      	str	r3, [r7, #24]

    for( i = 0; i < size; i++ )
 8003f5a:	2300      	movs	r3, #0
 8003f5c:	61bb      	str	r3, [r7, #24]
 8003f5e:	e011      	b.n	8003f84 <payload_integration+0x40>
    {
        /* reverse all inputs */
        inBuffer[i] = ~inBuffer[i];
 8003f60:	69bb      	ldr	r3, [r7, #24]
 8003f62:	68ba      	ldr	r2, [r7, #8]
 8003f64:	4413      	add	r3, r2
 8003f66:	781a      	ldrb	r2, [r3, #0]
 8003f68:	69bb      	ldr	r3, [r7, #24]
 8003f6a:	68b9      	ldr	r1, [r7, #8]
 8003f6c:	440b      	add	r3, r1
 8003f6e:	43d2      	mvns	r2, r2
 8003f70:	b2d2      	uxtb	r2, r2
 8003f72:	701a      	strb	r2, [r3, #0]
        /* init outBuffer */
        outBuffer[i] = 0;
 8003f74:	69bb      	ldr	r3, [r7, #24]
 8003f76:	68fa      	ldr	r2, [r7, #12]
 8003f78:	4413      	add	r3, r2
 8003f7a:	2200      	movs	r2, #0
 8003f7c:	701a      	strb	r2, [r3, #0]
    for( i = 0; i < size; i++ )
 8003f7e:	69bb      	ldr	r3, [r7, #24]
 8003f80:	3301      	adds	r3, #1
 8003f82:	61bb      	str	r3, [r7, #24]
 8003f84:	79fb      	ldrb	r3, [r7, #7]
 8003f86:	69ba      	ldr	r2, [r7, #24]
 8003f88:	429a      	cmp	r2, r3
 8003f8a:	dbe9      	blt.n	8003f60 <payload_integration+0x1c>
    }

    for( i = 0; i < ( size * 8 ); i++ )
 8003f8c:	2300      	movs	r3, #0
 8003f8e:	61bb      	str	r3, [r7, #24]
 8003f90:	e049      	b.n	8004026 <payload_integration+0xe2>
    {
        /* index to take bit in inBuffer */
        index_bit = 7 - ( i % 8 );
 8003f92:	69bb      	ldr	r3, [r7, #24]
 8003f94:	425a      	negs	r2, r3
 8003f96:	f003 0307 	and.w	r3, r3, #7
 8003f9a:	f002 0207 	and.w	r2, r2, #7
 8003f9e:	bf58      	it	pl
 8003fa0:	4253      	negpl	r3, r2
 8003fa2:	b2db      	uxtb	r3, r3
 8003fa4:	f1c3 0307 	rsb	r3, r3, #7
 8003fa8:	75fb      	strb	r3, [r7, #23]
        index_byte = i / 8;
 8003faa:	69bb      	ldr	r3, [r7, #24]
 8003fac:	2b00      	cmp	r3, #0
 8003fae:	da00      	bge.n	8003fb2 <payload_integration+0x6e>
 8003fb0:	3307      	adds	r3, #7
 8003fb2:	10db      	asrs	r3, r3, #3
 8003fb4:	75bb      	strb	r3, [r7, #22]
        /* index to place bit in outBuffer is shifted 1 bit right */
        index_bit_out = 7 - ( ( i + 1 ) % 8 );
 8003fb6:	69bb      	ldr	r3, [r7, #24]
 8003fb8:	3301      	adds	r3, #1
 8003fba:	425a      	negs	r2, r3
 8003fbc:	f003 0307 	and.w	r3, r3, #7
 8003fc0:	f002 0207 	and.w	r2, r2, #7
 8003fc4:	bf58      	it	pl
 8003fc6:	4253      	negpl	r3, r2
 8003fc8:	b2db      	uxtb	r3, r3
 8003fca:	f1c3 0307 	rsb	r3, r3, #7
 8003fce:	757b      	strb	r3, [r7, #21]
        index_byte_out = ( i + 1 ) / 8;
 8003fd0:	69bb      	ldr	r3, [r7, #24]
 8003fd2:	3301      	adds	r3, #1
 8003fd4:	2b00      	cmp	r3, #0
 8003fd6:	da00      	bge.n	8003fda <payload_integration+0x96>
 8003fd8:	3307      	adds	r3, #7
 8003fda:	10db      	asrs	r3, r3, #3
 8003fdc:	753b      	strb	r3, [r7, #20]
        /* extract current bit from input */
        currBit = ( inBuffer[index_byte] >> index_bit ) & 0x01;
 8003fde:	7dbb      	ldrb	r3, [r7, #22]
 8003fe0:	68ba      	ldr	r2, [r7, #8]
 8003fe2:	4413      	add	r3, r2
 8003fe4:	781b      	ldrb	r3, [r3, #0]
 8003fe6:	461a      	mov	r2, r3
 8003fe8:	7dfb      	ldrb	r3, [r7, #23]
 8003fea:	fa42 f303 	asr.w	r3, r2, r3
 8003fee:	b2db      	uxtb	r3, r3
 8003ff0:	f003 0301 	and.w	r3, r3, #1
 8003ff4:	74fb      	strb	r3, [r7, #19]
        /* integration */
        prevInt ^= currBit;
 8003ff6:	7ffa      	ldrb	r2, [r7, #31]
 8003ff8:	7cfb      	ldrb	r3, [r7, #19]
 8003ffa:	4053      	eors	r3, r2
 8003ffc:	77fb      	strb	r3, [r7, #31]
        /* write result integration in output */
        outBuffer[index_byte_out] |= ( prevInt << index_bit_out );
 8003ffe:	7d3b      	ldrb	r3, [r7, #20]
 8004000:	68fa      	ldr	r2, [r7, #12]
 8004002:	4413      	add	r3, r2
 8004004:	781b      	ldrb	r3, [r3, #0]
 8004006:	b25a      	sxtb	r2, r3
 8004008:	7ff9      	ldrb	r1, [r7, #31]
 800400a:	7d7b      	ldrb	r3, [r7, #21]
 800400c:	fa01 f303 	lsl.w	r3, r1, r3
 8004010:	b25b      	sxtb	r3, r3
 8004012:	4313      	orrs	r3, r2
 8004014:	b259      	sxtb	r1, r3
 8004016:	7d3b      	ldrb	r3, [r7, #20]
 8004018:	68fa      	ldr	r2, [r7, #12]
 800401a:	4413      	add	r3, r2
 800401c:	b2ca      	uxtb	r2, r1
 800401e:	701a      	strb	r2, [r3, #0]
    for( i = 0; i < ( size * 8 ); i++ )
 8004020:	69bb      	ldr	r3, [r7, #24]
 8004022:	3301      	adds	r3, #1
 8004024:	61bb      	str	r3, [r7, #24]
 8004026:	79fb      	ldrb	r3, [r7, #7]
 8004028:	00db      	lsls	r3, r3, #3
 800402a:	69ba      	ldr	r2, [r7, #24]
 800402c:	429a      	cmp	r2, r3
 800402e:	dbb0      	blt.n	8003f92 <payload_integration+0x4e>
    }

    outBuffer[size] = ( prevInt << 7 ) | ( prevInt << 6 ) | ( ( ( !prevInt ) & 0x01 ) << 5 ) ;
 8004030:	7ffb      	ldrb	r3, [r7, #31]
 8004032:	01db      	lsls	r3, r3, #7
 8004034:	b25a      	sxtb	r2, r3
 8004036:	7ffb      	ldrb	r3, [r7, #31]
 8004038:	019b      	lsls	r3, r3, #6
 800403a:	b25b      	sxtb	r3, r3
 800403c:	4313      	orrs	r3, r2
 800403e:	b25b      	sxtb	r3, r3
 8004040:	7ffa      	ldrb	r2, [r7, #31]
 8004042:	2a00      	cmp	r2, #0
 8004044:	d101      	bne.n	800404a <payload_integration+0x106>
 8004046:	2220      	movs	r2, #32
 8004048:	e000      	b.n	800404c <payload_integration+0x108>
 800404a:	2200      	movs	r2, #0
 800404c:	4313      	orrs	r3, r2
 800404e:	b259      	sxtb	r1, r3
 8004050:	79fb      	ldrb	r3, [r7, #7]
 8004052:	68fa      	ldr	r2, [r7, #12]
 8004054:	4413      	add	r3, r2
 8004056:	b2ca      	uxtb	r2, r1
 8004058:	701a      	strb	r2, [r3, #0]
}
 800405a:	bf00      	nop
 800405c:	3724      	adds	r7, #36	@ 0x24
 800405e:	46bd      	mov	sp, r7
 8004060:	bc80      	pop	{r7}
 8004062:	4770      	bx	lr

08004064 <RadioSetRxGenericConfig>:
#endif /*RADIO_SIGFOX_ENABLE == 1*/

static int32_t RadioSetRxGenericConfig( GenericModems_t modem, RxConfigGeneric_t *config, uint32_t rxContinuous,
                                        uint32_t symbTimeout )
{
 8004064:	b580      	push	{r7, lr}
 8004066:	b08c      	sub	sp, #48	@ 0x30
 8004068:	af00      	add	r7, sp, #0
 800406a:	60b9      	str	r1, [r7, #8]
 800406c:	607a      	str	r2, [r7, #4]
 800406e:	603b      	str	r3, [r7, #0]
 8004070:	4603      	mov	r3, r0
 8004072:	73fb      	strb	r3, [r7, #15]
#if (RADIO_GENERIC_CONFIG_ENABLE == 1)
    int32_t status = 0;
 8004074:	2300      	movs	r3, #0
 8004076:	62bb      	str	r3, [r7, #40]	@ 0x28
    uint8_t syncword[8] = {0};
 8004078:	2300      	movs	r3, #0
 800407a:	623b      	str	r3, [r7, #32]
 800407c:	2300      	movs	r3, #0
 800407e:	627b      	str	r3, [r7, #36]	@ 0x24
    uint8_t MaxPayloadLength;

    RFW_DeInit( ); /* switch Off FwPacketDecoding by default */
 8004080:	f001 fd79 	bl	8005b76 <RFW_DeInit>

    if( rxContinuous != 0 )
 8004084:	687b      	ldr	r3, [r7, #4]
 8004086:	2b00      	cmp	r3, #0
 8004088:	d001      	beq.n	800408e <RadioSetRxGenericConfig+0x2a>
    {
        symbTimeout = 0;
 800408a:	2300      	movs	r3, #0
 800408c:	603b      	str	r3, [r7, #0]
    }
    SubgRf.RxContinuous = ( rxContinuous == 0 ) ? false : true;
 800408e:	687b      	ldr	r3, [r7, #4]
 8004090:	2b00      	cmp	r3, #0
 8004092:	bf14      	ite	ne
 8004094:	2301      	movne	r3, #1
 8004096:	2300      	moveq	r3, #0
 8004098:	b2da      	uxtb	r2, r3
 800409a:	4ba4      	ldr	r3, [pc, #656]	@ (800432c <RadioSetRxGenericConfig+0x2c8>)
 800409c:	705a      	strb	r2, [r3, #1]

    switch( modem )
 800409e:	7bfb      	ldrb	r3, [r7, #15]
 80040a0:	2b00      	cmp	r3, #0
 80040a2:	d003      	beq.n	80040ac <RadioSetRxGenericConfig+0x48>
 80040a4:	2b01      	cmp	r3, #1
 80040a6:	f000 80dc 	beq.w	8004262 <RadioSetRxGenericConfig+0x1fe>

        // Timeout Max, Timeout handled directly in SetRx function
        SubgRf.RxTimeout = 0xFFFF;
        break;
    default:
        break;
 80040aa:	e196      	b.n	80043da <RadioSetRxGenericConfig+0x376>
        if( ( config->fsk.BitRate == 0 ) || ( config->fsk.PreambleLen == 0 ) )
 80040ac:	68bb      	ldr	r3, [r7, #8]
 80040ae:	689b      	ldr	r3, [r3, #8]
 80040b0:	2b00      	cmp	r3, #0
 80040b2:	d003      	beq.n	80040bc <RadioSetRxGenericConfig+0x58>
 80040b4:	68bb      	ldr	r3, [r7, #8]
 80040b6:	68db      	ldr	r3, [r3, #12]
 80040b8:	2b00      	cmp	r3, #0
 80040ba:	d102      	bne.n	80040c2 <RadioSetRxGenericConfig+0x5e>
            return -1;
 80040bc:	f04f 33ff 	mov.w	r3, #4294967295	@ 0xffffffff
 80040c0:	e18c      	b.n	80043dc <RadioSetRxGenericConfig+0x378>
        if( config->fsk.SyncWordLength > 8 )
 80040c2:	68bb      	ldr	r3, [r7, #8]
 80040c4:	7f9b      	ldrb	r3, [r3, #30]
 80040c6:	2b08      	cmp	r3, #8
 80040c8:	d902      	bls.n	80040d0 <RadioSetRxGenericConfig+0x6c>
            return -1;
 80040ca:	f04f 33ff 	mov.w	r3, #4294967295	@ 0xffffffff
 80040ce:	e185      	b.n	80043dc <RadioSetRxGenericConfig+0x378>
            RADIO_MEMCPY8( syncword, config->fsk.SyncWord, config->fsk.SyncWordLength );
 80040d0:	68bb      	ldr	r3, [r7, #8]
 80040d2:	6919      	ldr	r1, [r3, #16]
 80040d4:	68bb      	ldr	r3, [r7, #8]
 80040d6:	7f9b      	ldrb	r3, [r3, #30]
 80040d8:	461a      	mov	r2, r3
 80040da:	f107 0320 	add.w	r3, r7, #32
 80040de:	4618      	mov	r0, r3
 80040e0:	f001 fe96 	bl	8005e10 <UTIL_MEM_cpy_8>
        SUBGRF_SetStopRxTimerOnPreambleDetect( ( config->fsk.StopTimerOnPreambleDetect == 0 ) ? false : true );
 80040e4:	68bb      	ldr	r3, [r7, #8]
 80040e6:	681b      	ldr	r3, [r3, #0]
 80040e8:	2b00      	cmp	r3, #0
 80040ea:	bf14      	ite	ne
 80040ec:	2301      	movne	r3, #1
 80040ee:	2300      	moveq	r3, #0
 80040f0:	b2db      	uxtb	r3, r3
 80040f2:	4618      	mov	r0, r3
 80040f4:	f000 fe28 	bl	8004d48 <SUBGRF_SetStopRxTimerOnPreambleDetect>
        SubgRf.ModulationParams.PacketType = PACKET_TYPE_GFSK;
 80040f8:	4b8c      	ldr	r3, [pc, #560]	@ (800432c <RadioSetRxGenericConfig+0x2c8>)
 80040fa:	2200      	movs	r2, #0
 80040fc:	f883 2038 	strb.w	r2, [r3, #56]	@ 0x38
        SubgRf.ModulationParams.Params.Gfsk.BitRate = config->fsk.BitRate;
 8004100:	68bb      	ldr	r3, [r7, #8]
 8004102:	689b      	ldr	r3, [r3, #8]
 8004104:	4a89      	ldr	r2, [pc, #548]	@ (800432c <RadioSetRxGenericConfig+0x2c8>)
 8004106:	63d3      	str	r3, [r2, #60]	@ 0x3c
        SubgRf.ModulationParams.Params.Gfsk.ModulationShaping = ( RadioModShapings_t ) config->fsk.ModulationShaping;
 8004108:	68bb      	ldr	r3, [r7, #8]
 800410a:	f893 2020 	ldrb.w	r2, [r3, #32]
 800410e:	4b87      	ldr	r3, [pc, #540]	@ (800432c <RadioSetRxGenericConfig+0x2c8>)
 8004110:	f883 2044 	strb.w	r2, [r3, #68]	@ 0x44
        SubgRf.ModulationParams.Params.Gfsk.Bandwidth = SUBGRF_GetFskBandwidthRegValue( config->fsk.Bandwidth );
 8004114:	68bb      	ldr	r3, [r7, #8]
 8004116:	685b      	ldr	r3, [r3, #4]
 8004118:	4618      	mov	r0, r3
 800411a:	f001 fc5f 	bl	80059dc <SUBGRF_GetFskBandwidthRegValue>
 800411e:	4603      	mov	r3, r0
 8004120:	461a      	mov	r2, r3
 8004122:	4b82      	ldr	r3, [pc, #520]	@ (800432c <RadioSetRxGenericConfig+0x2c8>)
 8004124:	f883 2045 	strb.w	r2, [r3, #69]	@ 0x45
        SubgRf.PacketParams.PacketType = PACKET_TYPE_GFSK;
 8004128:	4b80      	ldr	r3, [pc, #512]	@ (800432c <RadioSetRxGenericConfig+0x2c8>)
 800412a:	2200      	movs	r2, #0
 800412c:	739a      	strb	r2, [r3, #14]
        SubgRf.PacketParams.Params.Gfsk.PreambleLength = ( config->fsk.PreambleLen ) << 3 ; // convert byte into bit
 800412e:	68bb      	ldr	r3, [r7, #8]
 8004130:	68db      	ldr	r3, [r3, #12]
 8004132:	b29b      	uxth	r3, r3
 8004134:	00db      	lsls	r3, r3, #3
 8004136:	b29a      	uxth	r2, r3
 8004138:	4b7c      	ldr	r3, [pc, #496]	@ (800432c <RadioSetRxGenericConfig+0x2c8>)
 800413a:	821a      	strh	r2, [r3, #16]
        SubgRf.PacketParams.Params.Gfsk.PreambleMinDetect = ( RadioPreambleDetection_t ) config->fsk.PreambleMinDetect;
 800413c:	68bb      	ldr	r3, [r7, #8]
 800413e:	7fda      	ldrb	r2, [r3, #31]
 8004140:	4b7a      	ldr	r3, [pc, #488]	@ (800432c <RadioSetRxGenericConfig+0x2c8>)
 8004142:	749a      	strb	r2, [r3, #18]
        SubgRf.PacketParams.Params.Gfsk.SyncWordLength = ( config->fsk.SyncWordLength ) << 3; // convert byte into bit
 8004144:	68bb      	ldr	r3, [r7, #8]
 8004146:	7f9b      	ldrb	r3, [r3, #30]
 8004148:	00db      	lsls	r3, r3, #3
 800414a:	b2da      	uxtb	r2, r3
 800414c:	4b77      	ldr	r3, [pc, #476]	@ (800432c <RadioSetRxGenericConfig+0x2c8>)
 800414e:	74da      	strb	r2, [r3, #19]
        SubgRf.PacketParams.Params.Gfsk.AddrComp = ( RadioAddressComp_t ) config->fsk.AddrComp;
 8004150:	68bb      	ldr	r3, [r7, #8]
 8004152:	f893 2021 	ldrb.w	r2, [r3, #33]	@ 0x21
 8004156:	4b75      	ldr	r3, [pc, #468]	@ (800432c <RadioSetRxGenericConfig+0x2c8>)
 8004158:	751a      	strb	r2, [r3, #20]
        if( config->fsk.LengthMode == RADIO_FSK_PACKET_FIXED_LENGTH )
 800415a:	68bb      	ldr	r3, [r7, #8]
 800415c:	f893 3022 	ldrb.w	r3, [r3, #34]	@ 0x22
 8004160:	2b00      	cmp	r3, #0
 8004162:	d105      	bne.n	8004170 <RadioSetRxGenericConfig+0x10c>
            SubgRf.PacketParams.Params.Gfsk.PayloadLength = config->fsk.MaxPayloadLength;
 8004164:	68bb      	ldr	r3, [r7, #8]
 8004166:	695b      	ldr	r3, [r3, #20]
 8004168:	b2da      	uxtb	r2, r3
 800416a:	4b70      	ldr	r3, [pc, #448]	@ (800432c <RadioSetRxGenericConfig+0x2c8>)
 800416c:	759a      	strb	r2, [r3, #22]
 800416e:	e00b      	b.n	8004188 <RadioSetRxGenericConfig+0x124>
        else if( config->fsk.LengthMode == RADIO_FSK_PACKET_2BYTES_LENGTH )
 8004170:	68bb      	ldr	r3, [r7, #8]
 8004172:	f893 3022 	ldrb.w	r3, [r3, #34]	@ 0x22
 8004176:	2b02      	cmp	r3, #2
 8004178:	d103      	bne.n	8004182 <RadioSetRxGenericConfig+0x11e>
            SubgRf.PacketParams.Params.Gfsk.PayloadLength = 0xFF;
 800417a:	4b6c      	ldr	r3, [pc, #432]	@ (800432c <RadioSetRxGenericConfig+0x2c8>)
 800417c:	22ff      	movs	r2, #255	@ 0xff
 800417e:	759a      	strb	r2, [r3, #22]
 8004180:	e002      	b.n	8004188 <RadioSetRxGenericConfig+0x124>
            SubgRf.PacketParams.Params.Gfsk.PayloadLength = 0xFF;
 8004182:	4b6a      	ldr	r3, [pc, #424]	@ (800432c <RadioSetRxGenericConfig+0x2c8>)
 8004184:	22ff      	movs	r2, #255	@ 0xff
 8004186:	759a      	strb	r2, [r3, #22]
        if( ( config->fsk.Whitening == RADIO_FSK_DC_IBM_WHITENING )
 8004188:	68bb      	ldr	r3, [r7, #8]
 800418a:	f893 3024 	ldrb.w	r3, [r3, #36]	@ 0x24
 800418e:	2b02      	cmp	r3, #2
 8004190:	d004      	beq.n	800419c <RadioSetRxGenericConfig+0x138>
            || ( config->fsk.LengthMode == RADIO_FSK_PACKET_2BYTES_LENGTH ) )
 8004192:	68bb      	ldr	r3, [r7, #8]
 8004194:	f893 3022 	ldrb.w	r3, [r3, #34]	@ 0x22
 8004198:	2b02      	cmp	r3, #2
 800419a:	d12d      	bne.n	80041f8 <RadioSetRxGenericConfig+0x194>
            if( ( config->fsk.CrcLength != RADIO_FSK_CRC_2_BYTES_IBM ) && ( config->fsk.CrcLength != RADIO_FSK_CRC_2_BYTES_CCIT )
 800419c:	68bb      	ldr	r3, [r7, #8]
 800419e:	f893 3023 	ldrb.w	r3, [r3, #35]	@ 0x23
 80041a2:	2bf1      	cmp	r3, #241	@ 0xf1
 80041a4:	d00c      	beq.n	80041c0 <RadioSetRxGenericConfig+0x15c>
 80041a6:	68bb      	ldr	r3, [r7, #8]
 80041a8:	f893 3023 	ldrb.w	r3, [r3, #35]	@ 0x23
 80041ac:	2bf2      	cmp	r3, #242	@ 0xf2
 80041ae:	d007      	beq.n	80041c0 <RadioSetRxGenericConfig+0x15c>
                && ( config->fsk.CrcLength != RADIO_FSK_CRC_OFF ) )
 80041b0:	68bb      	ldr	r3, [r7, #8]
 80041b2:	f893 3023 	ldrb.w	r3, [r3, #35]	@ 0x23
 80041b6:	2b01      	cmp	r3, #1
 80041b8:	d002      	beq.n	80041c0 <RadioSetRxGenericConfig+0x15c>
                return -1;
 80041ba:	f04f 33ff 	mov.w	r3, #4294967295	@ 0xffffffff
 80041be:	e10d      	b.n	80043dc <RadioSetRxGenericConfig+0x378>
            ConfigGeneric.rtx = CONFIG_RX;
 80041c0:	2300      	movs	r3, #0
 80041c2:	773b      	strb	r3, [r7, #28]
            ConfigGeneric.RxConfig = config;
 80041c4:	68bb      	ldr	r3, [r7, #8]
 80041c6:	61bb      	str	r3, [r7, #24]
            if( 0UL != RFW_Init( &ConfigGeneric, RadioEvents, &RxTimeoutTimer ) )
 80041c8:	4b59      	ldr	r3, [pc, #356]	@ (8004330 <RadioSetRxGenericConfig+0x2cc>)
 80041ca:	6819      	ldr	r1, [r3, #0]
 80041cc:	f107 0314 	add.w	r3, r7, #20
 80041d0:	4a58      	ldr	r2, [pc, #352]	@ (8004334 <RadioSetRxGenericConfig+0x2d0>)
 80041d2:	4618      	mov	r0, r3
 80041d4:	f001 fcc2 	bl	8005b5c <RFW_Init>
 80041d8:	4603      	mov	r3, r0
 80041da:	2b00      	cmp	r3, #0
 80041dc:	d002      	beq.n	80041e4 <RadioSetRxGenericConfig+0x180>
                return -1;
 80041de:	f04f 33ff 	mov.w	r3, #4294967295	@ 0xffffffff
 80041e2:	e0fb      	b.n	80043dc <RadioSetRxGenericConfig+0x378>
            SubgRf.PacketParams.Params.Gfsk.DcFree = ( RadioDcFree_t ) RADIO_FSK_DC_FREE_OFF;
 80041e4:	4b51      	ldr	r3, [pc, #324]	@ (800432c <RadioSetRxGenericConfig+0x2c8>)
 80041e6:	2200      	movs	r2, #0
 80041e8:	761a      	strb	r2, [r3, #24]
            SubgRf.PacketParams.Params.Gfsk.CrcLength = ( RadioCrcTypes_t ) RADIO_CRC_OFF;
 80041ea:	4b50      	ldr	r3, [pc, #320]	@ (800432c <RadioSetRxGenericConfig+0x2c8>)
 80041ec:	2201      	movs	r2, #1
 80041ee:	75da      	strb	r2, [r3, #23]
            SubgRf.PacketParams.Params.Gfsk.HeaderType = ( RadioPacketLengthModes_t ) RADIO_PACKET_FIXED_LENGTH;
 80041f0:	4b4e      	ldr	r3, [pc, #312]	@ (800432c <RadioSetRxGenericConfig+0x2c8>)
 80041f2:	2200      	movs	r2, #0
 80041f4:	755a      	strb	r2, [r3, #21]
        {
 80041f6:	e00e      	b.n	8004216 <RadioSetRxGenericConfig+0x1b2>
            SubgRf.PacketParams.Params.Gfsk.CrcLength = ( RadioCrcTypes_t ) config->fsk.CrcLength;
 80041f8:	68bb      	ldr	r3, [r7, #8]
 80041fa:	f893 2023 	ldrb.w	r2, [r3, #35]	@ 0x23
 80041fe:	4b4b      	ldr	r3, [pc, #300]	@ (800432c <RadioSetRxGenericConfig+0x2c8>)
 8004200:	75da      	strb	r2, [r3, #23]
            SubgRf.PacketParams.Params.Gfsk.DcFree = ( RadioDcFree_t ) config->fsk.Whitening;
 8004202:	68bb      	ldr	r3, [r7, #8]
 8004204:	f893 2024 	ldrb.w	r2, [r3, #36]	@ 0x24
 8004208:	4b48      	ldr	r3, [pc, #288]	@ (800432c <RadioSetRxGenericConfig+0x2c8>)
 800420a:	761a      	strb	r2, [r3, #24]
            SubgRf.PacketParams.Params.Gfsk.HeaderType = ( RadioPacketLengthModes_t ) config->fsk.LengthMode;
 800420c:	68bb      	ldr	r3, [r7, #8]
 800420e:	f893 2022 	ldrb.w	r2, [r3, #34]	@ 0x22
 8004212:	4b46      	ldr	r3, [pc, #280]	@ (800432c <RadioSetRxGenericConfig+0x2c8>)
 8004214:	755a      	strb	r2, [r3, #21]
        RadioStandby( );
 8004216:	f7ff fa70 	bl	80036fa <RadioStandby>
        RadioSetModem( MODEM_FSK );
 800421a:	2000      	movs	r0, #0
 800421c:	f7fe fc0c 	bl	8002a38 <RadioSetModem>
        SUBGRF_SetModulationParams( &SubgRf.ModulationParams );
 8004220:	4845      	ldr	r0, [pc, #276]	@ (8004338 <RadioSetRxGenericConfig+0x2d4>)
 8004222:	f001 f82f 	bl	8005284 <SUBGRF_SetModulationParams>
        SUBGRF_SetPacketParams( &SubgRf.PacketParams );
 8004226:	4845      	ldr	r0, [pc, #276]	@ (800433c <RadioSetRxGenericConfig+0x2d8>)
 8004228:	f001 f8fe 	bl	8005428 <SUBGRF_SetPacketParams>
        SUBGRF_SetSyncWord( syncword );
 800422c:	f107 0320 	add.w	r3, r7, #32
 8004230:	4618      	mov	r0, r3
 8004232:	f000 fbc2 	bl	80049ba <SUBGRF_SetSyncWord>
        SUBGRF_SetWhiteningSeed( config->fsk.whiteSeed );
 8004236:	68bb      	ldr	r3, [r7, #8]
 8004238:	8b9b      	ldrh	r3, [r3, #28]
 800423a:	4618      	mov	r0, r3
 800423c:	f000 fc0c 	bl	8004a58 <SUBGRF_SetWhiteningSeed>
        SUBGRF_SetCrcPolynomial( config->fsk.CrcPolynomial );
 8004240:	68bb      	ldr	r3, [r7, #8]
 8004242:	8b1b      	ldrh	r3, [r3, #24]
 8004244:	4618      	mov	r0, r3
 8004246:	f000 fbe7 	bl	8004a18 <SUBGRF_SetCrcPolynomial>
        SubgRf.RxTimeout = ( uint32_t )( ( symbTimeout * 1000 * 8 ) / config->fsk.BitRate );
 800424a:	683b      	ldr	r3, [r7, #0]
 800424c:	f44f 52fa 	mov.w	r2, #8000	@ 0x1f40
 8004250:	fb03 f202 	mul.w	r2, r3, r2
 8004254:	68bb      	ldr	r3, [r7, #8]
 8004256:	689b      	ldr	r3, [r3, #8]
 8004258:	fbb2 f3f3 	udiv	r3, r2, r3
 800425c:	4a33      	ldr	r2, [pc, #204]	@ (800432c <RadioSetRxGenericConfig+0x2c8>)
 800425e:	6093      	str	r3, [r2, #8]
        break;
 8004260:	e0bb      	b.n	80043da <RadioSetRxGenericConfig+0x376>
        if( config->lora.PreambleLen == 0 )
 8004262:	68bb      	ldr	r3, [r7, #8]
 8004264:	8e1b      	ldrh	r3, [r3, #48]	@ 0x30
 8004266:	2b00      	cmp	r3, #0
 8004268:	d102      	bne.n	8004270 <RadioSetRxGenericConfig+0x20c>
            return -1;
 800426a:	f04f 33ff 	mov.w	r3, #4294967295	@ 0xffffffff
 800426e:	e0b5      	b.n	80043dc <RadioSetRxGenericConfig+0x378>
        if( config->lora.LengthMode == RADIO_LORA_PACKET_FIXED_LENGTH )
 8004270:	68bb      	ldr	r3, [r7, #8]
 8004272:	f893 3032 	ldrb.w	r3, [r3, #50]	@ 0x32
 8004276:	2b01      	cmp	r3, #1
 8004278:	d105      	bne.n	8004286 <RadioSetRxGenericConfig+0x222>
            MaxPayloadLength = config->lora.MaxPayloadLength;
 800427a:	68bb      	ldr	r3, [r7, #8]
 800427c:	f893 3033 	ldrb.w	r3, [r3, #51]	@ 0x33
 8004280:	f887 302f 	strb.w	r3, [r7, #47]	@ 0x2f
 8004284:	e002      	b.n	800428c <RadioSetRxGenericConfig+0x228>
            MaxPayloadLength = 0xFF;
 8004286:	23ff      	movs	r3, #255	@ 0xff
 8004288:	f887 302f 	strb.w	r3, [r7, #47]	@ 0x2f
        SUBGRF_SetStopRxTimerOnPreambleDetect( ( config->lora.StopTimerOnPreambleDetect == 0 ) ? false : true );
 800428c:	68bb      	ldr	r3, [r7, #8]
 800428e:	6a9b      	ldr	r3, [r3, #40]	@ 0x28
 8004290:	2b00      	cmp	r3, #0
 8004292:	bf14      	ite	ne
 8004294:	2301      	movne	r3, #1
 8004296:	2300      	moveq	r3, #0
 8004298:	b2db      	uxtb	r3, r3
 800429a:	4618      	mov	r0, r3
 800429c:	f000 fd54 	bl	8004d48 <SUBGRF_SetStopRxTimerOnPreambleDetect>
        SUBGRF_SetLoRaSymbNumTimeout( symbTimeout );
 80042a0:	683b      	ldr	r3, [r7, #0]
 80042a2:	b2db      	uxtb	r3, r3
 80042a4:	4618      	mov	r0, r3
 80042a6:	f000 fd5e 	bl	8004d66 <SUBGRF_SetLoRaSymbNumTimeout>
        SubgRf.ModulationParams.PacketType = PACKET_TYPE_LORA;
 80042aa:	4b20      	ldr	r3, [pc, #128]	@ (800432c <RadioSetRxGenericConfig+0x2c8>)
 80042ac:	2201      	movs	r2, #1
 80042ae:	f883 2038 	strb.w	r2, [r3, #56]	@ 0x38
        SubgRf.ModulationParams.Params.LoRa.SpreadingFactor = ( RadioLoRaSpreadingFactors_t ) config->lora.SpreadingFactor;
 80042b2:	68bb      	ldr	r3, [r7, #8]
 80042b4:	f893 202c 	ldrb.w	r2, [r3, #44]	@ 0x2c
 80042b8:	4b1c      	ldr	r3, [pc, #112]	@ (800432c <RadioSetRxGenericConfig+0x2c8>)
 80042ba:	f883 2050 	strb.w	r2, [r3, #80]	@ 0x50
        SubgRf.ModulationParams.Params.LoRa.Bandwidth = ( RadioLoRaBandwidths_t ) config->lora.Bandwidth;
 80042be:	68bb      	ldr	r3, [r7, #8]
 80042c0:	f893 202d 	ldrb.w	r2, [r3, #45]	@ 0x2d
 80042c4:	4b19      	ldr	r3, [pc, #100]	@ (800432c <RadioSetRxGenericConfig+0x2c8>)
 80042c6:	f883 2051 	strb.w	r2, [r3, #81]	@ 0x51
        SubgRf.ModulationParams.Params.LoRa.CodingRate = ( RadioLoRaCodingRates_t ) config->lora.Coderate;
 80042ca:	68bb      	ldr	r3, [r7, #8]
 80042cc:	f893 202e 	ldrb.w	r2, [r3, #46]	@ 0x2e
 80042d0:	4b16      	ldr	r3, [pc, #88]	@ (800432c <RadioSetRxGenericConfig+0x2c8>)
 80042d2:	f883 2052 	strb.w	r2, [r3, #82]	@ 0x52
        switch( config->lora.LowDatarateOptimize )
 80042d6:	68bb      	ldr	r3, [r7, #8]
 80042d8:	f893 302f 	ldrb.w	r3, [r3, #47]	@ 0x2f
 80042dc:	2b02      	cmp	r3, #2
 80042de:	d010      	beq.n	8004302 <RadioSetRxGenericConfig+0x29e>
 80042e0:	2b02      	cmp	r3, #2
 80042e2:	dc2d      	bgt.n	8004340 <RadioSetRxGenericConfig+0x2dc>
 80042e4:	2b00      	cmp	r3, #0
 80042e6:	d002      	beq.n	80042ee <RadioSetRxGenericConfig+0x28a>
 80042e8:	2b01      	cmp	r3, #1
 80042ea:	d005      	beq.n	80042f8 <RadioSetRxGenericConfig+0x294>
            break;
 80042ec:	e028      	b.n	8004340 <RadioSetRxGenericConfig+0x2dc>
            SubgRf.ModulationParams.Params.LoRa.LowDatarateOptimize = 0;
 80042ee:	4b0f      	ldr	r3, [pc, #60]	@ (800432c <RadioSetRxGenericConfig+0x2c8>)
 80042f0:	2200      	movs	r2, #0
 80042f2:	f883 2053 	strb.w	r2, [r3, #83]	@ 0x53
            break;
 80042f6:	e024      	b.n	8004342 <RadioSetRxGenericConfig+0x2de>
            SubgRf.ModulationParams.Params.LoRa.LowDatarateOptimize = 1;
 80042f8:	4b0c      	ldr	r3, [pc, #48]	@ (800432c <RadioSetRxGenericConfig+0x2c8>)
 80042fa:	2201      	movs	r2, #1
 80042fc:	f883 2053 	strb.w	r2, [r3, #83]	@ 0x53
            break;
 8004300:	e01f      	b.n	8004342 <RadioSetRxGenericConfig+0x2de>
            if( ( config->lora.SpreadingFactor == RADIO_LORA_SF11 ) || ( config->lora.SpreadingFactor == RADIO_LORA_SF12 ) )
 8004302:	68bb      	ldr	r3, [r7, #8]
 8004304:	f893 302c 	ldrb.w	r3, [r3, #44]	@ 0x2c
 8004308:	2b0b      	cmp	r3, #11
 800430a:	d004      	beq.n	8004316 <RadioSetRxGenericConfig+0x2b2>
 800430c:	68bb      	ldr	r3, [r7, #8]
 800430e:	f893 302c 	ldrb.w	r3, [r3, #44]	@ 0x2c
 8004312:	2b0c      	cmp	r3, #12
 8004314:	d104      	bne.n	8004320 <RadioSetRxGenericConfig+0x2bc>
                SubgRf.ModulationParams.Params.LoRa.LowDatarateOptimize = 1;
 8004316:	4b05      	ldr	r3, [pc, #20]	@ (800432c <RadioSetRxGenericConfig+0x2c8>)
 8004318:	2201      	movs	r2, #1
 800431a:	f883 2053 	strb.w	r2, [r3, #83]	@ 0x53
            break;
 800431e:	e010      	b.n	8004342 <RadioSetRxGenericConfig+0x2de>
                SubgRf.ModulationParams.Params.LoRa.LowDatarateOptimize = 0;
 8004320:	4b02      	ldr	r3, [pc, #8]	@ (800432c <RadioSetRxGenericConfig+0x2c8>)
 8004322:	2200      	movs	r2, #0
 8004324:	f883 2053 	strb.w	r2, [r3, #83]	@ 0x53
            break;
 8004328:	e00b      	b.n	8004342 <RadioSetRxGenericConfig+0x2de>
 800432a:	bf00      	nop
 800432c:	200001a4 	.word	0x200001a4
 8004330:	200001a0 	.word	0x200001a0
 8004334:	20000218 	.word	0x20000218
 8004338:	200001dc 	.word	0x200001dc
 800433c:	200001b2 	.word	0x200001b2
            break;
 8004340:	bf00      	nop
        SubgRf.PacketParams.PacketType = PACKET_TYPE_LORA;
 8004342:	4b28      	ldr	r3, [pc, #160]	@ (80043e4 <RadioSetRxGenericConfig+0x380>)
 8004344:	2201      	movs	r2, #1
 8004346:	739a      	strb	r2, [r3, #14]
        SubgRf.PacketParams.Params.LoRa.PreambleLength = config->lora.PreambleLen;
 8004348:	68bb      	ldr	r3, [r7, #8]
 800434a:	8e1a      	ldrh	r2, [r3, #48]	@ 0x30
 800434c:	4b25      	ldr	r3, [pc, #148]	@ (80043e4 <RadioSetRxGenericConfig+0x380>)
 800434e:	839a      	strh	r2, [r3, #28]
        SubgRf.PacketParams.Params.LoRa.HeaderType = ( RadioLoRaPacketLengthsMode_t ) config->lora.LengthMode;
 8004350:	68bb      	ldr	r3, [r7, #8]
 8004352:	f893 2032 	ldrb.w	r2, [r3, #50]	@ 0x32
 8004356:	4b23      	ldr	r3, [pc, #140]	@ (80043e4 <RadioSetRxGenericConfig+0x380>)
 8004358:	779a      	strb	r2, [r3, #30]
        SubgRf.PacketParams.Params.LoRa.PayloadLength = MaxPayloadLength;
 800435a:	4a22      	ldr	r2, [pc, #136]	@ (80043e4 <RadioSetRxGenericConfig+0x380>)
 800435c:	f897 302f 	ldrb.w	r3, [r7, #47]	@ 0x2f
 8004360:	77d3      	strb	r3, [r2, #31]
        SubgRf.PacketParams.Params.LoRa.CrcMode = ( RadioLoRaCrcModes_t ) config->lora.CrcMode;
 8004362:	68bb      	ldr	r3, [r7, #8]
 8004364:	f893 2034 	ldrb.w	r2, [r3, #52]	@ 0x34
 8004368:	4b1e      	ldr	r3, [pc, #120]	@ (80043e4 <RadioSetRxGenericConfig+0x380>)
 800436a:	f883 2020 	strb.w	r2, [r3, #32]
        SubgRf.PacketParams.Params.LoRa.InvertIQ = ( RadioLoRaIQModes_t ) config->lora.IqInverted;
 800436e:	68bb      	ldr	r3, [r7, #8]
 8004370:	f893 2035 	ldrb.w	r2, [r3, #53]	@ 0x35
 8004374:	4b1b      	ldr	r3, [pc, #108]	@ (80043e4 <RadioSetRxGenericConfig+0x380>)
 8004376:	f883 2021 	strb.w	r2, [r3, #33]	@ 0x21
        RadioStandby( );
 800437a:	f7ff f9be 	bl	80036fa <RadioStandby>
        RadioSetModem( MODEM_LORA );
 800437e:	2001      	movs	r0, #1
 8004380:	f7fe fb5a 	bl	8002a38 <RadioSetModem>
        SUBGRF_SetModulationParams( &SubgRf.ModulationParams );
 8004384:	4818      	ldr	r0, [pc, #96]	@ (80043e8 <RadioSetRxGenericConfig+0x384>)
 8004386:	f000 ff7d 	bl	8005284 <SUBGRF_SetModulationParams>
        SUBGRF_SetPacketParams( &SubgRf.PacketParams );
 800438a:	4818      	ldr	r0, [pc, #96]	@ (80043ec <RadioSetRxGenericConfig+0x388>)
 800438c:	f001 f84c 	bl	8005428 <SUBGRF_SetPacketParams>
        if( SubgRf.PacketParams.Params.LoRa.InvertIQ == LORA_IQ_INVERTED )
 8004390:	4b14      	ldr	r3, [pc, #80]	@ (80043e4 <RadioSetRxGenericConfig+0x380>)
 8004392:	f893 3021 	ldrb.w	r3, [r3, #33]	@ 0x21
 8004396:	2b01      	cmp	r3, #1
 8004398:	d10d      	bne.n	80043b6 <RadioSetRxGenericConfig+0x352>
            SUBGRF_WriteRegister( SUBGHZ_LIQPOLR, SUBGRF_ReadRegister( SUBGHZ_LIQPOLR ) & ~( 1 << 2 ) );
 800439a:	f240 7036 	movw	r0, #1846	@ 0x736
 800439e:	f001 f9ad 	bl	80056fc <SUBGRF_ReadRegister>
 80043a2:	4603      	mov	r3, r0
 80043a4:	f023 0304 	bic.w	r3, r3, #4
 80043a8:	b2db      	uxtb	r3, r3
 80043aa:	4619      	mov	r1, r3
 80043ac:	f240 7036 	movw	r0, #1846	@ 0x736
 80043b0:	f001 f982 	bl	80056b8 <SUBGRF_WriteRegister>
 80043b4:	e00c      	b.n	80043d0 <RadioSetRxGenericConfig+0x36c>
            SUBGRF_WriteRegister( SUBGHZ_LIQPOLR, SUBGRF_ReadRegister( SUBGHZ_LIQPOLR ) | ( 1 << 2 ) );
 80043b6:	f240 7036 	movw	r0, #1846	@ 0x736
 80043ba:	f001 f99f 	bl	80056fc <SUBGRF_ReadRegister>
 80043be:	4603      	mov	r3, r0
 80043c0:	f043 0304 	orr.w	r3, r3, #4
 80043c4:	b2db      	uxtb	r3, r3
 80043c6:	4619      	mov	r1, r3
 80043c8:	f240 7036 	movw	r0, #1846	@ 0x736
 80043cc:	f001 f974 	bl	80056b8 <SUBGRF_WriteRegister>
        SubgRf.RxTimeout = 0xFFFF;
 80043d0:	4b04      	ldr	r3, [pc, #16]	@ (80043e4 <RadioSetRxGenericConfig+0x380>)
 80043d2:	f64f 72ff 	movw	r2, #65535	@ 0xffff
 80043d6:	609a      	str	r2, [r3, #8]
        break;
 80043d8:	bf00      	nop
    }
    return status;
 80043da:	6abb      	ldr	r3, [r7, #40]	@ 0x28
#else /* RADIO_GENERIC_CONFIG_ENABLE == 1*/
    return -1;
#endif /* RADIO_GENERIC_CONFIG_ENABLE == 0*/
}
 80043dc:	4618      	mov	r0, r3
 80043de:	3730      	adds	r7, #48	@ 0x30
 80043e0:	46bd      	mov	sp, r7
 80043e2:	bd80      	pop	{r7, pc}
 80043e4:	200001a4 	.word	0x200001a4
 80043e8:	200001dc 	.word	0x200001dc
 80043ec:	200001b2 	.word	0x200001b2

080043f0 <RadioSetTxGenericConfig>:

static int32_t RadioSetTxGenericConfig( GenericModems_t modem, TxConfigGeneric_t *config, int8_t power,
                                        uint32_t timeout )
{
 80043f0:	b580      	push	{r7, lr}
 80043f2:	b08e      	sub	sp, #56	@ 0x38
 80043f4:	af00      	add	r7, sp, #0
 80043f6:	60b9      	str	r1, [r7, #8]
 80043f8:	607b      	str	r3, [r7, #4]
 80043fa:	4603      	mov	r3, r0
 80043fc:	73fb      	strb	r3, [r7, #15]
 80043fe:	4613      	mov	r3, r2
 8004400:	73bb      	strb	r3, [r7, #14]
#if( RADIO_LR_FHSS_IS_ON == 1 )
    /*disable LrFhss*/
    SubgRf.lr_fhss.is_lr_fhss_on = false;
#endif /* RADIO_LR_FHSS_IS_ON == 1 */
#if (RADIO_GENERIC_CONFIG_ENABLE == 1)
    uint8_t syncword[8] = {0};
 8004402:	2300      	movs	r3, #0
 8004404:	62fb      	str	r3, [r7, #44]	@ 0x2c
 8004406:	2300      	movs	r3, #0
 8004408:	633b      	str	r3, [r7, #48]	@ 0x30
    RadioModems_t radio_modem;
    RFW_DeInit( ); /* switch Off FwPacketDecoding by default */
 800440a:	f001 fbb4 	bl	8005b76 <RFW_DeInit>
    switch( modem )
 800440e:	7bfb      	ldrb	r3, [r7, #15]
 8004410:	2b03      	cmp	r3, #3
 8004412:	f200 8204 	bhi.w	800481e <RadioSetTxGenericConfig+0x42e>
 8004416:	a201      	add	r2, pc, #4	@ (adr r2, 800441c <RadioSetTxGenericConfig+0x2c>)
 8004418:	f852 f023 	ldr.w	pc, [r2, r3, lsl #2]
 800441c:	080045a1 	.word	0x080045a1
 8004420:	080046e9 	.word	0x080046e9
 8004424:	080047e1 	.word	0x080047e1
 8004428:	0800442d 	.word	0x0800442d
    {
    case GENERIC_MSK:
        if( config->msk.SyncWordLength > 8 )
 800442c:	68bb      	ldr	r3, [r7, #8]
 800442e:	7c9b      	ldrb	r3, [r3, #18]
 8004430:	2b08      	cmp	r3, #8
 8004432:	d902      	bls.n	800443a <RadioSetTxGenericConfig+0x4a>
        {
            return -1;
 8004434:	f04f 33ff 	mov.w	r3, #4294967295	@ 0xffffffff
 8004438:	e206      	b.n	8004848 <RadioSetTxGenericConfig+0x458>
        }
        else
        {
            RADIO_MEMCPY8( syncword, config->msk.SyncWord, config->msk.SyncWordLength );
 800443a:	68bb      	ldr	r3, [r7, #8]
 800443c:	6899      	ldr	r1, [r3, #8]
 800443e:	68bb      	ldr	r3, [r7, #8]
 8004440:	7c9b      	ldrb	r3, [r3, #18]
 8004442:	461a      	mov	r2, r3
 8004444:	f107 032c 	add.w	r3, r7, #44	@ 0x2c
 8004448:	4618      	mov	r0, r3
 800444a:	f001 fce1 	bl	8005e10 <UTIL_MEM_cpy_8>
        }
        if( ( config->msk.BitRate == 0 ) )
 800444e:	68bb      	ldr	r3, [r7, #8]
 8004450:	681b      	ldr	r3, [r3, #0]
 8004452:	2b00      	cmp	r3, #0
 8004454:	d102      	bne.n	800445c <RadioSetTxGenericConfig+0x6c>
        {
            return -1;
 8004456:	f04f 33ff 	mov.w	r3, #4294967295	@ 0xffffffff
 800445a:	e1f5      	b.n	8004848 <RadioSetTxGenericConfig+0x458>
        }
        else if( config->msk.BitRate <= 10000 )
 800445c:	68bb      	ldr	r3, [r7, #8]
 800445e:	681b      	ldr	r3, [r3, #0]
 8004460:	f242 7210 	movw	r2, #10000	@ 0x2710
 8004464:	4293      	cmp	r3, r2
 8004466:	d813      	bhi.n	8004490 <RadioSetTxGenericConfig+0xa0>
        {
            /*max msk modulator datarate is 10kbps*/
            radio_modem = MODEM_MSK;
 8004468:	2302      	movs	r3, #2
 800446a:	f887 3037 	strb.w	r3, [r7, #55]	@ 0x37
            SubgRf.PacketParams.PacketType = PACKET_TYPE_GMSK;
 800446e:	4b99      	ldr	r3, [pc, #612]	@ (80046d4 <RadioSetTxGenericConfig+0x2e4>)
 8004470:	2203      	movs	r2, #3
 8004472:	739a      	strb	r2, [r3, #14]
            SubgRf.ModulationParams.PacketType = PACKET_TYPE_GMSK;
 8004474:	4b97      	ldr	r3, [pc, #604]	@ (80046d4 <RadioSetTxGenericConfig+0x2e4>)
 8004476:	2203      	movs	r2, #3
 8004478:	f883 2038 	strb.w	r2, [r3, #56]	@ 0x38
            SubgRf.ModulationParams.Params.Gfsk.BitRate = config->msk.BitRate;
 800447c:	68bb      	ldr	r3, [r7, #8]
 800447e:	681b      	ldr	r3, [r3, #0]
 8004480:	4a94      	ldr	r2, [pc, #592]	@ (80046d4 <RadioSetTxGenericConfig+0x2e4>)
 8004482:	63d3      	str	r3, [r2, #60]	@ 0x3c
            SubgRf.ModulationParams.Params.Gfsk.ModulationShaping = ( RadioModShapings_t ) config->msk.ModulationShaping;
 8004484:	68bb      	ldr	r3, [r7, #8]
 8004486:	7cda      	ldrb	r2, [r3, #19]
 8004488:	4b92      	ldr	r3, [pc, #584]	@ (80046d4 <RadioSetTxGenericConfig+0x2e4>)
 800448a:	f883 2044 	strb.w	r2, [r3, #68]	@ 0x44
 800448e:	e017      	b.n	80044c0 <RadioSetTxGenericConfig+0xd0>
        }
        else
        {
            radio_modem = MODEM_FSK;
 8004490:	2300      	movs	r3, #0
 8004492:	f887 3037 	strb.w	r3, [r7, #55]	@ 0x37
            SubgRf.PacketParams.PacketType = PACKET_TYPE_GFSK;
 8004496:	4b8f      	ldr	r3, [pc, #572]	@ (80046d4 <RadioSetTxGenericConfig+0x2e4>)
 8004498:	2200      	movs	r2, #0
 800449a:	739a      	strb	r2, [r3, #14]
            SubgRf.ModulationParams.PacketType = PACKET_TYPE_GFSK;
 800449c:	4b8d      	ldr	r3, [pc, #564]	@ (80046d4 <RadioSetTxGenericConfig+0x2e4>)
 800449e:	2200      	movs	r2, #0
 80044a0:	f883 2038 	strb.w	r2, [r3, #56]	@ 0x38
            SubgRf.ModulationParams.Params.Gfsk.BitRate = config->msk.BitRate;
 80044a4:	68bb      	ldr	r3, [r7, #8]
 80044a6:	681b      	ldr	r3, [r3, #0]
 80044a8:	4a8a      	ldr	r2, [pc, #552]	@ (80046d4 <RadioSetTxGenericConfig+0x2e4>)
 80044aa:	63d3      	str	r3, [r2, #60]	@ 0x3c
            SubgRf.ModulationParams.Params.Gfsk.ModulationShaping = ( RadioModShapings_t ) config->msk.ModulationShaping;
 80044ac:	68bb      	ldr	r3, [r7, #8]
 80044ae:	7cda      	ldrb	r2, [r3, #19]
 80044b0:	4b88      	ldr	r3, [pc, #544]	@ (80046d4 <RadioSetTxGenericConfig+0x2e4>)
 80044b2:	f883 2044 	strb.w	r2, [r3, #68]	@ 0x44
            /*do msk with gfsk modulator*/
            SubgRf.ModulationParams.Params.Gfsk.Fdev = config->msk.BitRate / 4;
 80044b6:	68bb      	ldr	r3, [r7, #8]
 80044b8:	681b      	ldr	r3, [r3, #0]
 80044ba:	089b      	lsrs	r3, r3, #2
 80044bc:	4a85      	ldr	r2, [pc, #532]	@ (80046d4 <RadioSetTxGenericConfig+0x2e4>)
 80044be:	6413      	str	r3, [r2, #64]	@ 0x40
        }

        SubgRf.PacketParams.Params.Gfsk.PreambleLength = ( config->msk.PreambleLen ) << 3; // convert byte into bit
 80044c0:	68bb      	ldr	r3, [r7, #8]
 80044c2:	685b      	ldr	r3, [r3, #4]
 80044c4:	b29b      	uxth	r3, r3
 80044c6:	00db      	lsls	r3, r3, #3
 80044c8:	b29a      	uxth	r2, r3
 80044ca:	4b82      	ldr	r3, [pc, #520]	@ (80046d4 <RadioSetTxGenericConfig+0x2e4>)
 80044cc:	821a      	strh	r2, [r3, #16]
        SubgRf.PacketParams.Params.Gfsk.PreambleMinDetect = RADIO_PREAMBLE_DETECTOR_08_BITS; // don't care in tx
 80044ce:	4b81      	ldr	r3, [pc, #516]	@ (80046d4 <RadioSetTxGenericConfig+0x2e4>)
 80044d0:	2204      	movs	r2, #4
 80044d2:	749a      	strb	r2, [r3, #18]
        SubgRf.PacketParams.Params.Gfsk.SyncWordLength = ( config->msk.SyncWordLength ) << 3; // convert byte into bit
 80044d4:	68bb      	ldr	r3, [r7, #8]
 80044d6:	7c9b      	ldrb	r3, [r3, #18]
 80044d8:	00db      	lsls	r3, r3, #3
 80044da:	b2da      	uxtb	r2, r3
 80044dc:	4b7d      	ldr	r3, [pc, #500]	@ (80046d4 <RadioSetTxGenericConfig+0x2e4>)
 80044de:	74da      	strb	r2, [r3, #19]
        SubgRf.PacketParams.Params.Gfsk.AddrComp = RADIO_ADDRESSCOMP_FILT_OFF; // don't care in tx
 80044e0:	4b7c      	ldr	r3, [pc, #496]	@ (80046d4 <RadioSetTxGenericConfig+0x2e4>)
 80044e2:	2200      	movs	r2, #0
 80044e4:	751a      	strb	r2, [r3, #20]

        if( ( config->msk.Whitening == RADIO_FSK_DC_IBM_WHITENING )
 80044e6:	68bb      	ldr	r3, [r7, #8]
 80044e8:	7d9b      	ldrb	r3, [r3, #22]
 80044ea:	2b02      	cmp	r3, #2
 80044ec:	d003      	beq.n	80044f6 <RadioSetTxGenericConfig+0x106>
            || ( config->msk.HeaderType == RADIO_FSK_PACKET_2BYTES_LENGTH ) )
 80044ee:	68bb      	ldr	r3, [r7, #8]
 80044f0:	7d1b      	ldrb	r3, [r3, #20]
 80044f2:	2b02      	cmp	r3, #2
 80044f4:	d12b      	bne.n	800454e <RadioSetTxGenericConfig+0x15e>
        {
            /* Supports only RADIO_FSK_CRC_2_BYTES_IBM or RADIO_FSK_CRC_2_BYTES_CCIT */
            if( ( config->msk.CrcLength != RADIO_FSK_CRC_2_BYTES_IBM ) && ( config->msk.CrcLength != RADIO_FSK_CRC_2_BYTES_CCIT )
 80044f6:	68bb      	ldr	r3, [r7, #8]
 80044f8:	7d5b      	ldrb	r3, [r3, #21]
 80044fa:	2bf1      	cmp	r3, #241	@ 0xf1
 80044fc:	d00a      	beq.n	8004514 <RadioSetTxGenericConfig+0x124>
 80044fe:	68bb      	ldr	r3, [r7, #8]
 8004500:	7d5b      	ldrb	r3, [r3, #21]
 8004502:	2bf2      	cmp	r3, #242	@ 0xf2
 8004504:	d006      	beq.n	8004514 <RadioSetTxGenericConfig+0x124>
                && ( config->msk.CrcLength != RADIO_FSK_CRC_OFF ) )
 8004506:	68bb      	ldr	r3, [r7, #8]
 8004508:	7d5b      	ldrb	r3, [r3, #21]
 800450a:	2b01      	cmp	r3, #1
 800450c:	d002      	beq.n	8004514 <RadioSetTxGenericConfig+0x124>
            {
                return -1;
 800450e:	f04f 33ff 	mov.w	r3, #4294967295	@ 0xffffffff
 8004512:	e199      	b.n	8004848 <RadioSetTxGenericConfig+0x458>
            }
            ConfigGeneric_t ConfigGeneric;
            /*msk and fsk are union, no need for copy as fsk/msk struct are on same address*/
            ConfigGeneric.TxConfig = config;
 8004514:	68bb      	ldr	r3, [r7, #8]
 8004516:	623b      	str	r3, [r7, #32]
            ConfigGeneric.rtx = CONFIG_TX;
 8004518:	2301      	movs	r3, #1
 800451a:	f887 3028 	strb.w	r3, [r7, #40]	@ 0x28
            if( 0UL != RFW_Init( &ConfigGeneric, RadioEvents, &TxTimeoutTimer ) )
 800451e:	4b6e      	ldr	r3, [pc, #440]	@ (80046d8 <RadioSetTxGenericConfig+0x2e8>)
 8004520:	6819      	ldr	r1, [r3, #0]
 8004522:	f107 0320 	add.w	r3, r7, #32
 8004526:	4a6d      	ldr	r2, [pc, #436]	@ (80046dc <RadioSetTxGenericConfig+0x2ec>)
 8004528:	4618      	mov	r0, r3
 800452a:	f001 fb17 	bl	8005b5c <RFW_Init>
 800452e:	4603      	mov	r3, r0
 8004530:	2b00      	cmp	r3, #0
 8004532:	d002      	beq.n	800453a <RadioSetTxGenericConfig+0x14a>
            {
                return -1;
 8004534:	f04f 33ff 	mov.w	r3, #4294967295	@ 0xffffffff
 8004538:	e186      	b.n	8004848 <RadioSetTxGenericConfig+0x458>
            }
            /* whitening off, will be processed by FW, switch off built-in radio whitening */
            SubgRf.PacketParams.Params.Gfsk.DcFree = ( RadioDcFree_t ) RADIO_FSK_DC_FREE_OFF;
 800453a:	4b66      	ldr	r3, [pc, #408]	@ (80046d4 <RadioSetTxGenericConfig+0x2e4>)
 800453c:	2200      	movs	r2, #0
 800453e:	761a      	strb	r2, [r3, #24]
            /* Crc processed by FW, switch off built-in radio Crc */
            SubgRf.PacketParams.Params.Gfsk.CrcLength = ( RadioCrcTypes_t ) RADIO_CRC_OFF;
 8004540:	4b64      	ldr	r3, [pc, #400]	@ (80046d4 <RadioSetTxGenericConfig+0x2e4>)
 8004542:	2201      	movs	r2, #1
 8004544:	75da      	strb	r2, [r3, #23]
            /* length contained in Tx, but will be processed by FW after de-whitening */
            SubgRf.PacketParams.Params.Gfsk.HeaderType = ( RadioPacketLengthModes_t ) RADIO_PACKET_FIXED_LENGTH;
 8004546:	4b63      	ldr	r3, [pc, #396]	@ (80046d4 <RadioSetTxGenericConfig+0x2e4>)
 8004548:	2200      	movs	r2, #0
 800454a:	755a      	strb	r2, [r3, #21]
        {
 800454c:	e00b      	b.n	8004566 <RadioSetTxGenericConfig+0x176>
        }
        else
        {
            SubgRf.PacketParams.Params.Gfsk.CrcLength = ( RadioCrcTypes_t ) config->msk.CrcLength;
 800454e:	68bb      	ldr	r3, [r7, #8]
 8004550:	7d5a      	ldrb	r2, [r3, #21]
 8004552:	4b60      	ldr	r3, [pc, #384]	@ (80046d4 <RadioSetTxGenericConfig+0x2e4>)
 8004554:	75da      	strb	r2, [r3, #23]
            SubgRf.PacketParams.Params.Gfsk.DcFree = ( RadioDcFree_t ) config->msk.Whitening;
 8004556:	68bb      	ldr	r3, [r7, #8]
 8004558:	7d9a      	ldrb	r2, [r3, #22]
 800455a:	4b5e      	ldr	r3, [pc, #376]	@ (80046d4 <RadioSetTxGenericConfig+0x2e4>)
 800455c:	761a      	strb	r2, [r3, #24]
            SubgRf.PacketParams.Params.Gfsk.HeaderType = ( RadioPacketLengthModes_t ) config->msk.HeaderType;
 800455e:	68bb      	ldr	r3, [r7, #8]
 8004560:	7d1a      	ldrb	r2, [r3, #20]
 8004562:	4b5c      	ldr	r3, [pc, #368]	@ (80046d4 <RadioSetTxGenericConfig+0x2e4>)
 8004564:	755a      	strb	r2, [r3, #21]
        }

        RadioStandby( );
 8004566:	f7ff f8c8 	bl	80036fa <RadioStandby>
        RadioSetModem( radio_modem );
 800456a:	f897 3037 	ldrb.w	r3, [r7, #55]	@ 0x37
 800456e:	4618      	mov	r0, r3
 8004570:	f7fe fa62 	bl	8002a38 <RadioSetModem>

        SUBGRF_SetModulationParams( &SubgRf.ModulationParams );
 8004574:	485a      	ldr	r0, [pc, #360]	@ (80046e0 <RadioSetTxGenericConfig+0x2f0>)
 8004576:	f000 fe85 	bl	8005284 <SUBGRF_SetModulationParams>
        SUBGRF_SetPacketParams( &SubgRf.PacketParams );
 800457a:	485a      	ldr	r0, [pc, #360]	@ (80046e4 <RadioSetTxGenericConfig+0x2f4>)
 800457c:	f000 ff54 	bl	8005428 <SUBGRF_SetPacketParams>
        SUBGRF_SetSyncWord( syncword );
 8004580:	f107 032c 	add.w	r3, r7, #44	@ 0x2c
 8004584:	4618      	mov	r0, r3
 8004586:	f000 fa18 	bl	80049ba <SUBGRF_SetSyncWord>
        SUBGRF_SetWhiteningSeed( config->msk.whiteSeed );
 800458a:	68bb      	ldr	r3, [r7, #8]
 800458c:	8a1b      	ldrh	r3, [r3, #16]
 800458e:	4618      	mov	r0, r3
 8004590:	f000 fa62 	bl	8004a58 <SUBGRF_SetWhiteningSeed>
        SUBGRF_SetCrcPolynomial( config->msk.CrcPolynomial );
 8004594:	68bb      	ldr	r3, [r7, #8]
 8004596:	899b      	ldrh	r3, [r3, #12]
 8004598:	4618      	mov	r0, r3
 800459a:	f000 fa3d 	bl	8004a18 <SUBGRF_SetCrcPolynomial>
        break;
 800459e:	e13f      	b.n	8004820 <RadioSetTxGenericConfig+0x430>
    case GENERIC_FSK:
        if( config->fsk.BitRate == 0 )
 80045a0:	68bb      	ldr	r3, [r7, #8]
 80045a2:	681b      	ldr	r3, [r3, #0]
 80045a4:	2b00      	cmp	r3, #0
 80045a6:	d102      	bne.n	80045ae <RadioSetTxGenericConfig+0x1be>
        {
            return -1;
 80045a8:	f04f 33ff 	mov.w	r3, #4294967295	@ 0xffffffff
 80045ac:	e14c      	b.n	8004848 <RadioSetTxGenericConfig+0x458>
        }
        if( config->fsk.SyncWordLength > 8 )
 80045ae:	68bb      	ldr	r3, [r7, #8]
 80045b0:	7c9b      	ldrb	r3, [r3, #18]
 80045b2:	2b08      	cmp	r3, #8
 80045b4:	d902      	bls.n	80045bc <RadioSetTxGenericConfig+0x1cc>
        {
            return -1;
 80045b6:	f04f 33ff 	mov.w	r3, #4294967295	@ 0xffffffff
 80045ba:	e145      	b.n	8004848 <RadioSetTxGenericConfig+0x458>
        }
        else
        {
            RADIO_MEMCPY8( syncword, config->fsk.SyncWord, config->fsk.SyncWordLength );
 80045bc:	68bb      	ldr	r3, [r7, #8]
 80045be:	6899      	ldr	r1, [r3, #8]
 80045c0:	68bb      	ldr	r3, [r7, #8]
 80045c2:	7c9b      	ldrb	r3, [r3, #18]
 80045c4:	461a      	mov	r2, r3
 80045c6:	f107 032c 	add.w	r3, r7, #44	@ 0x2c
 80045ca:	4618      	mov	r0, r3
 80045cc:	f001 fc20 	bl	8005e10 <UTIL_MEM_cpy_8>
        }
        SubgRf.ModulationParams.PacketType = PACKET_TYPE_GFSK;
 80045d0:	4b40      	ldr	r3, [pc, #256]	@ (80046d4 <RadioSetTxGenericConfig+0x2e4>)
 80045d2:	2200      	movs	r2, #0
 80045d4:	f883 2038 	strb.w	r2, [r3, #56]	@ 0x38
        SubgRf.ModulationParams.Params.Gfsk.BitRate = config->fsk.BitRate;
 80045d8:	68bb      	ldr	r3, [r7, #8]
 80045da:	681b      	ldr	r3, [r3, #0]
 80045dc:	4a3d      	ldr	r2, [pc, #244]	@ (80046d4 <RadioSetTxGenericConfig+0x2e4>)
 80045de:	63d3      	str	r3, [r2, #60]	@ 0x3c
        SubgRf.ModulationParams.Params.Gfsk.ModulationShaping = ( RadioModShapings_t ) config->fsk.ModulationShaping;
 80045e0:	68bb      	ldr	r3, [r7, #8]
 80045e2:	7cda      	ldrb	r2, [r3, #19]
 80045e4:	4b3b      	ldr	r3, [pc, #236]	@ (80046d4 <RadioSetTxGenericConfig+0x2e4>)
 80045e6:	f883 2044 	strb.w	r2, [r3, #68]	@ 0x44
        SubgRf.ModulationParams.Params.Gfsk.Fdev = config->fsk.FrequencyDeviation;
 80045ea:	68bb      	ldr	r3, [r7, #8]
 80045ec:	699b      	ldr	r3, [r3, #24]
 80045ee:	4a39      	ldr	r2, [pc, #228]	@ (80046d4 <RadioSetTxGenericConfig+0x2e4>)
 80045f0:	6413      	str	r3, [r2, #64]	@ 0x40

        SubgRf.PacketParams.PacketType = PACKET_TYPE_GFSK;
 80045f2:	4b38      	ldr	r3, [pc, #224]	@ (80046d4 <RadioSetTxGenericConfig+0x2e4>)
 80045f4:	2200      	movs	r2, #0
 80045f6:	739a      	strb	r2, [r3, #14]
        SubgRf.PacketParams.Params.Gfsk.PreambleLength = ( config->fsk.PreambleLen ) << 3; // convert byte into bit
 80045f8:	68bb      	ldr	r3, [r7, #8]
 80045fa:	685b      	ldr	r3, [r3, #4]
 80045fc:	b29b      	uxth	r3, r3
 80045fe:	00db      	lsls	r3, r3, #3
 8004600:	b29a      	uxth	r2, r3
 8004602:	4b34      	ldr	r3, [pc, #208]	@ (80046d4 <RadioSetTxGenericConfig+0x2e4>)
 8004604:	821a      	strh	r2, [r3, #16]
        SubgRf.PacketParams.Params.Gfsk.PreambleMinDetect = RADIO_PREAMBLE_DETECTOR_08_BITS; // don't care in tx
 8004606:	4b33      	ldr	r3, [pc, #204]	@ (80046d4 <RadioSetTxGenericConfig+0x2e4>)
 8004608:	2204      	movs	r2, #4
 800460a:	749a      	strb	r2, [r3, #18]
        SubgRf.PacketParams.Params.Gfsk.SyncWordLength = ( config->fsk.SyncWordLength ) << 3; // convert byte into bit
 800460c:	68bb      	ldr	r3, [r7, #8]
 800460e:	7c9b      	ldrb	r3, [r3, #18]
 8004610:	00db      	lsls	r3, r3, #3
 8004612:	b2da      	uxtb	r2, r3
 8004614:	4b2f      	ldr	r3, [pc, #188]	@ (80046d4 <RadioSetTxGenericConfig+0x2e4>)
 8004616:	74da      	strb	r2, [r3, #19]
        SubgRf.PacketParams.Params.Gfsk.AddrComp = RADIO_ADDRESSCOMP_FILT_OFF; // don't care in tx
 8004618:	4b2e      	ldr	r3, [pc, #184]	@ (80046d4 <RadioSetTxGenericConfig+0x2e4>)
 800461a:	2200      	movs	r2, #0
 800461c:	751a      	strb	r2, [r3, #20]

        if( ( config->fsk.Whitening == RADIO_FSK_DC_IBM_WHITENING )
 800461e:	68bb      	ldr	r3, [r7, #8]
 8004620:	7d9b      	ldrb	r3, [r3, #22]
 8004622:	2b02      	cmp	r3, #2
 8004624:	d003      	beq.n	800462e <RadioSetTxGenericConfig+0x23e>
            || ( config->fsk.HeaderType == RADIO_FSK_PACKET_2BYTES_LENGTH ) )
 8004626:	68bb      	ldr	r3, [r7, #8]
 8004628:	7d1b      	ldrb	r3, [r3, #20]
 800462a:	2b02      	cmp	r3, #2
 800462c:	d12a      	bne.n	8004684 <RadioSetTxGenericConfig+0x294>
        {
            /* Supports only RADIO_FSK_CRC_2_BYTES_IBM or RADIO_FSK_CRC_2_BYTES_CCIT */
            if( ( config->fsk.CrcLength != RADIO_FSK_CRC_2_BYTES_IBM ) && ( config->fsk.CrcLength != RADIO_FSK_CRC_2_BYTES_CCIT )
 800462e:	68bb      	ldr	r3, [r7, #8]
 8004630:	7d5b      	ldrb	r3, [r3, #21]
 8004632:	2bf1      	cmp	r3, #241	@ 0xf1
 8004634:	d00a      	beq.n	800464c <RadioSetTxGenericConfig+0x25c>
 8004636:	68bb      	ldr	r3, [r7, #8]
 8004638:	7d5b      	ldrb	r3, [r3, #21]
 800463a:	2bf2      	cmp	r3, #242	@ 0xf2
 800463c:	d006      	beq.n	800464c <RadioSetTxGenericConfig+0x25c>
                && ( config->fsk.CrcLength != RADIO_FSK_CRC_OFF ) )
 800463e:	68bb      	ldr	r3, [r7, #8]
 8004640:	7d5b      	ldrb	r3, [r3, #21]
 8004642:	2b01      	cmp	r3, #1
 8004644:	d002      	beq.n	800464c <RadioSetTxGenericConfig+0x25c>
            {
                return -1;
 8004646:	f04f 33ff 	mov.w	r3, #4294967295	@ 0xffffffff
 800464a:	e0fd      	b.n	8004848 <RadioSetTxGenericConfig+0x458>
            }
            ConfigGeneric_t ConfigGeneric;
            ConfigGeneric.rtx = CONFIG_TX;
 800464c:	2301      	movs	r3, #1
 800464e:	773b      	strb	r3, [r7, #28]
            ConfigGeneric.TxConfig = config;
 8004650:	68bb      	ldr	r3, [r7, #8]
 8004652:	617b      	str	r3, [r7, #20]
            if( 0UL != RFW_Init( &ConfigGeneric, RadioEvents, &TxTimeoutTimer ) )
 8004654:	4b20      	ldr	r3, [pc, #128]	@ (80046d8 <RadioSetTxGenericConfig+0x2e8>)
 8004656:	6819      	ldr	r1, [r3, #0]
 8004658:	f107 0314 	add.w	r3, r7, #20
 800465c:	4a1f      	ldr	r2, [pc, #124]	@ (80046dc <RadioSetTxGenericConfig+0x2ec>)
 800465e:	4618      	mov	r0, r3
 8004660:	f001 fa7c 	bl	8005b5c <RFW_Init>
 8004664:	4603      	mov	r3, r0
 8004666:	2b00      	cmp	r3, #0
 8004668:	d002      	beq.n	8004670 <RadioSetTxGenericConfig+0x280>
            {
                return -1;
 800466a:	f04f 33ff 	mov.w	r3, #4294967295	@ 0xffffffff
 800466e:	e0eb      	b.n	8004848 <RadioSetTxGenericConfig+0x458>
            }
            /* whitening off, will be processed by FW, switch off built-in radio whitening */
            SubgRf.PacketParams.Params.Gfsk.DcFree = ( RadioDcFree_t ) RADIO_FSK_DC_FREE_OFF;
 8004670:	4b18      	ldr	r3, [pc, #96]	@ (80046d4 <RadioSetTxGenericConfig+0x2e4>)
 8004672:	2200      	movs	r2, #0
 8004674:	761a      	strb	r2, [r3, #24]
            /* Crc processed by FW, switch off built-in radio Crc */
            SubgRf.PacketParams.Params.Gfsk.CrcLength = ( RadioCrcTypes_t ) RADIO_CRC_OFF;
 8004676:	4b17      	ldr	r3, [pc, #92]	@ (80046d4 <RadioSetTxGenericConfig+0x2e4>)
 8004678:	2201      	movs	r2, #1
 800467a:	75da      	strb	r2, [r3, #23]
            /* length contained in Tx, but will be processed by FW after de-whitening */
            SubgRf.PacketParams.Params.Gfsk.HeaderType = ( RadioPacketLengthModes_t ) RADIO_PACKET_FIXED_LENGTH;
 800467c:	4b15      	ldr	r3, [pc, #84]	@ (80046d4 <RadioSetTxGenericConfig+0x2e4>)
 800467e:	2200      	movs	r2, #0
 8004680:	755a      	strb	r2, [r3, #21]
        {
 8004682:	e00b      	b.n	800469c <RadioSetTxGenericConfig+0x2ac>
        }
        else
        {
            SubgRf.PacketParams.Params.Gfsk.CrcLength = ( RadioCrcTypes_t ) config->fsk.CrcLength;
 8004684:	68bb      	ldr	r3, [r7, #8]
 8004686:	7d5a      	ldrb	r2, [r3, #21]
 8004688:	4b12      	ldr	r3, [pc, #72]	@ (80046d4 <RadioSetTxGenericConfig+0x2e4>)
 800468a:	75da      	strb	r2, [r3, #23]
            SubgRf.PacketParams.Params.Gfsk.DcFree = ( RadioDcFree_t ) config->fsk.Whitening;
 800468c:	68bb      	ldr	r3, [r7, #8]
 800468e:	7d9a      	ldrb	r2, [r3, #22]
 8004690:	4b10      	ldr	r3, [pc, #64]	@ (80046d4 <RadioSetTxGenericConfig+0x2e4>)
 8004692:	761a      	strb	r2, [r3, #24]
            SubgRf.PacketParams.Params.Gfsk.HeaderType = ( RadioPacketLengthModes_t ) config->fsk.HeaderType;
 8004694:	68bb      	ldr	r3, [r7, #8]
 8004696:	7d1a      	ldrb	r2, [r3, #20]
 8004698:	4b0e      	ldr	r3, [pc, #56]	@ (80046d4 <RadioSetTxGenericConfig+0x2e4>)
 800469a:	755a      	strb	r2, [r3, #21]
        }

        RadioStandby( );
 800469c:	f7ff f82d 	bl	80036fa <RadioStandby>
        RadioSetModem( MODEM_FSK );
 80046a0:	2000      	movs	r0, #0
 80046a2:	f7fe f9c9 	bl	8002a38 <RadioSetModem>
        SUBGRF_SetModulationParams( &SubgRf.ModulationParams );
 80046a6:	480e      	ldr	r0, [pc, #56]	@ (80046e0 <RadioSetTxGenericConfig+0x2f0>)
 80046a8:	f000 fdec 	bl	8005284 <SUBGRF_SetModulationParams>
        SUBGRF_SetPacketParams( &SubgRf.PacketParams );
 80046ac:	480d      	ldr	r0, [pc, #52]	@ (80046e4 <RadioSetTxGenericConfig+0x2f4>)
 80046ae:	f000 febb 	bl	8005428 <SUBGRF_SetPacketParams>
        SUBGRF_SetSyncWord( syncword );
 80046b2:	f107 032c 	add.w	r3, r7, #44	@ 0x2c
 80046b6:	4618      	mov	r0, r3
 80046b8:	f000 f97f 	bl	80049ba <SUBGRF_SetSyncWord>
        SUBGRF_SetWhiteningSeed( config->fsk.whiteSeed );
 80046bc:	68bb      	ldr	r3, [r7, #8]
 80046be:	8a1b      	ldrh	r3, [r3, #16]
 80046c0:	4618      	mov	r0, r3
 80046c2:	f000 f9c9 	bl	8004a58 <SUBGRF_SetWhiteningSeed>
        SUBGRF_SetCrcPolynomial( config->fsk.CrcPolynomial );
 80046c6:	68bb      	ldr	r3, [r7, #8]
 80046c8:	899b      	ldrh	r3, [r3, #12]
 80046ca:	4618      	mov	r0, r3
 80046cc:	f000 f9a4 	bl	8004a18 <SUBGRF_SetCrcPolynomial>
        break;
 80046d0:	e0a6      	b.n	8004820 <RadioSetTxGenericConfig+0x430>
 80046d2:	bf00      	nop
 80046d4:	200001a4 	.word	0x200001a4
 80046d8:	200001a0 	.word	0x200001a0
 80046dc:	20000200 	.word	0x20000200
 80046e0:	200001dc 	.word	0x200001dc
 80046e4:	200001b2 	.word	0x200001b2
    case GENERIC_LORA:
        SubgRf.ModulationParams.PacketType = PACKET_TYPE_LORA;
 80046e8:	4b59      	ldr	r3, [pc, #356]	@ (8004850 <RadioSetTxGenericConfig+0x460>)
 80046ea:	2201      	movs	r2, #1
 80046ec:	f883 2038 	strb.w	r2, [r3, #56]	@ 0x38
        SubgRf.ModulationParams.Params.LoRa.SpreadingFactor = ( RadioLoRaSpreadingFactors_t ) config->lora.SpreadingFactor;
 80046f0:	68bb      	ldr	r3, [r7, #8]
 80046f2:	781a      	ldrb	r2, [r3, #0]
 80046f4:	4b56      	ldr	r3, [pc, #344]	@ (8004850 <RadioSetTxGenericConfig+0x460>)
 80046f6:	f883 2050 	strb.w	r2, [r3, #80]	@ 0x50
        SubgRf.ModulationParams.Params.LoRa.Bandwidth = ( RadioLoRaBandwidths_t ) config->lora.Bandwidth;
 80046fa:	68bb      	ldr	r3, [r7, #8]
 80046fc:	785a      	ldrb	r2, [r3, #1]
 80046fe:	4b54      	ldr	r3, [pc, #336]	@ (8004850 <RadioSetTxGenericConfig+0x460>)
 8004700:	f883 2051 	strb.w	r2, [r3, #81]	@ 0x51
        SubgRf.ModulationParams.Params.LoRa.CodingRate = ( RadioLoRaCodingRates_t ) config->lora.Coderate;
 8004704:	68bb      	ldr	r3, [r7, #8]
 8004706:	789a      	ldrb	r2, [r3, #2]
 8004708:	4b51      	ldr	r3, [pc, #324]	@ (8004850 <RadioSetTxGenericConfig+0x460>)
 800470a:	f883 2052 	strb.w	r2, [r3, #82]	@ 0x52
        switch( config->lora.LowDatarateOptimize )
 800470e:	68bb      	ldr	r3, [r7, #8]
 8004710:	78db      	ldrb	r3, [r3, #3]
 8004712:	2b02      	cmp	r3, #2
 8004714:	d010      	beq.n	8004738 <RadioSetTxGenericConfig+0x348>
 8004716:	2b02      	cmp	r3, #2
 8004718:	dc20      	bgt.n	800475c <RadioSetTxGenericConfig+0x36c>
 800471a:	2b00      	cmp	r3, #0
 800471c:	d002      	beq.n	8004724 <RadioSetTxGenericConfig+0x334>
 800471e:	2b01      	cmp	r3, #1
 8004720:	d005      	beq.n	800472e <RadioSetTxGenericConfig+0x33e>
            {
                SubgRf.ModulationParams.Params.LoRa.LowDatarateOptimize = 0;
            }
            break;
        default:
            break;
 8004722:	e01b      	b.n	800475c <RadioSetTxGenericConfig+0x36c>
            SubgRf.ModulationParams.Params.LoRa.LowDatarateOptimize = 0;
 8004724:	4b4a      	ldr	r3, [pc, #296]	@ (8004850 <RadioSetTxGenericConfig+0x460>)
 8004726:	2200      	movs	r2, #0
 8004728:	f883 2053 	strb.w	r2, [r3, #83]	@ 0x53
            break;
 800472c:	e017      	b.n	800475e <RadioSetTxGenericConfig+0x36e>
            SubgRf.ModulationParams.Params.LoRa.LowDatarateOptimize = 1;
 800472e:	4b48      	ldr	r3, [pc, #288]	@ (8004850 <RadioSetTxGenericConfig+0x460>)
 8004730:	2201      	movs	r2, #1
 8004732:	f883 2053 	strb.w	r2, [r3, #83]	@ 0x53
            break;
 8004736:	e012      	b.n	800475e <RadioSetTxGenericConfig+0x36e>
            if( ( config->lora.SpreadingFactor == RADIO_LORA_SF11 ) || ( config->lora.SpreadingFactor == RADIO_LORA_SF12 ) )
 8004738:	68bb      	ldr	r3, [r7, #8]
 800473a:	781b      	ldrb	r3, [r3, #0]
 800473c:	2b0b      	cmp	r3, #11
 800473e:	d003      	beq.n	8004748 <RadioSetTxGenericConfig+0x358>
 8004740:	68bb      	ldr	r3, [r7, #8]
 8004742:	781b      	ldrb	r3, [r3, #0]
 8004744:	2b0c      	cmp	r3, #12
 8004746:	d104      	bne.n	8004752 <RadioSetTxGenericConfig+0x362>
                SubgRf.ModulationParams.Params.LoRa.LowDatarateOptimize = 1;
 8004748:	4b41      	ldr	r3, [pc, #260]	@ (8004850 <RadioSetTxGenericConfig+0x460>)
 800474a:	2201      	movs	r2, #1
 800474c:	f883 2053 	strb.w	r2, [r3, #83]	@ 0x53
            break;
 8004750:	e005      	b.n	800475e <RadioSetTxGenericConfig+0x36e>
                SubgRf.ModulationParams.Params.LoRa.LowDatarateOptimize = 0;
 8004752:	4b3f      	ldr	r3, [pc, #252]	@ (8004850 <RadioSetTxGenericConfig+0x460>)
 8004754:	2200      	movs	r2, #0
 8004756:	f883 2053 	strb.w	r2, [r3, #83]	@ 0x53
            break;
 800475a:	e000      	b.n	800475e <RadioSetTxGenericConfig+0x36e>
            break;
 800475c:	bf00      	nop
        }

        SubgRf.PacketParams.PacketType = PACKET_TYPE_LORA;
 800475e:	4b3c      	ldr	r3, [pc, #240]	@ (8004850 <RadioSetTxGenericConfig+0x460>)
 8004760:	2201      	movs	r2, #1
 8004762:	739a      	strb	r2, [r3, #14]
        SubgRf.PacketParams.Params.LoRa.PreambleLength = config->lora.PreambleLen;
 8004764:	68bb      	ldr	r3, [r7, #8]
 8004766:	889a      	ldrh	r2, [r3, #4]
 8004768:	4b39      	ldr	r3, [pc, #228]	@ (8004850 <RadioSetTxGenericConfig+0x460>)
 800476a:	839a      	strh	r2, [r3, #28]
        SubgRf.PacketParams.Params.LoRa.HeaderType = ( RadioLoRaPacketLengthsMode_t ) config->lora.LengthMode;
 800476c:	68bb      	ldr	r3, [r7, #8]
 800476e:	799a      	ldrb	r2, [r3, #6]
 8004770:	4b37      	ldr	r3, [pc, #220]	@ (8004850 <RadioSetTxGenericConfig+0x460>)
 8004772:	779a      	strb	r2, [r3, #30]
        SubgRf.PacketParams.Params.LoRa.CrcMode = ( RadioLoRaCrcModes_t ) config->lora.CrcMode;
 8004774:	68bb      	ldr	r3, [r7, #8]
 8004776:	79da      	ldrb	r2, [r3, #7]
 8004778:	4b35      	ldr	r3, [pc, #212]	@ (8004850 <RadioSetTxGenericConfig+0x460>)
 800477a:	f883 2020 	strb.w	r2, [r3, #32]
        SubgRf.PacketParams.Params.LoRa.InvertIQ = ( RadioLoRaIQModes_t ) config->lora.IqInverted;
 800477e:	68bb      	ldr	r3, [r7, #8]
 8004780:	7a1a      	ldrb	r2, [r3, #8]
 8004782:	4b33      	ldr	r3, [pc, #204]	@ (8004850 <RadioSetTxGenericConfig+0x460>)
 8004784:	f883 2021 	strb.w	r2, [r3, #33]	@ 0x21

        RadioStandby( );
 8004788:	f7fe ffb7 	bl	80036fa <RadioStandby>
        RadioSetModem( MODEM_LORA );
 800478c:	2001      	movs	r0, #1
 800478e:	f7fe f953 	bl	8002a38 <RadioSetModem>
        SUBGRF_SetModulationParams( &SubgRf.ModulationParams );
 8004792:	4830      	ldr	r0, [pc, #192]	@ (8004854 <RadioSetTxGenericConfig+0x464>)
 8004794:	f000 fd76 	bl	8005284 <SUBGRF_SetModulationParams>
        SUBGRF_SetPacketParams( &SubgRf.PacketParams );
 8004798:	482f      	ldr	r0, [pc, #188]	@ (8004858 <RadioSetTxGenericConfig+0x468>)
 800479a:	f000 fe45 	bl	8005428 <SUBGRF_SetPacketParams>

        /* WORKAROUND - Modulation Quality with 500 kHz LoRa Bandwidth, see STM32WL Erratasheet */
        if( SubgRf.ModulationParams.Params.LoRa.Bandwidth == LORA_BW_500 )
 800479e:	4b2c      	ldr	r3, [pc, #176]	@ (8004850 <RadioSetTxGenericConfig+0x460>)
 80047a0:	f893 3051 	ldrb.w	r3, [r3, #81]	@ 0x51
 80047a4:	2b06      	cmp	r3, #6
 80047a6:	d10d      	bne.n	80047c4 <RadioSetTxGenericConfig+0x3d4>
        {
            // RegTxModulation = @address 0x0889
            SUBGRF_WriteRegister( SUBGHZ_SDCFG0R, SUBGRF_ReadRegister( SUBGHZ_SDCFG0R ) & ~( 1 << 2 ) );
 80047a8:	f640 0089 	movw	r0, #2185	@ 0x889
 80047ac:	f000 ffa6 	bl	80056fc <SUBGRF_ReadRegister>
 80047b0:	4603      	mov	r3, r0
 80047b2:	f023 0304 	bic.w	r3, r3, #4
 80047b6:	b2db      	uxtb	r3, r3
 80047b8:	4619      	mov	r1, r3
 80047ba:	f640 0089 	movw	r0, #2185	@ 0x889
 80047be:	f000 ff7b 	bl	80056b8 <SUBGRF_WriteRegister>
        {
            // RegTxModulation = @address 0x0889
            SUBGRF_WriteRegister( SUBGHZ_SDCFG0R, SUBGRF_ReadRegister( SUBGHZ_SDCFG0R ) | ( 1 << 2 ) );
        }
        /* WORKAROUND END */
        break;
 80047c2:	e02d      	b.n	8004820 <RadioSetTxGenericConfig+0x430>
            SUBGRF_WriteRegister( SUBGHZ_SDCFG0R, SUBGRF_ReadRegister( SUBGHZ_SDCFG0R ) | ( 1 << 2 ) );
 80047c4:	f640 0089 	movw	r0, #2185	@ 0x889
 80047c8:	f000 ff98 	bl	80056fc <SUBGRF_ReadRegister>
 80047cc:	4603      	mov	r3, r0
 80047ce:	f043 0304 	orr.w	r3, r3, #4
 80047d2:	b2db      	uxtb	r3, r3
 80047d4:	4619      	mov	r1, r3
 80047d6:	f640 0089 	movw	r0, #2185	@ 0x889
 80047da:	f000 ff6d 	bl	80056b8 <SUBGRF_WriteRegister>
        break;
 80047de:	e01f      	b.n	8004820 <RadioSetTxGenericConfig+0x430>
    case GENERIC_BPSK:
        if( ( config->bpsk.BitRate == 0 ) || ( config->bpsk.BitRate > 1000 ) )
 80047e0:	68bb      	ldr	r3, [r7, #8]
 80047e2:	681b      	ldr	r3, [r3, #0]
 80047e4:	2b00      	cmp	r3, #0
 80047e6:	d004      	beq.n	80047f2 <RadioSetTxGenericConfig+0x402>
 80047e8:	68bb      	ldr	r3, [r7, #8]
 80047ea:	681b      	ldr	r3, [r3, #0]
 80047ec:	f5b3 7f7a 	cmp.w	r3, #1000	@ 0x3e8
 80047f0:	d902      	bls.n	80047f8 <RadioSetTxGenericConfig+0x408>
        {
            return -1;
 80047f2:	f04f 33ff 	mov.w	r3, #4294967295	@ 0xffffffff
 80047f6:	e027      	b.n	8004848 <RadioSetTxGenericConfig+0x458>
        }
        RadioSetModem( MODEM_BPSK );
 80047f8:	2003      	movs	r0, #3
 80047fa:	f7fe f91d 	bl	8002a38 <RadioSetModem>
        SubgRf.ModulationParams.PacketType = PACKET_TYPE_BPSK;
 80047fe:	4b14      	ldr	r3, [pc, #80]	@ (8004850 <RadioSetTxGenericConfig+0x460>)
 8004800:	2202      	movs	r2, #2
 8004802:	f883 2038 	strb.w	r2, [r3, #56]	@ 0x38
        SubgRf.ModulationParams.Params.Bpsk.BitRate = config->bpsk.BitRate;
 8004806:	68bb      	ldr	r3, [r7, #8]
 8004808:	681b      	ldr	r3, [r3, #0]
 800480a:	4a11      	ldr	r2, [pc, #68]	@ (8004850 <RadioSetTxGenericConfig+0x460>)
 800480c:	6493      	str	r3, [r2, #72]	@ 0x48
        SubgRf.ModulationParams.Params.Bpsk.ModulationShaping = MOD_SHAPING_DBPSK;
 800480e:	4b10      	ldr	r3, [pc, #64]	@ (8004850 <RadioSetTxGenericConfig+0x460>)
 8004810:	2216      	movs	r2, #22
 8004812:	f883 204c 	strb.w	r2, [r3, #76]	@ 0x4c
        SUBGRF_SetModulationParams( &SubgRf.ModulationParams );
 8004816:	480f      	ldr	r0, [pc, #60]	@ (8004854 <RadioSetTxGenericConfig+0x464>)
 8004818:	f000 fd34 	bl	8005284 <SUBGRF_SetModulationParams>
        break;
 800481c:	e000      	b.n	8004820 <RadioSetTxGenericConfig+0x430>
    default:
        break;
 800481e:	bf00      	nop
    }

    SubgRf.AntSwitchPaSelect = SUBGRF_SetRfTxPower( power );
 8004820:	f997 300e 	ldrsb.w	r3, [r7, #14]
 8004824:	4618      	mov	r0, r3
 8004826:	f001 f87d 	bl	8005924 <SUBGRF_SetRfTxPower>
 800482a:	4603      	mov	r3, r0
 800482c:	461a      	mov	r2, r3
 800482e:	4b08      	ldr	r3, [pc, #32]	@ (8004850 <RadioSetTxGenericConfig+0x460>)
 8004830:	f883 2056 	strb.w	r2, [r3, #86]	@ 0x56
    RFW_SetAntSwitch( SubgRf.AntSwitchPaSelect );
 8004834:	4b06      	ldr	r3, [pc, #24]	@ (8004850 <RadioSetTxGenericConfig+0x460>)
 8004836:	f893 3056 	ldrb.w	r3, [r3, #86]	@ 0x56
 800483a:	4618      	mov	r0, r3
 800483c:	f001 f9af 	bl	8005b9e <RFW_SetAntSwitch>
    SubgRf.TxTimeout = timeout;
 8004840:	4a03      	ldr	r2, [pc, #12]	@ (8004850 <RadioSetTxGenericConfig+0x460>)
 8004842:	687b      	ldr	r3, [r7, #4]
 8004844:	6053      	str	r3, [r2, #4]
    return 0;
 8004846:	2300      	movs	r3, #0
#else /* RADIO_GENERIC_CONFIG_ENABLE == 1*/
    return -1;
#endif /* RADIO_GENERIC_CONFIG_ENABLE == 0*/
}
 8004848:	4618      	mov	r0, r3
 800484a:	3738      	adds	r7, #56	@ 0x38
 800484c:	46bd      	mov	sp, r7
 800484e:	bd80      	pop	{r7, pc}
 8004850:	200001a4 	.word	0x200001a4
 8004854:	200001dc 	.word	0x200001dc
 8004858:	200001b2 	.word	0x200001b2

0800485c <RadioLrFhssSetCfg>:
    return ( prbs31_val - 1 ) % ( max );
}
#endif /* RADIO_LR_FHSS_IS_ON == 1 */

static radio_status_t RadioLrFhssSetCfg( const radio_lr_fhss_cfg_params_t *cfg_params )
{
 800485c:	b480      	push	{r7}
 800485e:	b085      	sub	sp, #20
 8004860:	af00      	add	r7, sp, #0
 8004862:	6078      	str	r0, [r7, #4]
    radio_status_t status = RADIO_STATUS_UNSUPPORTED_FEATURE;
 8004864:	2301      	movs	r3, #1
 8004866:	73fb      	strb	r3, [r7, #15]
    {
        return status;
    }
    SubgRf.lr_fhss.is_lr_fhss_on = true;
#endif /* RADIO_LR_FHSS_IS_ON == 1 */
    return  status;
 8004868:	7bfb      	ldrb	r3, [r7, #15]
}
 800486a:	4618      	mov	r0, r3
 800486c:	3714      	adds	r7, #20
 800486e:	46bd      	mov	sp, r7
 8004870:	bc80      	pop	{r7}
 8004872:	4770      	bx	lr

08004874 <RadioLrFhssGetTimeOnAirInMs>:

static radio_status_t RadioLrFhssGetTimeOnAirInMs( const radio_lr_fhss_time_on_air_params_t *params,
                                                    uint32_t *time_on_air_in_ms )
{
 8004874:	b480      	push	{r7}
 8004876:	b083      	sub	sp, #12
 8004878:	af00      	add	r7, sp, #0
 800487a:	6078      	str	r0, [r7, #4]
 800487c:	6039      	str	r1, [r7, #0]
    *time_on_air_in_ms = lr_fhss_get_time_on_air_in_ms( &params->radio_lr_fhss_params.lr_fhss_params,
                                                        params->pld_len_in_bytes );

    return RADIO_STATUS_OK;
#else
    return RADIO_STATUS_UNSUPPORTED_FEATURE;
 800487e:	2301      	movs	r3, #1
#endif /* RADIO_LR_FHSS_IS_ON */
 8004880:	4618      	mov	r0, r3
 8004882:	370c      	adds	r7, #12
 8004884:	46bd      	mov	sp, r7
 8004886:	bc80      	pop	{r7}
 8004888:	4770      	bx	lr
	...

0800488c <SUBGRF_Init>:
 */
static DioIrqHandler RadioOnDioIrqCb;

/* Exported functions ---------------------------------------------------------*/
void SUBGRF_Init( DioIrqHandler dioIrq )
{
 800488c:	b580      	push	{r7, lr}
 800488e:	b084      	sub	sp, #16
 8004890:	af00      	add	r7, sp, #0
 8004892:	6078      	str	r0, [r7, #4]
    if ( dioIrq != NULL)
 8004894:	687b      	ldr	r3, [r7, #4]
 8004896:	2b00      	cmp	r3, #0
 8004898:	d002      	beq.n	80048a0 <SUBGRF_Init+0x14>
    {
        RadioOnDioIrqCb = dioIrq;
 800489a:	4a1d      	ldr	r2, [pc, #116]	@ (8004910 <SUBGRF_Init+0x84>)
 800489c:	687b      	ldr	r3, [r7, #4]
 800489e:	6013      	str	r3, [r2, #0]
    }

    RADIO_INIT();
 80048a0:	f7fb feb2 	bl	8000608 <MX_SUBGHZ_Init>

    /* set default SMPS current drive to default*/
    Radio_SMPS_Set(SMPS_DRIVE_SETTING_DEFAULT);
 80048a4:	2002      	movs	r0, #2
 80048a6:	f001 f878 	bl	800599a <Radio_SMPS_Set>

    ImageCalibrated = false;
 80048aa:	4b1a      	ldr	r3, [pc, #104]	@ (8004914 <SUBGRF_Init+0x88>)
 80048ac:	2200      	movs	r2, #0
 80048ae:	701a      	strb	r2, [r3, #0]

    SUBGRF_SetStandby( STDBY_RC );
 80048b0:	2000      	movs	r0, #0
 80048b2:	f000 f97d 	bl	8004bb0 <SUBGRF_SetStandby>

    // Initialize TCXO control
    if (1U == RBI_IsTCXO() )
 80048b6:	f001 fa80 	bl	8005dba <RBI_IsTCXO>
 80048ba:	4603      	mov	r3, r0
 80048bc:	2b01      	cmp	r3, #1
 80048be:	d10e      	bne.n	80048de <SUBGRF_Init+0x52>
    {
        SUBGRF_SetTcxoMode( TCXO_CTRL_VOLTAGE, RF_WAKEUP_TIME << 6 );// 100 ms
 80048c0:	2140      	movs	r1, #64	@ 0x40
 80048c2:	2001      	movs	r0, #1
 80048c4:	f000 fb82 	bl	8004fcc <SUBGRF_SetTcxoMode>
        SUBGRF_WriteRegister( REG_XTA_TRIM, 0x00 );
 80048c8:	2100      	movs	r1, #0
 80048ca:	f640 1011 	movw	r0, #2321	@ 0x911
 80048ce:	f000 fef3 	bl	80056b8 <SUBGRF_WriteRegister>

        /*enable calibration for cut1.1 and later*/
        CalibrationParams_t calibParam;
        calibParam.Value = 0x7F;
 80048d2:	237f      	movs	r3, #127	@ 0x7f
 80048d4:	733b      	strb	r3, [r7, #12]
        SUBGRF_Calibrate( calibParam );
 80048d6:	7b38      	ldrb	r0, [r7, #12]
 80048d8:	f000 fa8b 	bl	8004df2 <SUBGRF_Calibrate>
 80048dc:	e009      	b.n	80048f2 <SUBGRF_Init+0x66>
    }
    else
    {
        SUBGRF_WriteRegister( REG_XTA_TRIM, XTAL_DEFAULT_CAP_VALUE );
 80048de:	2120      	movs	r1, #32
 80048e0:	f640 1011 	movw	r0, #2321	@ 0x911
 80048e4:	f000 fee8 	bl	80056b8 <SUBGRF_WriteRegister>
        SUBGRF_WriteRegister( REG_XTB_TRIM, XTAL_DEFAULT_CAP_VALUE );
 80048e8:	2120      	movs	r1, #32
 80048ea:	f640 1012 	movw	r0, #2322	@ 0x912
 80048ee:	f000 fee3 	bl	80056b8 <SUBGRF_WriteRegister>
    }

    /* WORKAROUND - Trimming the output voltage power_ldo to 3.3V */
    SUBGRF_WriteRegister(REG_DRV_CTRL, 0x7 << 1);
 80048f2:	210e      	movs	r1, #14
 80048f4:	f640 101f 	movw	r0, #2335	@ 0x91f
 80048f8:	f000 fede 	bl	80056b8 <SUBGRF_WriteRegister>

    /* Init RF Switch */
    RBI_Init();
 80048fc:	f001 fa3a 	bl	8005d74 <RBI_Init>

    OperatingMode = MODE_STDBY_RC;
 8004900:	4b05      	ldr	r3, [pc, #20]	@ (8004918 <SUBGRF_Init+0x8c>)
 8004902:	2201      	movs	r2, #1
 8004904:	701a      	strb	r2, [r3, #0]
}
 8004906:	bf00      	nop
 8004908:	3710      	adds	r7, #16
 800490a:	46bd      	mov	sp, r7
 800490c:	bd80      	pop	{r7, pc}
 800490e:	bf00      	nop
 8004910:	2000023c 	.word	0x2000023c
 8004914:	20000238 	.word	0x20000238
 8004918:	20000230 	.word	0x20000230

0800491c <SUBGRF_GetOperatingMode>:

RadioOperatingModes_t SUBGRF_GetOperatingMode( void )
{
 800491c:	b480      	push	{r7}
 800491e:	af00      	add	r7, sp, #0
    return OperatingMode;
 8004920:	4b02      	ldr	r3, [pc, #8]	@ (800492c <SUBGRF_GetOperatingMode+0x10>)
 8004922:	781b      	ldrb	r3, [r3, #0]
}
 8004924:	4618      	mov	r0, r3
 8004926:	46bd      	mov	sp, r7
 8004928:	bc80      	pop	{r7}
 800492a:	4770      	bx	lr
 800492c:	20000230 	.word	0x20000230

08004930 <SUBGRF_SetPayload>:

void SUBGRF_SetPayload( uint8_t *payload, uint8_t size )
{
 8004930:	b580      	push	{r7, lr}
 8004932:	b082      	sub	sp, #8
 8004934:	af00      	add	r7, sp, #0
 8004936:	6078      	str	r0, [r7, #4]
 8004938:	460b      	mov	r3, r1
 800493a:	70fb      	strb	r3, [r7, #3]
    SUBGRF_WriteBuffer( 0x00, payload, size );
 800493c:	78fb      	ldrb	r3, [r7, #3]
 800493e:	461a      	mov	r2, r3
 8004940:	6879      	ldr	r1, [r7, #4]
 8004942:	2000      	movs	r0, #0
 8004944:	f000 ff3e 	bl	80057c4 <SUBGRF_WriteBuffer>
}
 8004948:	bf00      	nop
 800494a:	3708      	adds	r7, #8
 800494c:	46bd      	mov	sp, r7
 800494e:	bd80      	pop	{r7, pc}

08004950 <SUBGRF_GetPayload>:

uint8_t SUBGRF_GetPayload( uint8_t *buffer, uint8_t *size,  uint8_t maxSize )
{
 8004950:	b580      	push	{r7, lr}
 8004952:	b086      	sub	sp, #24
 8004954:	af00      	add	r7, sp, #0
 8004956:	60f8      	str	r0, [r7, #12]
 8004958:	60b9      	str	r1, [r7, #8]
 800495a:	4613      	mov	r3, r2
 800495c:	71fb      	strb	r3, [r7, #7]
    uint8_t offset = 0;
 800495e:	2300      	movs	r3, #0
 8004960:	75fb      	strb	r3, [r7, #23]

    SUBGRF_GetRxBufferStatus( size, &offset );
 8004962:	f107 0317 	add.w	r3, r7, #23
 8004966:	4619      	mov	r1, r3
 8004968:	68b8      	ldr	r0, [r7, #8]
 800496a:	f000 fe27 	bl	80055bc <SUBGRF_GetRxBufferStatus>
    if( *size > maxSize )
 800496e:	68bb      	ldr	r3, [r7, #8]
 8004970:	781b      	ldrb	r3, [r3, #0]
 8004972:	79fa      	ldrb	r2, [r7, #7]
 8004974:	429a      	cmp	r2, r3
 8004976:	d201      	bcs.n	800497c <SUBGRF_GetPayload+0x2c>
    {
        return 1;
 8004978:	2301      	movs	r3, #1
 800497a:	e007      	b.n	800498c <SUBGRF_GetPayload+0x3c>
    }
    SUBGRF_ReadBuffer( offset, buffer, *size );
 800497c:	7df8      	ldrb	r0, [r7, #23]
 800497e:	68bb      	ldr	r3, [r7, #8]
 8004980:	781b      	ldrb	r3, [r3, #0]
 8004982:	461a      	mov	r2, r3
 8004984:	68f9      	ldr	r1, [r7, #12]
 8004986:	f000 ff3f 	bl	8005808 <SUBGRF_ReadBuffer>

    return 0;
 800498a:	2300      	movs	r3, #0
}
 800498c:	4618      	mov	r0, r3
 800498e:	3718      	adds	r7, #24
 8004990:	46bd      	mov	sp, r7
 8004992:	bd80      	pop	{r7, pc}

08004994 <SUBGRF_SendPayload>:

void SUBGRF_SendPayload( uint8_t *payload, uint8_t size, uint32_t timeout)
{
 8004994:	b580      	push	{r7, lr}
 8004996:	b084      	sub	sp, #16
 8004998:	af00      	add	r7, sp, #0
 800499a:	60f8      	str	r0, [r7, #12]
 800499c:	460b      	mov	r3, r1
 800499e:	607a      	str	r2, [r7, #4]
 80049a0:	72fb      	strb	r3, [r7, #11]
    SUBGRF_SetPayload( payload, size );
 80049a2:	7afb      	ldrb	r3, [r7, #11]
 80049a4:	4619      	mov	r1, r3
 80049a6:	68f8      	ldr	r0, [r7, #12]
 80049a8:	f7ff ffc2 	bl	8004930 <SUBGRF_SetPayload>
    SUBGRF_SetTx( timeout );
 80049ac:	6878      	ldr	r0, [r7, #4]
 80049ae:	f000 f91b 	bl	8004be8 <SUBGRF_SetTx>
}
 80049b2:	bf00      	nop
 80049b4:	3710      	adds	r7, #16
 80049b6:	46bd      	mov	sp, r7
 80049b8:	bd80      	pop	{r7, pc}

080049ba <SUBGRF_SetSyncWord>:

uint8_t SUBGRF_SetSyncWord( uint8_t *syncWord )
{
 80049ba:	b580      	push	{r7, lr}
 80049bc:	b082      	sub	sp, #8
 80049be:	af00      	add	r7, sp, #0
 80049c0:	6078      	str	r0, [r7, #4]
    SUBGRF_WriteRegisters( REG_LR_SYNCWORDBASEADDRESS, syncWord, 8 );
 80049c2:	2208      	movs	r2, #8
 80049c4:	6879      	ldr	r1, [r7, #4]
 80049c6:	f44f 60d8 	mov.w	r0, #1728	@ 0x6c0
 80049ca:	f000 feb7 	bl	800573c <SUBGRF_WriteRegisters>
    return 0;
 80049ce:	2300      	movs	r3, #0
}
 80049d0:	4618      	mov	r0, r3
 80049d2:	3708      	adds	r7, #8
 80049d4:	46bd      	mov	sp, r7
 80049d6:	bd80      	pop	{r7, pc}

080049d8 <SUBGRF_SetCrcSeed>:

void SUBGRF_SetCrcSeed( uint16_t seed )
{
 80049d8:	b580      	push	{r7, lr}
 80049da:	b084      	sub	sp, #16
 80049dc:	af00      	add	r7, sp, #0
 80049de:	4603      	mov	r3, r0
 80049e0:	80fb      	strh	r3, [r7, #6]
    uint8_t buf[2];

    buf[0] = ( uint8_t )( ( seed >> 8 ) & 0xFF );
 80049e2:	88fb      	ldrh	r3, [r7, #6]
 80049e4:	0a1b      	lsrs	r3, r3, #8
 80049e6:	b29b      	uxth	r3, r3
 80049e8:	b2db      	uxtb	r3, r3
 80049ea:	733b      	strb	r3, [r7, #12]
    buf[1] = ( uint8_t )( seed & 0xFF );
 80049ec:	88fb      	ldrh	r3, [r7, #6]
 80049ee:	b2db      	uxtb	r3, r3
 80049f0:	737b      	strb	r3, [r7, #13]

    switch( SUBGRF_GetPacketType( ) )
 80049f2:	f000 fb6f 	bl	80050d4 <SUBGRF_GetPacketType>
 80049f6:	4603      	mov	r3, r0
 80049f8:	2b00      	cmp	r3, #0
 80049fa:	d108      	bne.n	8004a0e <SUBGRF_SetCrcSeed+0x36>
    {
        case PACKET_TYPE_GFSK:
            SUBGRF_WriteRegisters( REG_LR_CRCSEEDBASEADDR, buf, 2 );
 80049fc:	f107 030c 	add.w	r3, r7, #12
 8004a00:	2202      	movs	r2, #2
 8004a02:	4619      	mov	r1, r3
 8004a04:	f240 60bc 	movw	r0, #1724	@ 0x6bc
 8004a08:	f000 fe98 	bl	800573c <SUBGRF_WriteRegisters>
            break;
 8004a0c:	e000      	b.n	8004a10 <SUBGRF_SetCrcSeed+0x38>

        default:
            break;
 8004a0e:	bf00      	nop
    }
}
 8004a10:	bf00      	nop
 8004a12:	3710      	adds	r7, #16
 8004a14:	46bd      	mov	sp, r7
 8004a16:	bd80      	pop	{r7, pc}

08004a18 <SUBGRF_SetCrcPolynomial>:

void SUBGRF_SetCrcPolynomial( uint16_t polynomial )
{
 8004a18:	b580      	push	{r7, lr}
 8004a1a:	b084      	sub	sp, #16
 8004a1c:	af00      	add	r7, sp, #0
 8004a1e:	4603      	mov	r3, r0
 8004a20:	80fb      	strh	r3, [r7, #6]
    uint8_t buf[2];

    buf[0] = ( uint8_t )( ( polynomial >> 8 ) & 0xFF );
 8004a22:	88fb      	ldrh	r3, [r7, #6]
 8004a24:	0a1b      	lsrs	r3, r3, #8
 8004a26:	b29b      	uxth	r3, r3
 8004a28:	b2db      	uxtb	r3, r3
 8004a2a:	733b      	strb	r3, [r7, #12]
    buf[1] = ( uint8_t )( polynomial & 0xFF );
 8004a2c:	88fb      	ldrh	r3, [r7, #6]
 8004a2e:	b2db      	uxtb	r3, r3
 8004a30:	737b      	strb	r3, [r7, #13]

    switch( SUBGRF_GetPacketType( ) )
 8004a32:	f000 fb4f 	bl	80050d4 <SUBGRF_GetPacketType>
 8004a36:	4603      	mov	r3, r0
 8004a38:	2b00      	cmp	r3, #0
 8004a3a:	d108      	bne.n	8004a4e <SUBGRF_SetCrcPolynomial+0x36>
    {
        case PACKET_TYPE_GFSK:
            SUBGRF_WriteRegisters( REG_LR_CRCPOLYBASEADDR, buf, 2 );
 8004a3c:	f107 030c 	add.w	r3, r7, #12
 8004a40:	2202      	movs	r2, #2
 8004a42:	4619      	mov	r1, r3
 8004a44:	f240 60be 	movw	r0, #1726	@ 0x6be
 8004a48:	f000 fe78 	bl	800573c <SUBGRF_WriteRegisters>
            break;
 8004a4c:	e000      	b.n	8004a50 <SUBGRF_SetCrcPolynomial+0x38>

        default:
            break;
 8004a4e:	bf00      	nop
    }
}
 8004a50:	bf00      	nop
 8004a52:	3710      	adds	r7, #16
 8004a54:	46bd      	mov	sp, r7
 8004a56:	bd80      	pop	{r7, pc}

08004a58 <SUBGRF_SetWhiteningSeed>:

void SUBGRF_SetWhiteningSeed( uint16_t seed )
{
 8004a58:	b580      	push	{r7, lr}
 8004a5a:	b084      	sub	sp, #16
 8004a5c:	af00      	add	r7, sp, #0
 8004a5e:	4603      	mov	r3, r0
 8004a60:	80fb      	strh	r3, [r7, #6]
    uint8_t regValue = 0;
 8004a62:	2300      	movs	r3, #0
 8004a64:	73fb      	strb	r3, [r7, #15]

    switch( SUBGRF_GetPacketType( ) )
 8004a66:	f000 fb35 	bl	80050d4 <SUBGRF_GetPacketType>
 8004a6a:	4603      	mov	r3, r0
 8004a6c:	2b00      	cmp	r3, #0
 8004a6e:	d121      	bne.n	8004ab4 <SUBGRF_SetWhiteningSeed+0x5c>
    {
        case PACKET_TYPE_GFSK:
            regValue = SUBGRF_ReadRegister( REG_LR_WHITSEEDBASEADDR_MSB ) & 0xFE;
 8004a70:	f44f 60d7 	mov.w	r0, #1720	@ 0x6b8
 8004a74:	f000 fe42 	bl	80056fc <SUBGRF_ReadRegister>
 8004a78:	4603      	mov	r3, r0
 8004a7a:	f023 0301 	bic.w	r3, r3, #1
 8004a7e:	73fb      	strb	r3, [r7, #15]
            regValue = ( ( seed >> 8 ) & 0x01 ) | regValue;
 8004a80:	88fb      	ldrh	r3, [r7, #6]
 8004a82:	0a1b      	lsrs	r3, r3, #8
 8004a84:	b29b      	uxth	r3, r3
 8004a86:	b25b      	sxtb	r3, r3
 8004a88:	f003 0301 	and.w	r3, r3, #1
 8004a8c:	b25a      	sxtb	r2, r3
 8004a8e:	f997 300f 	ldrsb.w	r3, [r7, #15]
 8004a92:	4313      	orrs	r3, r2
 8004a94:	b25b      	sxtb	r3, r3
 8004a96:	73fb      	strb	r3, [r7, #15]
            SUBGRF_WriteRegister( REG_LR_WHITSEEDBASEADDR_MSB, regValue ); // only 1 bit.
 8004a98:	7bfb      	ldrb	r3, [r7, #15]
 8004a9a:	4619      	mov	r1, r3
 8004a9c:	f44f 60d7 	mov.w	r0, #1720	@ 0x6b8
 8004aa0:	f000 fe0a 	bl	80056b8 <SUBGRF_WriteRegister>
            SUBGRF_WriteRegister( REG_LR_WHITSEEDBASEADDR_LSB, (uint8_t)seed );
 8004aa4:	88fb      	ldrh	r3, [r7, #6]
 8004aa6:	b2db      	uxtb	r3, r3
 8004aa8:	4619      	mov	r1, r3
 8004aaa:	f240 60b9 	movw	r0, #1721	@ 0x6b9
 8004aae:	f000 fe03 	bl	80056b8 <SUBGRF_WriteRegister>
            break;
 8004ab2:	e000      	b.n	8004ab6 <SUBGRF_SetWhiteningSeed+0x5e>

        default:
            break;
 8004ab4:	bf00      	nop
    }
}
 8004ab6:	bf00      	nop
 8004ab8:	3710      	adds	r7, #16
 8004aba:	46bd      	mov	sp, r7
 8004abc:	bd80      	pop	{r7, pc}

08004abe <SUBGRF_GetRandom>:

uint32_t SUBGRF_GetRandom( void )
{
 8004abe:	b580      	push	{r7, lr}
 8004ac0:	b082      	sub	sp, #8
 8004ac2:	af00      	add	r7, sp, #0
    uint32_t number = 0;
 8004ac4:	2300      	movs	r3, #0
 8004ac6:	603b      	str	r3, [r7, #0]
    uint8_t regAnaLna = 0;
 8004ac8:	2300      	movs	r3, #0
 8004aca:	71fb      	strb	r3, [r7, #7]
    uint8_t regAnaMixer = 0;
 8004acc:	2300      	movs	r3, #0
 8004ace:	71bb      	strb	r3, [r7, #6]

    regAnaLna = SUBGRF_ReadRegister( REG_ANA_LNA );
 8004ad0:	f640 00e2 	movw	r0, #2274	@ 0x8e2
 8004ad4:	f000 fe12 	bl	80056fc <SUBGRF_ReadRegister>
 8004ad8:	4603      	mov	r3, r0
 8004ada:	71fb      	strb	r3, [r7, #7]
    SUBGRF_WriteRegister( REG_ANA_LNA, regAnaLna & ~( 1 << 0 ) );
 8004adc:	79fb      	ldrb	r3, [r7, #7]
 8004ade:	f023 0301 	bic.w	r3, r3, #1
 8004ae2:	b2db      	uxtb	r3, r3
 8004ae4:	4619      	mov	r1, r3
 8004ae6:	f640 00e2 	movw	r0, #2274	@ 0x8e2
 8004aea:	f000 fde5 	bl	80056b8 <SUBGRF_WriteRegister>

    regAnaMixer = SUBGRF_ReadRegister( REG_ANA_MIXER );
 8004aee:	f640 00e5 	movw	r0, #2277	@ 0x8e5
 8004af2:	f000 fe03 	bl	80056fc <SUBGRF_ReadRegister>
 8004af6:	4603      	mov	r3, r0
 8004af8:	71bb      	strb	r3, [r7, #6]
    SUBGRF_WriteRegister( REG_ANA_MIXER, regAnaMixer & ~( 1 << 7 ) );
 8004afa:	79bb      	ldrb	r3, [r7, #6]
 8004afc:	f003 037f 	and.w	r3, r3, #127	@ 0x7f
 8004b00:	b2db      	uxtb	r3, r3
 8004b02:	4619      	mov	r1, r3
 8004b04:	f640 00e5 	movw	r0, #2277	@ 0x8e5
 8004b08:	f000 fdd6 	bl	80056b8 <SUBGRF_WriteRegister>

    // Set radio in continuous reception
    SUBGRF_SetRx( 0xFFFFFF ); // Rx Continuous
 8004b0c:	f06f 407f 	mvn.w	r0, #4278190080	@ 0xff000000
 8004b10:	f000 f88a 	bl	8004c28 <SUBGRF_SetRx>

    SUBGRF_ReadRegisters( RANDOM_NUMBER_GENERATORBASEADDR, ( uint8_t* )&number, 4 );
 8004b14:	463b      	mov	r3, r7
 8004b16:	2204      	movs	r2, #4
 8004b18:	4619      	mov	r1, r3
 8004b1a:	f640 0019 	movw	r0, #2073	@ 0x819
 8004b1e:	f000 fe2f 	bl	8005780 <SUBGRF_ReadRegisters>

    SUBGRF_SetStandby( STDBY_RC );
 8004b22:	2000      	movs	r0, #0
 8004b24:	f000 f844 	bl	8004bb0 <SUBGRF_SetStandby>

    SUBGRF_WriteRegister( REG_ANA_LNA, regAnaLna );
 8004b28:	79fb      	ldrb	r3, [r7, #7]
 8004b2a:	4619      	mov	r1, r3
 8004b2c:	f640 00e2 	movw	r0, #2274	@ 0x8e2
 8004b30:	f000 fdc2 	bl	80056b8 <SUBGRF_WriteRegister>
    SUBGRF_WriteRegister( REG_ANA_MIXER, regAnaMixer );
 8004b34:	79bb      	ldrb	r3, [r7, #6]
 8004b36:	4619      	mov	r1, r3
 8004b38:	f640 00e5 	movw	r0, #2277	@ 0x8e5
 8004b3c:	f000 fdbc 	bl	80056b8 <SUBGRF_WriteRegister>

    return number;
 8004b40:	683b      	ldr	r3, [r7, #0]
}
 8004b42:	4618      	mov	r0, r3
 8004b44:	3708      	adds	r7, #8
 8004b46:	46bd      	mov	sp, r7
 8004b48:	bd80      	pop	{r7, pc}
	...

08004b4c <SUBGRF_SetSleep>:

void SUBGRF_SetSleep( SleepParams_t sleepConfig )
{
 8004b4c:	b580      	push	{r7, lr}
 8004b4e:	b084      	sub	sp, #16
 8004b50:	af00      	add	r7, sp, #0
 8004b52:	7138      	strb	r0, [r7, #4]
    /* switch the antenna OFF by SW */
    RBI_ConfigRFSwitch(RBI_SWITCH_OFF);
 8004b54:	2000      	movs	r0, #0
 8004b56:	f001 f918 	bl	8005d8a <RBI_ConfigRFSwitch>

    Radio_SMPS_Set(SMPS_DRIVE_SETTING_DEFAULT);
 8004b5a:	2002      	movs	r0, #2
 8004b5c:	f000 ff1d 	bl	800599a <Radio_SMPS_Set>

    uint8_t value = ( ( ( uint8_t )sleepConfig.Fields.WarmStart << 2 ) |
 8004b60:	793b      	ldrb	r3, [r7, #4]
 8004b62:	f3c3 0380 	ubfx	r3, r3, #2, #1
 8004b66:	b2db      	uxtb	r3, r3
 8004b68:	009b      	lsls	r3, r3, #2
 8004b6a:	b25a      	sxtb	r2, r3
                      ( ( uint8_t )sleepConfig.Fields.Reset << 1 ) |
 8004b6c:	793b      	ldrb	r3, [r7, #4]
 8004b6e:	f3c3 0340 	ubfx	r3, r3, #1, #1
 8004b72:	b2db      	uxtb	r3, r3
 8004b74:	005b      	lsls	r3, r3, #1
    uint8_t value = ( ( ( uint8_t )sleepConfig.Fields.WarmStart << 2 ) |
 8004b76:	b25b      	sxtb	r3, r3
 8004b78:	4313      	orrs	r3, r2
 8004b7a:	b25a      	sxtb	r2, r3
                      ( ( uint8_t )sleepConfig.Fields.WakeUpRTC ) );
 8004b7c:	793b      	ldrb	r3, [r7, #4]
 8004b7e:	f3c3 0300 	ubfx	r3, r3, #0, #1
 8004b82:	b2db      	uxtb	r3, r3
 8004b84:	b25b      	sxtb	r3, r3
                      ( ( uint8_t )sleepConfig.Fields.Reset << 1 ) |
 8004b86:	4313      	orrs	r3, r2
 8004b88:	b25b      	sxtb	r3, r3
 8004b8a:	b2db      	uxtb	r3, r3
    uint8_t value = ( ( ( uint8_t )sleepConfig.Fields.WarmStart << 2 ) |
 8004b8c:	73fb      	strb	r3, [r7, #15]
    SUBGRF_WriteCommand( RADIO_SET_SLEEP, &value, 1 );
 8004b8e:	f107 030f 	add.w	r3, r7, #15
 8004b92:	2201      	movs	r2, #1
 8004b94:	4619      	mov	r1, r3
 8004b96:	2084      	movs	r0, #132	@ 0x84
 8004b98:	f000 fe58 	bl	800584c <SUBGRF_WriteCommand>
    OperatingMode = MODE_SLEEP;
 8004b9c:	4b03      	ldr	r3, [pc, #12]	@ (8004bac <SUBGRF_SetSleep+0x60>)
 8004b9e:	2200      	movs	r2, #0
 8004ba0:	701a      	strb	r2, [r3, #0]
}
 8004ba2:	bf00      	nop
 8004ba4:	3710      	adds	r7, #16
 8004ba6:	46bd      	mov	sp, r7
 8004ba8:	bd80      	pop	{r7, pc}
 8004baa:	bf00      	nop
 8004bac:	20000230 	.word	0x20000230

08004bb0 <SUBGRF_SetStandby>:

void SUBGRF_SetStandby( RadioStandbyModes_t standbyConfig )
{
 8004bb0:	b580      	push	{r7, lr}
 8004bb2:	b082      	sub	sp, #8
 8004bb4:	af00      	add	r7, sp, #0
 8004bb6:	4603      	mov	r3, r0
 8004bb8:	71fb      	strb	r3, [r7, #7]
    SUBGRF_WriteCommand( RADIO_SET_STANDBY, ( uint8_t* )&standbyConfig, 1 );
 8004bba:	1dfb      	adds	r3, r7, #7
 8004bbc:	2201      	movs	r2, #1
 8004bbe:	4619      	mov	r1, r3
 8004bc0:	2080      	movs	r0, #128	@ 0x80
 8004bc2:	f000 fe43 	bl	800584c <SUBGRF_WriteCommand>
    if( standbyConfig == STDBY_RC )
 8004bc6:	79fb      	ldrb	r3, [r7, #7]
 8004bc8:	2b00      	cmp	r3, #0
 8004bca:	d103      	bne.n	8004bd4 <SUBGRF_SetStandby+0x24>
    {
        OperatingMode = MODE_STDBY_RC;
 8004bcc:	4b05      	ldr	r3, [pc, #20]	@ (8004be4 <SUBGRF_SetStandby+0x34>)
 8004bce:	2201      	movs	r2, #1
 8004bd0:	701a      	strb	r2, [r3, #0]
    }
    else
    {
        OperatingMode = MODE_STDBY_XOSC;
    }
}
 8004bd2:	e002      	b.n	8004bda <SUBGRF_SetStandby+0x2a>
        OperatingMode = MODE_STDBY_XOSC;
 8004bd4:	4b03      	ldr	r3, [pc, #12]	@ (8004be4 <SUBGRF_SetStandby+0x34>)
 8004bd6:	2202      	movs	r2, #2
 8004bd8:	701a      	strb	r2, [r3, #0]
}
 8004bda:	bf00      	nop
 8004bdc:	3708      	adds	r7, #8
 8004bde:	46bd      	mov	sp, r7
 8004be0:	bd80      	pop	{r7, pc}
 8004be2:	bf00      	nop
 8004be4:	20000230 	.word	0x20000230

08004be8 <SUBGRF_SetTx>:
    SUBGRF_WriteCommand( RADIO_SET_FS, 0, 0 );
    OperatingMode = MODE_FS;
}

void SUBGRF_SetTx( uint32_t timeout )
{
 8004be8:	b580      	push	{r7, lr}
 8004bea:	b084      	sub	sp, #16
 8004bec:	af00      	add	r7, sp, #0
 8004bee:	6078      	str	r0, [r7, #4]
    uint8_t buf[3];

    OperatingMode = MODE_TX;
 8004bf0:	4b0c      	ldr	r3, [pc, #48]	@ (8004c24 <SUBGRF_SetTx+0x3c>)
 8004bf2:	2204      	movs	r2, #4
 8004bf4:	701a      	strb	r2, [r3, #0]

    buf[0] = ( uint8_t )( ( timeout >> 16 ) & 0xFF );
 8004bf6:	687b      	ldr	r3, [r7, #4]
 8004bf8:	0c1b      	lsrs	r3, r3, #16
 8004bfa:	b2db      	uxtb	r3, r3
 8004bfc:	733b      	strb	r3, [r7, #12]
    buf[1] = ( uint8_t )( ( timeout >> 8 ) & 0xFF );
 8004bfe:	687b      	ldr	r3, [r7, #4]
 8004c00:	0a1b      	lsrs	r3, r3, #8
 8004c02:	b2db      	uxtb	r3, r3
 8004c04:	737b      	strb	r3, [r7, #13]
    buf[2] = ( uint8_t )( timeout & 0xFF );
 8004c06:	687b      	ldr	r3, [r7, #4]
 8004c08:	b2db      	uxtb	r3, r3
 8004c0a:	73bb      	strb	r3, [r7, #14]
    SUBGRF_WriteCommand( RADIO_SET_TX, buf, 3 );
 8004c0c:	f107 030c 	add.w	r3, r7, #12
 8004c10:	2203      	movs	r2, #3
 8004c12:	4619      	mov	r1, r3
 8004c14:	2083      	movs	r0, #131	@ 0x83
 8004c16:	f000 fe19 	bl	800584c <SUBGRF_WriteCommand>
}
 8004c1a:	bf00      	nop
 8004c1c:	3710      	adds	r7, #16
 8004c1e:	46bd      	mov	sp, r7
 8004c20:	bd80      	pop	{r7, pc}
 8004c22:	bf00      	nop
 8004c24:	20000230 	.word	0x20000230

08004c28 <SUBGRF_SetRx>:

void SUBGRF_SetRx( uint32_t timeout )
{
 8004c28:	b580      	push	{r7, lr}
 8004c2a:	b084      	sub	sp, #16
 8004c2c:	af00      	add	r7, sp, #0
 8004c2e:	6078      	str	r0, [r7, #4]
    uint8_t buf[3];

    OperatingMode = MODE_RX;
 8004c30:	4b0c      	ldr	r3, [pc, #48]	@ (8004c64 <SUBGRF_SetRx+0x3c>)
 8004c32:	2205      	movs	r2, #5
 8004c34:	701a      	strb	r2, [r3, #0]

    buf[0] = ( uint8_t )( ( timeout >> 16 ) & 0xFF );
 8004c36:	687b      	ldr	r3, [r7, #4]
 8004c38:	0c1b      	lsrs	r3, r3, #16
 8004c3a:	b2db      	uxtb	r3, r3
 8004c3c:	733b      	strb	r3, [r7, #12]
    buf[1] = ( uint8_t )( ( timeout >> 8 ) & 0xFF );
 8004c3e:	687b      	ldr	r3, [r7, #4]
 8004c40:	0a1b      	lsrs	r3, r3, #8
 8004c42:	b2db      	uxtb	r3, r3
 8004c44:	737b      	strb	r3, [r7, #13]
    buf[2] = ( uint8_t )( timeout & 0xFF );
 8004c46:	687b      	ldr	r3, [r7, #4]
 8004c48:	b2db      	uxtb	r3, r3
 8004c4a:	73bb      	strb	r3, [r7, #14]
    SUBGRF_WriteCommand( RADIO_SET_RX, buf, 3 );
 8004c4c:	f107 030c 	add.w	r3, r7, #12
 8004c50:	2203      	movs	r2, #3
 8004c52:	4619      	mov	r1, r3
 8004c54:	2082      	movs	r0, #130	@ 0x82
 8004c56:	f000 fdf9 	bl	800584c <SUBGRF_WriteCommand>
}
 8004c5a:	bf00      	nop
 8004c5c:	3710      	adds	r7, #16
 8004c5e:	46bd      	mov	sp, r7
 8004c60:	bd80      	pop	{r7, pc}
 8004c62:	bf00      	nop
 8004c64:	20000230 	.word	0x20000230

08004c68 <SUBGRF_SetRxBoosted>:

void SUBGRF_SetRxBoosted( uint32_t timeout )
{
 8004c68:	b580      	push	{r7, lr}
 8004c6a:	b084      	sub	sp, #16
 8004c6c:	af00      	add	r7, sp, #0
 8004c6e:	6078      	str	r0, [r7, #4]
    uint8_t buf[3];

    OperatingMode = MODE_RX;
 8004c70:	4b0e      	ldr	r3, [pc, #56]	@ (8004cac <SUBGRF_SetRxBoosted+0x44>)
 8004c72:	2205      	movs	r2, #5
 8004c74:	701a      	strb	r2, [r3, #0]

    SUBGRF_WriteRegister( REG_RX_GAIN, 0x97 ); // max LNA gain, increase current by ~2mA for around ~3dB in sensitivity
 8004c76:	2197      	movs	r1, #151	@ 0x97
 8004c78:	f640 00ac 	movw	r0, #2220	@ 0x8ac
 8004c7c:	f000 fd1c 	bl	80056b8 <SUBGRF_WriteRegister>

    buf[0] = ( uint8_t )( ( timeout >> 16 ) & 0xFF );
 8004c80:	687b      	ldr	r3, [r7, #4]
 8004c82:	0c1b      	lsrs	r3, r3, #16
 8004c84:	b2db      	uxtb	r3, r3
 8004c86:	733b      	strb	r3, [r7, #12]
    buf[1] = ( uint8_t )( ( timeout >> 8 ) & 0xFF );
 8004c88:	687b      	ldr	r3, [r7, #4]
 8004c8a:	0a1b      	lsrs	r3, r3, #8
 8004c8c:	b2db      	uxtb	r3, r3
 8004c8e:	737b      	strb	r3, [r7, #13]
    buf[2] = ( uint8_t )( timeout & 0xFF );
 8004c90:	687b      	ldr	r3, [r7, #4]
 8004c92:	b2db      	uxtb	r3, r3
 8004c94:	73bb      	strb	r3, [r7, #14]
    SUBGRF_WriteCommand( RADIO_SET_RX, buf, 3 );
 8004c96:	f107 030c 	add.w	r3, r7, #12
 8004c9a:	2203      	movs	r2, #3
 8004c9c:	4619      	mov	r1, r3
 8004c9e:	2082      	movs	r0, #130	@ 0x82
 8004ca0:	f000 fdd4 	bl	800584c <SUBGRF_WriteCommand>
}
 8004ca4:	bf00      	nop
 8004ca6:	3710      	adds	r7, #16
 8004ca8:	46bd      	mov	sp, r7
 8004caa:	bd80      	pop	{r7, pc}
 8004cac:	20000230 	.word	0x20000230

08004cb0 <SUBGRF_SetRxDutyCycle>:

void SUBGRF_SetRxDutyCycle( uint32_t rxTime, uint32_t sleepTime )
{
 8004cb0:	b580      	push	{r7, lr}
 8004cb2:	b084      	sub	sp, #16
 8004cb4:	af00      	add	r7, sp, #0
 8004cb6:	6078      	str	r0, [r7, #4]
 8004cb8:	6039      	str	r1, [r7, #0]
    uint8_t buf[6];

    buf[0] = ( uint8_t )( ( rxTime >> 16 ) & 0xFF );
 8004cba:	687b      	ldr	r3, [r7, #4]
 8004cbc:	0c1b      	lsrs	r3, r3, #16
 8004cbe:	b2db      	uxtb	r3, r3
 8004cc0:	723b      	strb	r3, [r7, #8]
    buf[1] = ( uint8_t )( ( rxTime >> 8 ) & 0xFF );
 8004cc2:	687b      	ldr	r3, [r7, #4]
 8004cc4:	0a1b      	lsrs	r3, r3, #8
 8004cc6:	b2db      	uxtb	r3, r3
 8004cc8:	727b      	strb	r3, [r7, #9]
    buf[2] = ( uint8_t )( rxTime & 0xFF );
 8004cca:	687b      	ldr	r3, [r7, #4]
 8004ccc:	b2db      	uxtb	r3, r3
 8004cce:	72bb      	strb	r3, [r7, #10]
    buf[3] = ( uint8_t )( ( sleepTime >> 16 ) & 0xFF );
 8004cd0:	683b      	ldr	r3, [r7, #0]
 8004cd2:	0c1b      	lsrs	r3, r3, #16
 8004cd4:	b2db      	uxtb	r3, r3
 8004cd6:	72fb      	strb	r3, [r7, #11]
    buf[4] = ( uint8_t )( ( sleepTime >> 8 ) & 0xFF );
 8004cd8:	683b      	ldr	r3, [r7, #0]
 8004cda:	0a1b      	lsrs	r3, r3, #8
 8004cdc:	b2db      	uxtb	r3, r3
 8004cde:	733b      	strb	r3, [r7, #12]
    buf[5] = ( uint8_t )( sleepTime & 0xFF );
 8004ce0:	683b      	ldr	r3, [r7, #0]
 8004ce2:	b2db      	uxtb	r3, r3
 8004ce4:	737b      	strb	r3, [r7, #13]
    SUBGRF_WriteCommand( RADIO_SET_RXDUTYCYCLE, buf, 6 );
 8004ce6:	f107 0308 	add.w	r3, r7, #8
 8004cea:	2206      	movs	r2, #6
 8004cec:	4619      	mov	r1, r3
 8004cee:	2094      	movs	r0, #148	@ 0x94
 8004cf0:	f000 fdac 	bl	800584c <SUBGRF_WriteCommand>
    OperatingMode = MODE_RX_DC;
 8004cf4:	4b03      	ldr	r3, [pc, #12]	@ (8004d04 <SUBGRF_SetRxDutyCycle+0x54>)
 8004cf6:	2206      	movs	r2, #6
 8004cf8:	701a      	strb	r2, [r3, #0]
}
 8004cfa:	bf00      	nop
 8004cfc:	3710      	adds	r7, #16
 8004cfe:	46bd      	mov	sp, r7
 8004d00:	bd80      	pop	{r7, pc}
 8004d02:	bf00      	nop
 8004d04:	20000230 	.word	0x20000230

08004d08 <SUBGRF_SetCad>:

void SUBGRF_SetCad( void )
{
 8004d08:	b580      	push	{r7, lr}
 8004d0a:	af00      	add	r7, sp, #0
    SUBGRF_WriteCommand( RADIO_SET_CAD, 0, 0 );
 8004d0c:	2200      	movs	r2, #0
 8004d0e:	2100      	movs	r1, #0
 8004d10:	20c5      	movs	r0, #197	@ 0xc5
 8004d12:	f000 fd9b 	bl	800584c <SUBGRF_WriteCommand>
    OperatingMode = MODE_CAD;
 8004d16:	4b02      	ldr	r3, [pc, #8]	@ (8004d20 <SUBGRF_SetCad+0x18>)
 8004d18:	2207      	movs	r2, #7
 8004d1a:	701a      	strb	r2, [r3, #0]
}
 8004d1c:	bf00      	nop
 8004d1e:	bd80      	pop	{r7, pc}
 8004d20:	20000230 	.word	0x20000230

08004d24 <SUBGRF_SetTxContinuousWave>:

void SUBGRF_SetTxContinuousWave( void )
{
 8004d24:	b580      	push	{r7, lr}
 8004d26:	af00      	add	r7, sp, #0
    SUBGRF_WriteCommand( RADIO_SET_TXCONTINUOUSWAVE, 0, 0 );
 8004d28:	2200      	movs	r2, #0
 8004d2a:	2100      	movs	r1, #0
 8004d2c:	20d1      	movs	r0, #209	@ 0xd1
 8004d2e:	f000 fd8d 	bl	800584c <SUBGRF_WriteCommand>
}
 8004d32:	bf00      	nop
 8004d34:	bd80      	pop	{r7, pc}

08004d36 <SUBGRF_SetTxInfinitePreamble>:

void SUBGRF_SetTxInfinitePreamble( void )
{
 8004d36:	b580      	push	{r7, lr}
 8004d38:	af00      	add	r7, sp, #0
    SUBGRF_WriteCommand( RADIO_SET_TXCONTINUOUSPREAMBLE, 0, 0 );
 8004d3a:	2200      	movs	r2, #0
 8004d3c:	2100      	movs	r1, #0
 8004d3e:	20d2      	movs	r0, #210	@ 0xd2
 8004d40:	f000 fd84 	bl	800584c <SUBGRF_WriteCommand>
}
 8004d44:	bf00      	nop
 8004d46:	bd80      	pop	{r7, pc}

08004d48 <SUBGRF_SetStopRxTimerOnPreambleDetect>:

void SUBGRF_SetStopRxTimerOnPreambleDetect( bool enable )
{
 8004d48:	b580      	push	{r7, lr}
 8004d4a:	b082      	sub	sp, #8
 8004d4c:	af00      	add	r7, sp, #0
 8004d4e:	4603      	mov	r3, r0
 8004d50:	71fb      	strb	r3, [r7, #7]
    SUBGRF_WriteCommand( RADIO_SET_STOPRXTIMERONPREAMBLE, ( uint8_t* )&enable, 1 );
 8004d52:	1dfb      	adds	r3, r7, #7
 8004d54:	2201      	movs	r2, #1
 8004d56:	4619      	mov	r1, r3
 8004d58:	209f      	movs	r0, #159	@ 0x9f
 8004d5a:	f000 fd77 	bl	800584c <SUBGRF_WriteCommand>
}
 8004d5e:	bf00      	nop
 8004d60:	3708      	adds	r7, #8
 8004d62:	46bd      	mov	sp, r7
 8004d64:	bd80      	pop	{r7, pc}

08004d66 <SUBGRF_SetLoRaSymbNumTimeout>:

void SUBGRF_SetLoRaSymbNumTimeout( uint8_t symbNum )
{
 8004d66:	b580      	push	{r7, lr}
 8004d68:	b084      	sub	sp, #16
 8004d6a:	af00      	add	r7, sp, #0
 8004d6c:	4603      	mov	r3, r0
 8004d6e:	71fb      	strb	r3, [r7, #7]
    SUBGRF_WriteCommand( RADIO_SET_LORASYMBTIMEOUT, &symbNum, 1 );
 8004d70:	1dfb      	adds	r3, r7, #7
 8004d72:	2201      	movs	r2, #1
 8004d74:	4619      	mov	r1, r3
 8004d76:	20a0      	movs	r0, #160	@ 0xa0
 8004d78:	f000 fd68 	bl	800584c <SUBGRF_WriteCommand>

    if( symbNum >= 64 )
 8004d7c:	79fb      	ldrb	r3, [r7, #7]
 8004d7e:	2b3f      	cmp	r3, #63	@ 0x3f
 8004d80:	d91c      	bls.n	8004dbc <SUBGRF_SetLoRaSymbNumTimeout+0x56>
    {
        uint8_t mant = symbNum >> 1;
 8004d82:	79fb      	ldrb	r3, [r7, #7]
 8004d84:	085b      	lsrs	r3, r3, #1
 8004d86:	73fb      	strb	r3, [r7, #15]
        uint8_t exp  = 0;
 8004d88:	2300      	movs	r3, #0
 8004d8a:	73bb      	strb	r3, [r7, #14]
        uint8_t reg  = 0;
 8004d8c:	2300      	movs	r3, #0
 8004d8e:	737b      	strb	r3, [r7, #13]

        while( mant > 31 )
 8004d90:	e005      	b.n	8004d9e <SUBGRF_SetLoRaSymbNumTimeout+0x38>
        {
            mant >>= 2;
 8004d92:	7bfb      	ldrb	r3, [r7, #15]
 8004d94:	089b      	lsrs	r3, r3, #2
 8004d96:	73fb      	strb	r3, [r7, #15]
            exp++;
 8004d98:	7bbb      	ldrb	r3, [r7, #14]
 8004d9a:	3301      	adds	r3, #1
 8004d9c:	73bb      	strb	r3, [r7, #14]
        while( mant > 31 )
 8004d9e:	7bfb      	ldrb	r3, [r7, #15]
 8004da0:	2b1f      	cmp	r3, #31
 8004da2:	d8f6      	bhi.n	8004d92 <SUBGRF_SetLoRaSymbNumTimeout+0x2c>
        }

        reg = exp + ( mant << 3 );
 8004da4:	7bfb      	ldrb	r3, [r7, #15]
 8004da6:	00db      	lsls	r3, r3, #3
 8004da8:	b2da      	uxtb	r2, r3
 8004daa:	7bbb      	ldrb	r3, [r7, #14]
 8004dac:	4413      	add	r3, r2
 8004dae:	737b      	strb	r3, [r7, #13]
        SUBGRF_WriteRegister( REG_LR_SYNCH_TIMEOUT, reg );
 8004db0:	7b7b      	ldrb	r3, [r7, #13]
 8004db2:	4619      	mov	r1, r3
 8004db4:	f240 7006 	movw	r0, #1798	@ 0x706
 8004db8:	f000 fc7e 	bl	80056b8 <SUBGRF_WriteRegister>
    }
}
 8004dbc:	bf00      	nop
 8004dbe:	3710      	adds	r7, #16
 8004dc0:	46bd      	mov	sp, r7
 8004dc2:	bd80      	pop	{r7, pc}

08004dc4 <SUBGRF_SetRegulatorMode>:

void SUBGRF_SetRegulatorMode( void )
{
 8004dc4:	b580      	push	{r7, lr}
 8004dc6:	b082      	sub	sp, #8
 8004dc8:	af00      	add	r7, sp, #0
    RadioRegulatorMode_t mode;

    if ( ( 1UL == RBI_IsDCDC() ) && ( 1UL == DCDC_ENABLE ) )
 8004dca:	f001 f801 	bl	8005dd0 <RBI_IsDCDC>
 8004dce:	4603      	mov	r3, r0
 8004dd0:	2b01      	cmp	r3, #1
 8004dd2:	d102      	bne.n	8004dda <SUBGRF_SetRegulatorMode+0x16>
    {
        mode = USE_DCDC ;
 8004dd4:	2301      	movs	r3, #1
 8004dd6:	71fb      	strb	r3, [r7, #7]
 8004dd8:	e001      	b.n	8004dde <SUBGRF_SetRegulatorMode+0x1a>
    }
    else
    {
        mode = USE_LDO ;
 8004dda:	2300      	movs	r3, #0
 8004ddc:	71fb      	strb	r3, [r7, #7]
    }
    SUBGRF_WriteCommand( RADIO_SET_REGULATORMODE, ( uint8_t* )&mode, 1 );
 8004dde:	1dfb      	adds	r3, r7, #7
 8004de0:	2201      	movs	r2, #1
 8004de2:	4619      	mov	r1, r3
 8004de4:	2096      	movs	r0, #150	@ 0x96
 8004de6:	f000 fd31 	bl	800584c <SUBGRF_WriteCommand>
}
 8004dea:	bf00      	nop
 8004dec:	3708      	adds	r7, #8
 8004dee:	46bd      	mov	sp, r7
 8004df0:	bd80      	pop	{r7, pc}

08004df2 <SUBGRF_Calibrate>:

void SUBGRF_Calibrate( CalibrationParams_t calibParam )
{
 8004df2:	b580      	push	{r7, lr}
 8004df4:	b084      	sub	sp, #16
 8004df6:	af00      	add	r7, sp, #0
 8004df8:	7138      	strb	r0, [r7, #4]
    uint8_t value = ( ( ( uint8_t )calibParam.Fields.ImgEnable << 6 ) |
 8004dfa:	793b      	ldrb	r3, [r7, #4]
 8004dfc:	f3c3 1380 	ubfx	r3, r3, #6, #1
 8004e00:	b2db      	uxtb	r3, r3
 8004e02:	019b      	lsls	r3, r3, #6
 8004e04:	b25a      	sxtb	r2, r3
                      ( ( uint8_t )calibParam.Fields.ADCBulkPEnable << 5 ) |
 8004e06:	793b      	ldrb	r3, [r7, #4]
 8004e08:	f3c3 1340 	ubfx	r3, r3, #5, #1
 8004e0c:	b2db      	uxtb	r3, r3
 8004e0e:	015b      	lsls	r3, r3, #5
    uint8_t value = ( ( ( uint8_t )calibParam.Fields.ImgEnable << 6 ) |
 8004e10:	b25b      	sxtb	r3, r3
 8004e12:	4313      	orrs	r3, r2
 8004e14:	b25a      	sxtb	r2, r3
                      ( ( uint8_t )calibParam.Fields.ADCBulkNEnable << 4 ) |
 8004e16:	793b      	ldrb	r3, [r7, #4]
 8004e18:	f3c3 1300 	ubfx	r3, r3, #4, #1
 8004e1c:	b2db      	uxtb	r3, r3
 8004e1e:	011b      	lsls	r3, r3, #4
                      ( ( uint8_t )calibParam.Fields.ADCBulkPEnable << 5 ) |
 8004e20:	b25b      	sxtb	r3, r3
 8004e22:	4313      	orrs	r3, r2
 8004e24:	b25a      	sxtb	r2, r3
                      ( ( uint8_t )calibParam.Fields.ADCPulseEnable << 3 ) |
 8004e26:	793b      	ldrb	r3, [r7, #4]
 8004e28:	f3c3 03c0 	ubfx	r3, r3, #3, #1
 8004e2c:	b2db      	uxtb	r3, r3
 8004e2e:	00db      	lsls	r3, r3, #3
                      ( ( uint8_t )calibParam.Fields.ADCBulkNEnable << 4 ) |
 8004e30:	b25b      	sxtb	r3, r3
 8004e32:	4313      	orrs	r3, r2
 8004e34:	b25a      	sxtb	r2, r3
                      ( ( uint8_t )calibParam.Fields.PLLEnable << 2 ) |
 8004e36:	793b      	ldrb	r3, [r7, #4]
 8004e38:	f3c3 0380 	ubfx	r3, r3, #2, #1
 8004e3c:	b2db      	uxtb	r3, r3
 8004e3e:	009b      	lsls	r3, r3, #2
                      ( ( uint8_t )calibParam.Fields.ADCPulseEnable << 3 ) |
 8004e40:	b25b      	sxtb	r3, r3
 8004e42:	4313      	orrs	r3, r2
 8004e44:	b25a      	sxtb	r2, r3
                      ( ( uint8_t )calibParam.Fields.RC13MEnable << 1 ) |
 8004e46:	793b      	ldrb	r3, [r7, #4]
 8004e48:	f3c3 0340 	ubfx	r3, r3, #1, #1
 8004e4c:	b2db      	uxtb	r3, r3
 8004e4e:	005b      	lsls	r3, r3, #1
                      ( ( uint8_t )calibParam.Fields.PLLEnable << 2 ) |
 8004e50:	b25b      	sxtb	r3, r3
 8004e52:	4313      	orrs	r3, r2
 8004e54:	b25a      	sxtb	r2, r3
                      ( ( uint8_t )calibParam.Fields.RC64KEnable ) );
 8004e56:	793b      	ldrb	r3, [r7, #4]
 8004e58:	f3c3 0300 	ubfx	r3, r3, #0, #1
 8004e5c:	b2db      	uxtb	r3, r3
 8004e5e:	b25b      	sxtb	r3, r3
                      ( ( uint8_t )calibParam.Fields.RC13MEnable << 1 ) |
 8004e60:	4313      	orrs	r3, r2
 8004e62:	b25b      	sxtb	r3, r3
 8004e64:	b2db      	uxtb	r3, r3
    uint8_t value = ( ( ( uint8_t )calibParam.Fields.ImgEnable << 6 ) |
 8004e66:	73fb      	strb	r3, [r7, #15]

    SUBGRF_WriteCommand( RADIO_CALIBRATE, &value, 1 );
 8004e68:	f107 030f 	add.w	r3, r7, #15
 8004e6c:	2201      	movs	r2, #1
 8004e6e:	4619      	mov	r1, r3
 8004e70:	2089      	movs	r0, #137	@ 0x89
 8004e72:	f000 fceb 	bl	800584c <SUBGRF_WriteCommand>
}
 8004e76:	bf00      	nop
 8004e78:	3710      	adds	r7, #16
 8004e7a:	46bd      	mov	sp, r7
 8004e7c:	bd80      	pop	{r7, pc}
	...

08004e80 <SUBGRF_CalibrateImage>:

void SUBGRF_CalibrateImage( uint32_t freq )
{
 8004e80:	b580      	push	{r7, lr}
 8004e82:	b084      	sub	sp, #16
 8004e84:	af00      	add	r7, sp, #0
 8004e86:	6078      	str	r0, [r7, #4]
    uint8_t calFreq[2];

    if( freq > 900000000 )
 8004e88:	687b      	ldr	r3, [r7, #4]
 8004e8a:	4a1d      	ldr	r2, [pc, #116]	@ (8004f00 <SUBGRF_CalibrateImage+0x80>)
 8004e8c:	4293      	cmp	r3, r2
 8004e8e:	d904      	bls.n	8004e9a <SUBGRF_CalibrateImage+0x1a>
    {
        calFreq[0] = 0xE1;
 8004e90:	23e1      	movs	r3, #225	@ 0xe1
 8004e92:	733b      	strb	r3, [r7, #12]
        calFreq[1] = 0xE9;
 8004e94:	23e9      	movs	r3, #233	@ 0xe9
 8004e96:	737b      	strb	r3, [r7, #13]
 8004e98:	e027      	b.n	8004eea <SUBGRF_CalibrateImage+0x6a>
    }
    else if( freq > 850000000 )
 8004e9a:	687b      	ldr	r3, [r7, #4]
 8004e9c:	4a19      	ldr	r2, [pc, #100]	@ (8004f04 <SUBGRF_CalibrateImage+0x84>)
 8004e9e:	4293      	cmp	r3, r2
 8004ea0:	d904      	bls.n	8004eac <SUBGRF_CalibrateImage+0x2c>
    {
        calFreq[0] = 0xD7;
 8004ea2:	23d7      	movs	r3, #215	@ 0xd7
 8004ea4:	733b      	strb	r3, [r7, #12]
        calFreq[1] = 0xDB;
 8004ea6:	23db      	movs	r3, #219	@ 0xdb
 8004ea8:	737b      	strb	r3, [r7, #13]
 8004eaa:	e01e      	b.n	8004eea <SUBGRF_CalibrateImage+0x6a>
    }
    else if( freq > 770000000 )
 8004eac:	687b      	ldr	r3, [r7, #4]
 8004eae:	4a16      	ldr	r2, [pc, #88]	@ (8004f08 <SUBGRF_CalibrateImage+0x88>)
 8004eb0:	4293      	cmp	r3, r2
 8004eb2:	d904      	bls.n	8004ebe <SUBGRF_CalibrateImage+0x3e>
    {
        calFreq[0] = 0xC1;
 8004eb4:	23c1      	movs	r3, #193	@ 0xc1
 8004eb6:	733b      	strb	r3, [r7, #12]
        calFreq[1] = 0xC5;
 8004eb8:	23c5      	movs	r3, #197	@ 0xc5
 8004eba:	737b      	strb	r3, [r7, #13]
 8004ebc:	e015      	b.n	8004eea <SUBGRF_CalibrateImage+0x6a>
    }
    else if( freq > 460000000 )
 8004ebe:	687b      	ldr	r3, [r7, #4]
 8004ec0:	4a12      	ldr	r2, [pc, #72]	@ (8004f0c <SUBGRF_CalibrateImage+0x8c>)
 8004ec2:	4293      	cmp	r3, r2
 8004ec4:	d904      	bls.n	8004ed0 <SUBGRF_CalibrateImage+0x50>
    {
        calFreq[0] = 0x75;
 8004ec6:	2375      	movs	r3, #117	@ 0x75
 8004ec8:	733b      	strb	r3, [r7, #12]
        calFreq[1] = 0x81;
 8004eca:	2381      	movs	r3, #129	@ 0x81
 8004ecc:	737b      	strb	r3, [r7, #13]
 8004ece:	e00c      	b.n	8004eea <SUBGRF_CalibrateImage+0x6a>
    }
    else if( freq > 425000000 )
 8004ed0:	687b      	ldr	r3, [r7, #4]
 8004ed2:	4a0f      	ldr	r2, [pc, #60]	@ (8004f10 <SUBGRF_CalibrateImage+0x90>)
 8004ed4:	4293      	cmp	r3, r2
 8004ed6:	d904      	bls.n	8004ee2 <SUBGRF_CalibrateImage+0x62>
    {
        calFreq[0] = 0x6B;
 8004ed8:	236b      	movs	r3, #107	@ 0x6b
 8004eda:	733b      	strb	r3, [r7, #12]
        calFreq[1] = 0x6F;
 8004edc:	236f      	movs	r3, #111	@ 0x6f
 8004ede:	737b      	strb	r3, [r7, #13]
 8004ee0:	e003      	b.n	8004eea <SUBGRF_CalibrateImage+0x6a>
    }
    else /* freq <= 425000000*/
    {
        /* [ 156MHz - 171MHz ] */
        calFreq[0] = 0x29;
 8004ee2:	2329      	movs	r3, #41	@ 0x29
 8004ee4:	733b      	strb	r3, [r7, #12]
        calFreq[1] = 0x2B ;
 8004ee6:	232b      	movs	r3, #43	@ 0x2b
 8004ee8:	737b      	strb	r3, [r7, #13]
    }
    SUBGRF_WriteCommand( RADIO_CALIBRATEIMAGE, calFreq, 2 );
 8004eea:	f107 030c 	add.w	r3, r7, #12
 8004eee:	2202      	movs	r2, #2
 8004ef0:	4619      	mov	r1, r3
 8004ef2:	2098      	movs	r0, #152	@ 0x98
 8004ef4:	f000 fcaa 	bl	800584c <SUBGRF_WriteCommand>
}
 8004ef8:	bf00      	nop
 8004efa:	3710      	adds	r7, #16
 8004efc:	46bd      	mov	sp, r7
 8004efe:	bd80      	pop	{r7, pc}
 8004f00:	35a4e900 	.word	0x35a4e900
 8004f04:	32a9f880 	.word	0x32a9f880
 8004f08:	2de54480 	.word	0x2de54480
 8004f0c:	1b6b0b00 	.word	0x1b6b0b00
 8004f10:	1954fc40 	.word	0x1954fc40

08004f14 <SUBGRF_SetPaConfig>:

void SUBGRF_SetPaConfig( uint8_t paDutyCycle, uint8_t hpMax, uint8_t deviceSel, uint8_t paLut )
{
 8004f14:	b590      	push	{r4, r7, lr}
 8004f16:	b085      	sub	sp, #20
 8004f18:	af00      	add	r7, sp, #0
 8004f1a:	4604      	mov	r4, r0
 8004f1c:	4608      	mov	r0, r1
 8004f1e:	4611      	mov	r1, r2
 8004f20:	461a      	mov	r2, r3
 8004f22:	4623      	mov	r3, r4
 8004f24:	71fb      	strb	r3, [r7, #7]
 8004f26:	4603      	mov	r3, r0
 8004f28:	71bb      	strb	r3, [r7, #6]
 8004f2a:	460b      	mov	r3, r1
 8004f2c:	717b      	strb	r3, [r7, #5]
 8004f2e:	4613      	mov	r3, r2
 8004f30:	713b      	strb	r3, [r7, #4]
    uint8_t buf[4];

    buf[0] = paDutyCycle;
 8004f32:	79fb      	ldrb	r3, [r7, #7]
 8004f34:	733b      	strb	r3, [r7, #12]
    buf[1] = hpMax;
 8004f36:	79bb      	ldrb	r3, [r7, #6]
 8004f38:	737b      	strb	r3, [r7, #13]
    buf[2] = deviceSel;
 8004f3a:	797b      	ldrb	r3, [r7, #5]
 8004f3c:	73bb      	strb	r3, [r7, #14]
    buf[3] = paLut;
 8004f3e:	793b      	ldrb	r3, [r7, #4]
 8004f40:	73fb      	strb	r3, [r7, #15]
    SUBGRF_WriteCommand( RADIO_SET_PACONFIG, buf, 4 );
 8004f42:	f107 030c 	add.w	r3, r7, #12
 8004f46:	2204      	movs	r2, #4
 8004f48:	4619      	mov	r1, r3
 8004f4a:	2095      	movs	r0, #149	@ 0x95
 8004f4c:	f000 fc7e 	bl	800584c <SUBGRF_WriteCommand>
}
 8004f50:	bf00      	nop
 8004f52:	3714      	adds	r7, #20
 8004f54:	46bd      	mov	sp, r7
 8004f56:	bd90      	pop	{r4, r7, pc}

08004f58 <SUBGRF_SetDioIrqParams>:
{
    SUBGRF_WriteCommand( RADIO_SET_TXFALLBACKMODE, &fallbackMode, 1 );
}

void SUBGRF_SetDioIrqParams( uint16_t irqMask, uint16_t dio1Mask, uint16_t dio2Mask, uint16_t dio3Mask )
{
 8004f58:	b590      	push	{r4, r7, lr}
 8004f5a:	b085      	sub	sp, #20
 8004f5c:	af00      	add	r7, sp, #0
 8004f5e:	4604      	mov	r4, r0
 8004f60:	4608      	mov	r0, r1
 8004f62:	4611      	mov	r1, r2
 8004f64:	461a      	mov	r2, r3
 8004f66:	4623      	mov	r3, r4
 8004f68:	80fb      	strh	r3, [r7, #6]
 8004f6a:	4603      	mov	r3, r0
 8004f6c:	80bb      	strh	r3, [r7, #4]
 8004f6e:	460b      	mov	r3, r1
 8004f70:	807b      	strh	r3, [r7, #2]
 8004f72:	4613      	mov	r3, r2
 8004f74:	803b      	strh	r3, [r7, #0]
    uint8_t buf[8];

    buf[0] = ( uint8_t )( ( irqMask >> 8 ) & 0x00FF );
 8004f76:	88fb      	ldrh	r3, [r7, #6]
 8004f78:	0a1b      	lsrs	r3, r3, #8
 8004f7a:	b29b      	uxth	r3, r3
 8004f7c:	b2db      	uxtb	r3, r3
 8004f7e:	723b      	strb	r3, [r7, #8]
    buf[1] = ( uint8_t )( irqMask & 0x00FF );
 8004f80:	88fb      	ldrh	r3, [r7, #6]
 8004f82:	b2db      	uxtb	r3, r3
 8004f84:	727b      	strb	r3, [r7, #9]
    buf[2] = ( uint8_t )( ( dio1Mask >> 8 ) & 0x00FF );
 8004f86:	88bb      	ldrh	r3, [r7, #4]
 8004f88:	0a1b      	lsrs	r3, r3, #8
 8004f8a:	b29b      	uxth	r3, r3
 8004f8c:	b2db      	uxtb	r3, r3
 8004f8e:	72bb      	strb	r3, [r7, #10]
    buf[3] = ( uint8_t )( dio1Mask & 0x00FF );
 8004f90:	88bb      	ldrh	r3, [r7, #4]
 8004f92:	b2db      	uxtb	r3, r3
 8004f94:	72fb      	strb	r3, [r7, #11]
    buf[4] = ( uint8_t )( ( dio2Mask >> 8 ) & 0x00FF );
 8004f96:	887b      	ldrh	r3, [r7, #2]
 8004f98:	0a1b      	lsrs	r3, r3, #8
 8004f9a:	b29b      	uxth	r3, r3
 8004f9c:	b2db      	uxtb	r3, r3
 8004f9e:	733b      	strb	r3, [r7, #12]
    buf[5] = ( uint8_t )( dio2Mask & 0x00FF );
 8004fa0:	887b      	ldrh	r3, [r7, #2]
 8004fa2:	b2db      	uxtb	r3, r3
 8004fa4:	737b      	strb	r3, [r7, #13]
    buf[6] = ( uint8_t )( ( dio3Mask >> 8 ) & 0x00FF );
 8004fa6:	883b      	ldrh	r3, [r7, #0]
 8004fa8:	0a1b      	lsrs	r3, r3, #8
 8004faa:	b29b      	uxth	r3, r3
 8004fac:	b2db      	uxtb	r3, r3
 8004fae:	73bb      	strb	r3, [r7, #14]
    buf[7] = ( uint8_t )( dio3Mask & 0x00FF );
 8004fb0:	883b      	ldrh	r3, [r7, #0]
 8004fb2:	b2db      	uxtb	r3, r3
 8004fb4:	73fb      	strb	r3, [r7, #15]
    SUBGRF_WriteCommand( RADIO_CFG_DIOIRQ, buf, 8 );
 8004fb6:	f107 0308 	add.w	r3, r7, #8
 8004fba:	2208      	movs	r2, #8
 8004fbc:	4619      	mov	r1, r3
 8004fbe:	2008      	movs	r0, #8
 8004fc0:	f000 fc44 	bl	800584c <SUBGRF_WriteCommand>
}
 8004fc4:	bf00      	nop
 8004fc6:	3714      	adds	r7, #20
 8004fc8:	46bd      	mov	sp, r7
 8004fca:	bd90      	pop	{r4, r7, pc}

08004fcc <SUBGRF_SetTcxoMode>:
    SUBGRF_ReadCommand( RADIO_GET_IRQSTATUS, irqStatus, 2 );
    return ( irqStatus[0] << 8 ) | irqStatus[1];
}

void SUBGRF_SetTcxoMode (RadioTcxoCtrlVoltage_t tcxoVoltage, uint32_t timeout )
{
 8004fcc:	b580      	push	{r7, lr}
 8004fce:	b084      	sub	sp, #16
 8004fd0:	af00      	add	r7, sp, #0
 8004fd2:	4603      	mov	r3, r0
 8004fd4:	6039      	str	r1, [r7, #0]
 8004fd6:	71fb      	strb	r3, [r7, #7]
    uint8_t buf[4];

    buf[0] = tcxoVoltage & 0x07;
 8004fd8:	79fb      	ldrb	r3, [r7, #7]
 8004fda:	f003 0307 	and.w	r3, r3, #7
 8004fde:	b2db      	uxtb	r3, r3
 8004fe0:	733b      	strb	r3, [r7, #12]
    buf[1] = ( uint8_t )( ( timeout >> 16 ) & 0xFF );
 8004fe2:	683b      	ldr	r3, [r7, #0]
 8004fe4:	0c1b      	lsrs	r3, r3, #16
 8004fe6:	b2db      	uxtb	r3, r3
 8004fe8:	737b      	strb	r3, [r7, #13]
    buf[2] = ( uint8_t )( ( timeout >> 8 ) & 0xFF );
 8004fea:	683b      	ldr	r3, [r7, #0]
 8004fec:	0a1b      	lsrs	r3, r3, #8
 8004fee:	b2db      	uxtb	r3, r3
 8004ff0:	73bb      	strb	r3, [r7, #14]
    buf[3] = ( uint8_t )( timeout & 0xFF );
 8004ff2:	683b      	ldr	r3, [r7, #0]
 8004ff4:	b2db      	uxtb	r3, r3
 8004ff6:	73fb      	strb	r3, [r7, #15]

    SUBGRF_WriteCommand( RADIO_SET_TCXOMODE, buf, 4 );
 8004ff8:	f107 030c 	add.w	r3, r7, #12
 8004ffc:	2204      	movs	r2, #4
 8004ffe:	4619      	mov	r1, r3
 8005000:	2097      	movs	r0, #151	@ 0x97
 8005002:	f000 fc23 	bl	800584c <SUBGRF_WriteCommand>
}
 8005006:	bf00      	nop
 8005008:	3710      	adds	r7, #16
 800500a:	46bd      	mov	sp, r7
 800500c:	bd80      	pop	{r7, pc}
	...

08005010 <SUBGRF_SetRfFrequency>:

void SUBGRF_SetRfFrequency( uint32_t frequency )
{
 8005010:	e92d 43b0 	stmdb	sp!, {r4, r5, r7, r8, r9, lr}
 8005014:	b084      	sub	sp, #16
 8005016:	af00      	add	r7, sp, #0
 8005018:	6078      	str	r0, [r7, #4]
    uint8_t buf[4];
    uint32_t chan = 0;
 800501a:	2300      	movs	r3, #0
 800501c:	60fb      	str	r3, [r7, #12]

    if( ImageCalibrated == false )
 800501e:	4b1d      	ldr	r3, [pc, #116]	@ (8005094 <SUBGRF_SetRfFrequency+0x84>)
 8005020:	781b      	ldrb	r3, [r3, #0]
 8005022:	f083 0301 	eor.w	r3, r3, #1
 8005026:	b2db      	uxtb	r3, r3
 8005028:	2b00      	cmp	r3, #0
 800502a:	d005      	beq.n	8005038 <SUBGRF_SetRfFrequency+0x28>
    {
        SUBGRF_CalibrateImage( frequency );
 800502c:	6878      	ldr	r0, [r7, #4]
 800502e:	f7ff ff27 	bl	8004e80 <SUBGRF_CalibrateImage>
        ImageCalibrated = true;
 8005032:	4b18      	ldr	r3, [pc, #96]	@ (8005094 <SUBGRF_SetRfFrequency+0x84>)
 8005034:	2201      	movs	r2, #1
 8005036:	701a      	strb	r2, [r3, #0]
    }
    SX_FREQ_TO_CHANNEL(chan, frequency);
 8005038:	687b      	ldr	r3, [r7, #4]
 800503a:	2200      	movs	r2, #0
 800503c:	461c      	mov	r4, r3
 800503e:	4615      	mov	r5, r2
 8005040:	ea4f 19d4 	mov.w	r9, r4, lsr #7
 8005044:	ea4f 6844 	mov.w	r8, r4, lsl #25
 8005048:	4a13      	ldr	r2, [pc, #76]	@ (8005098 <SUBGRF_SetRfFrequency+0x88>)
 800504a:	f04f 0300 	mov.w	r3, #0
 800504e:	4640      	mov	r0, r8
 8005050:	4649      	mov	r1, r9
 8005052:	f7fb f8e5 	bl	8000220 <__aeabi_uldivmod>
 8005056:	4602      	mov	r2, r0
 8005058:	460b      	mov	r3, r1
 800505a:	4613      	mov	r3, r2
 800505c:	60fb      	str	r3, [r7, #12]
    buf[0] = ( uint8_t )( ( chan >> 24 ) & 0xFF );
 800505e:	68fb      	ldr	r3, [r7, #12]
 8005060:	0e1b      	lsrs	r3, r3, #24
 8005062:	b2db      	uxtb	r3, r3
 8005064:	723b      	strb	r3, [r7, #8]
    buf[1] = ( uint8_t )( ( chan >> 16 ) & 0xFF );
 8005066:	68fb      	ldr	r3, [r7, #12]
 8005068:	0c1b      	lsrs	r3, r3, #16
 800506a:	b2db      	uxtb	r3, r3
 800506c:	727b      	strb	r3, [r7, #9]
    buf[2] = ( uint8_t )( ( chan >> 8 ) & 0xFF );
 800506e:	68fb      	ldr	r3, [r7, #12]
 8005070:	0a1b      	lsrs	r3, r3, #8
 8005072:	b2db      	uxtb	r3, r3
 8005074:	72bb      	strb	r3, [r7, #10]
    buf[3] = ( uint8_t )( chan & 0xFF );
 8005076:	68fb      	ldr	r3, [r7, #12]
 8005078:	b2db      	uxtb	r3, r3
 800507a:	72fb      	strb	r3, [r7, #11]
    SUBGRF_WriteCommand( RADIO_SET_RFFREQUENCY, buf, 4 );
 800507c:	f107 0308 	add.w	r3, r7, #8
 8005080:	2204      	movs	r2, #4
 8005082:	4619      	mov	r1, r3
 8005084:	2086      	movs	r0, #134	@ 0x86
 8005086:	f000 fbe1 	bl	800584c <SUBGRF_WriteCommand>
}
 800508a:	bf00      	nop
 800508c:	3710      	adds	r7, #16
 800508e:	46bd      	mov	sp, r7
 8005090:	e8bd 83b0 	ldmia.w	sp!, {r4, r5, r7, r8, r9, pc}
 8005094:	20000238 	.word	0x20000238
 8005098:	01e84800 	.word	0x01e84800

0800509c <SUBGRF_SetPacketType>:

void SUBGRF_SetPacketType( RadioPacketTypes_t packetType )
{
 800509c:	b580      	push	{r7, lr}
 800509e:	b082      	sub	sp, #8
 80050a0:	af00      	add	r7, sp, #0
 80050a2:	4603      	mov	r3, r0
 80050a4:	71fb      	strb	r3, [r7, #7]
    // Save packet type internally to avoid questioning the radio
    PacketType = packetType;
 80050a6:	79fa      	ldrb	r2, [r7, #7]
 80050a8:	4b09      	ldr	r3, [pc, #36]	@ (80050d0 <SUBGRF_SetPacketType+0x34>)
 80050aa:	701a      	strb	r2, [r3, #0]

    if( packetType == PACKET_TYPE_GFSK )
 80050ac:	79fb      	ldrb	r3, [r7, #7]
 80050ae:	2b00      	cmp	r3, #0
 80050b0:	d104      	bne.n	80050bc <SUBGRF_SetPacketType+0x20>
    {
        SUBGRF_WriteRegister( REG_BIT_SYNC, 0x00 );
 80050b2:	2100      	movs	r1, #0
 80050b4:	f240 60ac 	movw	r0, #1708	@ 0x6ac
 80050b8:	f000 fafe 	bl	80056b8 <SUBGRF_WriteRegister>
    }
    SUBGRF_WriteCommand( RADIO_SET_PACKETTYPE, ( uint8_t* )&packetType, 1 );
 80050bc:	1dfb      	adds	r3, r7, #7
 80050be:	2201      	movs	r2, #1
 80050c0:	4619      	mov	r1, r3
 80050c2:	208a      	movs	r0, #138	@ 0x8a
 80050c4:	f000 fbc2 	bl	800584c <SUBGRF_WriteCommand>
}
 80050c8:	bf00      	nop
 80050ca:	3708      	adds	r7, #8
 80050cc:	46bd      	mov	sp, r7
 80050ce:	bd80      	pop	{r7, pc}
 80050d0:	20000231 	.word	0x20000231

080050d4 <SUBGRF_GetPacketType>:

RadioPacketTypes_t SUBGRF_GetPacketType( void )
{
 80050d4:	b480      	push	{r7}
 80050d6:	af00      	add	r7, sp, #0
    return PacketType;
 80050d8:	4b02      	ldr	r3, [pc, #8]	@ (80050e4 <SUBGRF_GetPacketType+0x10>)
 80050da:	781b      	ldrb	r3, [r3, #0]
}
 80050dc:	4618      	mov	r0, r3
 80050de:	46bd      	mov	sp, r7
 80050e0:	bc80      	pop	{r7}
 80050e2:	4770      	bx	lr
 80050e4:	20000231 	.word	0x20000231

080050e8 <SUBGRF_SetTxParams>:

void SUBGRF_SetTxParams( uint8_t paSelect, int8_t power, RadioRampTimes_t rampTime )
{
 80050e8:	b580      	push	{r7, lr}
 80050ea:	b084      	sub	sp, #16
 80050ec:	af00      	add	r7, sp, #0
 80050ee:	4603      	mov	r3, r0
 80050f0:	71fb      	strb	r3, [r7, #7]
 80050f2:	460b      	mov	r3, r1
 80050f4:	71bb      	strb	r3, [r7, #6]
 80050f6:	4613      	mov	r3, r2
 80050f8:	717b      	strb	r3, [r7, #5]
    uint8_t buf[2];
    int32_t max_power;

    if (paSelect == RFO_LP)
 80050fa:	79fb      	ldrb	r3, [r7, #7]
 80050fc:	2b01      	cmp	r3, #1
 80050fe:	d149      	bne.n	8005194 <SUBGRF_SetTxParams+0xac>
    {
        max_power = RBI_GetRFOMaxPowerConfig(RBI_RFO_LP_MAXPOWER);
 8005100:	2000      	movs	r0, #0
 8005102:	f000 fe70 	bl	8005de6 <RBI_GetRFOMaxPowerConfig>
 8005106:	60f8      	str	r0, [r7, #12]
        if (power >  max_power)
 8005108:	f997 3006 	ldrsb.w	r3, [r7, #6]
 800510c:	68fa      	ldr	r2, [r7, #12]
 800510e:	429a      	cmp	r2, r3
 8005110:	da01      	bge.n	8005116 <SUBGRF_SetTxParams+0x2e>
        {
          power = max_power;
 8005112:	68fb      	ldr	r3, [r7, #12]
 8005114:	71bb      	strb	r3, [r7, #6]
        }
        if (max_power == 14)
 8005116:	68fb      	ldr	r3, [r7, #12]
 8005118:	2b0e      	cmp	r3, #14
 800511a:	d10e      	bne.n	800513a <SUBGRF_SetTxParams+0x52>
        {
            SUBGRF_SetPaConfig(0x04, 0x00, 0x01, 0x01);
 800511c:	2301      	movs	r3, #1
 800511e:	2201      	movs	r2, #1
 8005120:	2100      	movs	r1, #0
 8005122:	2004      	movs	r0, #4
 8005124:	f7ff fef6 	bl	8004f14 <SUBGRF_SetPaConfig>
            power = 0x0E - (max_power - power);
 8005128:	79ba      	ldrb	r2, [r7, #6]
 800512a:	68fb      	ldr	r3, [r7, #12]
 800512c:	b2db      	uxtb	r3, r3
 800512e:	1ad3      	subs	r3, r2, r3
 8005130:	b2db      	uxtb	r3, r3
 8005132:	330e      	adds	r3, #14
 8005134:	b2db      	uxtb	r3, r3
 8005136:	71bb      	strb	r3, [r7, #6]
 8005138:	e01f      	b.n	800517a <SUBGRF_SetTxParams+0x92>
        }
        else if (max_power == 10)
 800513a:	68fb      	ldr	r3, [r7, #12]
 800513c:	2b0a      	cmp	r3, #10
 800513e:	d10e      	bne.n	800515e <SUBGRF_SetTxParams+0x76>
        {
            SUBGRF_SetPaConfig(0x01, 0x00, 0x01, 0x01);
 8005140:	2301      	movs	r3, #1
 8005142:	2201      	movs	r2, #1
 8005144:	2100      	movs	r1, #0
 8005146:	2001      	movs	r0, #1
 8005148:	f7ff fee4 	bl	8004f14 <SUBGRF_SetPaConfig>
            power = 0x0D - (max_power - power);
 800514c:	79ba      	ldrb	r2, [r7, #6]
 800514e:	68fb      	ldr	r3, [r7, #12]
 8005150:	b2db      	uxtb	r3, r3
 8005152:	1ad3      	subs	r3, r2, r3
 8005154:	b2db      	uxtb	r3, r3
 8005156:	330d      	adds	r3, #13
 8005158:	b2db      	uxtb	r3, r3
 800515a:	71bb      	strb	r3, [r7, #6]
 800515c:	e00d      	b.n	800517a <SUBGRF_SetTxParams+0x92>
        }
        else /*default 15dBm*/
        {
            SUBGRF_SetPaConfig(0x07, 0x00, 0x01, 0x01);
 800515e:	2301      	movs	r3, #1
 8005160:	2201      	movs	r2, #1
 8005162:	2100      	movs	r1, #0
 8005164:	2007      	movs	r0, #7
 8005166:	f7ff fed5 	bl	8004f14 <SUBGRF_SetPaConfig>
            power = 0x0E - (max_power - power);
 800516a:	79ba      	ldrb	r2, [r7, #6]
 800516c:	68fb      	ldr	r3, [r7, #12]
 800516e:	b2db      	uxtb	r3, r3
 8005170:	1ad3      	subs	r3, r2, r3
 8005172:	b2db      	uxtb	r3, r3
 8005174:	330e      	adds	r3, #14
 8005176:	b2db      	uxtb	r3, r3
 8005178:	71bb      	strb	r3, [r7, #6]
        }
        if (power < -17)
 800517a:	f997 3006 	ldrsb.w	r3, [r7, #6]
 800517e:	f113 0f11 	cmn.w	r3, #17
 8005182:	da01      	bge.n	8005188 <SUBGRF_SetTxParams+0xa0>
        {
            power = -17;
 8005184:	23ef      	movs	r3, #239	@ 0xef
 8005186:	71bb      	strb	r3, [r7, #6]
        }
        SUBGRF_WriteRegister(REG_OCP, 0x18);   /* current max is 80 mA for the whole device*/
 8005188:	2118      	movs	r1, #24
 800518a:	f640 00e7 	movw	r0, #2279	@ 0x8e7
 800518e:	f000 fa93 	bl	80056b8 <SUBGRF_WriteRegister>
 8005192:	e067      	b.n	8005264 <SUBGRF_SetTxParams+0x17c>
    }
    else /* rfo_hp*/
    {
        /* WORKAROUND - Better Resistance of the RFO High Power Tx to Antenna Mismatch, see STM32WL Erratasheet*/
        SUBGRF_WriteRegister(REG_TX_CLAMP, SUBGRF_ReadRegister(REG_TX_CLAMP) | (0x0F << 1));
 8005194:	f640 00d8 	movw	r0, #2264	@ 0x8d8
 8005198:	f000 fab0 	bl	80056fc <SUBGRF_ReadRegister>
 800519c:	4603      	mov	r3, r0
 800519e:	f043 031e 	orr.w	r3, r3, #30
 80051a2:	b2db      	uxtb	r3, r3
 80051a4:	4619      	mov	r1, r3
 80051a6:	f640 00d8 	movw	r0, #2264	@ 0x8d8
 80051aa:	f000 fa85 	bl	80056b8 <SUBGRF_WriteRegister>
        /* WORKAROUND END*/
        max_power = RBI_GetRFOMaxPowerConfig(RBI_RFO_HP_MAXPOWER);
 80051ae:	2001      	movs	r0, #1
 80051b0:	f000 fe19 	bl	8005de6 <RBI_GetRFOMaxPowerConfig>
 80051b4:	60f8      	str	r0, [r7, #12]
        if (power > max_power)
 80051b6:	f997 3006 	ldrsb.w	r3, [r7, #6]
 80051ba:	68fa      	ldr	r2, [r7, #12]
 80051bc:	429a      	cmp	r2, r3
 80051be:	da01      	bge.n	80051c4 <SUBGRF_SetTxParams+0xdc>
        {
            power = max_power;
 80051c0:	68fb      	ldr	r3, [r7, #12]
 80051c2:	71bb      	strb	r3, [r7, #6]
        }
        if (max_power == 20)
 80051c4:	68fb      	ldr	r3, [r7, #12]
 80051c6:	2b14      	cmp	r3, #20
 80051c8:	d10e      	bne.n	80051e8 <SUBGRF_SetTxParams+0x100>
        {
            SUBGRF_SetPaConfig(0x03, 0x05, 0x00, 0x01);
 80051ca:	2301      	movs	r3, #1
 80051cc:	2200      	movs	r2, #0
 80051ce:	2105      	movs	r1, #5
 80051d0:	2003      	movs	r0, #3
 80051d2:	f7ff fe9f 	bl	8004f14 <SUBGRF_SetPaConfig>
            power = 0x16 - (max_power - power);
 80051d6:	79ba      	ldrb	r2, [r7, #6]
 80051d8:	68fb      	ldr	r3, [r7, #12]
 80051da:	b2db      	uxtb	r3, r3
 80051dc:	1ad3      	subs	r3, r2, r3
 80051de:	b2db      	uxtb	r3, r3
 80051e0:	3316      	adds	r3, #22
 80051e2:	b2db      	uxtb	r3, r3
 80051e4:	71bb      	strb	r3, [r7, #6]
 80051e6:	e031      	b.n	800524c <SUBGRF_SetTxParams+0x164>
        }
        else if (max_power == 17)
 80051e8:	68fb      	ldr	r3, [r7, #12]
 80051ea:	2b11      	cmp	r3, #17
 80051ec:	d10e      	bne.n	800520c <SUBGRF_SetTxParams+0x124>
        {
            SUBGRF_SetPaConfig(0x02, 0x03, 0x00, 0x01);
 80051ee:	2301      	movs	r3, #1
 80051f0:	2200      	movs	r2, #0
 80051f2:	2103      	movs	r1, #3
 80051f4:	2002      	movs	r0, #2
 80051f6:	f7ff fe8d 	bl	8004f14 <SUBGRF_SetPaConfig>
            power = 0x16 - (max_power - power);
 80051fa:	79ba      	ldrb	r2, [r7, #6]
 80051fc:	68fb      	ldr	r3, [r7, #12]
 80051fe:	b2db      	uxtb	r3, r3
 8005200:	1ad3      	subs	r3, r2, r3
 8005202:	b2db      	uxtb	r3, r3
 8005204:	3316      	adds	r3, #22
 8005206:	b2db      	uxtb	r3, r3
 8005208:	71bb      	strb	r3, [r7, #6]
 800520a:	e01f      	b.n	800524c <SUBGRF_SetTxParams+0x164>
        }
        else if (max_power == 14)
 800520c:	68fb      	ldr	r3, [r7, #12]
 800520e:	2b0e      	cmp	r3, #14
 8005210:	d10e      	bne.n	8005230 <SUBGRF_SetTxParams+0x148>
        {
            SUBGRF_SetPaConfig(0x02, 0x02, 0x00, 0x01);
 8005212:	2301      	movs	r3, #1
 8005214:	2200      	movs	r2, #0
 8005216:	2102      	movs	r1, #2
 8005218:	2002      	movs	r0, #2
 800521a:	f7ff fe7b 	bl	8004f14 <SUBGRF_SetPaConfig>
            power = 0x0E - (max_power - power);
 800521e:	79ba      	ldrb	r2, [r7, #6]
 8005220:	68fb      	ldr	r3, [r7, #12]
 8005222:	b2db      	uxtb	r3, r3
 8005224:	1ad3      	subs	r3, r2, r3
 8005226:	b2db      	uxtb	r3, r3
 8005228:	330e      	adds	r3, #14
 800522a:	b2db      	uxtb	r3, r3
 800522c:	71bb      	strb	r3, [r7, #6]
 800522e:	e00d      	b.n	800524c <SUBGRF_SetTxParams+0x164>
        }
        else /*22dBm*/
        {
            SUBGRF_SetPaConfig(0x04, 0x07, 0x00, 0x01);
 8005230:	2301      	movs	r3, #1
 8005232:	2200      	movs	r2, #0
 8005234:	2107      	movs	r1, #7
 8005236:	2004      	movs	r0, #4
 8005238:	f7ff fe6c 	bl	8004f14 <SUBGRF_SetPaConfig>
            power = 0x16 - (max_power - power);
 800523c:	79ba      	ldrb	r2, [r7, #6]
 800523e:	68fb      	ldr	r3, [r7, #12]
 8005240:	b2db      	uxtb	r3, r3
 8005242:	1ad3      	subs	r3, r2, r3
 8005244:	b2db      	uxtb	r3, r3
 8005246:	3316      	adds	r3, #22
 8005248:	b2db      	uxtb	r3, r3
 800524a:	71bb      	strb	r3, [r7, #6]
        }
        if (power < -9)
 800524c:	f997 3006 	ldrsb.w	r3, [r7, #6]
 8005250:	f113 0f09 	cmn.w	r3, #9
 8005254:	da01      	bge.n	800525a <SUBGRF_SetTxParams+0x172>
        {
            power = -9;
 8005256:	23f7      	movs	r3, #247	@ 0xf7
 8005258:	71bb      	strb	r3, [r7, #6]
        }
        SUBGRF_WriteRegister(REG_OCP, 0x38);   /*current max 160mA for the whole device*/
 800525a:	2138      	movs	r1, #56	@ 0x38
 800525c:	f640 00e7 	movw	r0, #2279	@ 0x8e7
 8005260:	f000 fa2a 	bl	80056b8 <SUBGRF_WriteRegister>
    }
    buf[0] = power;
 8005264:	79bb      	ldrb	r3, [r7, #6]
 8005266:	723b      	strb	r3, [r7, #8]
    buf[1] = (uint8_t)rampTime;
 8005268:	797b      	ldrb	r3, [r7, #5]
 800526a:	727b      	strb	r3, [r7, #9]
    SUBGRF_WriteCommand(RADIO_SET_TXPARAMS, buf, 2);
 800526c:	f107 0308 	add.w	r3, r7, #8
 8005270:	2202      	movs	r2, #2
 8005272:	4619      	mov	r1, r3
 8005274:	208e      	movs	r0, #142	@ 0x8e
 8005276:	f000 fae9 	bl	800584c <SUBGRF_WriteCommand>
}
 800527a:	bf00      	nop
 800527c:	3710      	adds	r7, #16
 800527e:	46bd      	mov	sp, r7
 8005280:	bd80      	pop	{r7, pc}
	...

08005284 <SUBGRF_SetModulationParams>:

void SUBGRF_SetModulationParams( ModulationParams_t *modulationParams )
{
 8005284:	e92d 43b0 	stmdb	sp!, {r4, r5, r7, r8, r9, lr}
 8005288:	b086      	sub	sp, #24
 800528a:	af00      	add	r7, sp, #0
 800528c:	6078      	str	r0, [r7, #4]
    uint8_t n;
    uint32_t tempVal = 0;
 800528e:	2300      	movs	r3, #0
 8005290:	617b      	str	r3, [r7, #20]
    uint8_t buf[8] = { 0x00, 0x00, 0x00, 0x00, 0x00, 0x00, 0x00, 0x00 };
 8005292:	4a61      	ldr	r2, [pc, #388]	@ (8005418 <SUBGRF_SetModulationParams+0x194>)
 8005294:	f107 0308 	add.w	r3, r7, #8
 8005298:	e892 0003 	ldmia.w	r2, {r0, r1}
 800529c:	e883 0003 	stmia.w	r3, {r0, r1}

    // Check if required configuration corresponds to the stored packet type
    // If not, silently update radio packet type
    if( PacketType != modulationParams->PacketType )
 80052a0:	687b      	ldr	r3, [r7, #4]
 80052a2:	781a      	ldrb	r2, [r3, #0]
 80052a4:	4b5d      	ldr	r3, [pc, #372]	@ (800541c <SUBGRF_SetModulationParams+0x198>)
 80052a6:	781b      	ldrb	r3, [r3, #0]
 80052a8:	429a      	cmp	r2, r3
 80052aa:	d004      	beq.n	80052b6 <SUBGRF_SetModulationParams+0x32>
    {
        SUBGRF_SetPacketType( modulationParams->PacketType );
 80052ac:	687b      	ldr	r3, [r7, #4]
 80052ae:	781b      	ldrb	r3, [r3, #0]
 80052b0:	4618      	mov	r0, r3
 80052b2:	f7ff fef3 	bl	800509c <SUBGRF_SetPacketType>
    }

    switch( modulationParams->PacketType )
 80052b6:	687b      	ldr	r3, [r7, #4]
 80052b8:	781b      	ldrb	r3, [r3, #0]
 80052ba:	2b03      	cmp	r3, #3
 80052bc:	f200 80a5 	bhi.w	800540a <SUBGRF_SetModulationParams+0x186>
 80052c0:	a201      	add	r2, pc, #4	@ (adr r2, 80052c8 <SUBGRF_SetModulationParams+0x44>)
 80052c2:	f852 f023 	ldr.w	pc, [r2, r3, lsl #2]
 80052c6:	bf00      	nop
 80052c8:	080052d9 	.word	0x080052d9
 80052cc:	08005399 	.word	0x08005399
 80052d0:	0800535b 	.word	0x0800535b
 80052d4:	080053c7 	.word	0x080053c7
    {
    case PACKET_TYPE_GFSK:
        n = 8;
 80052d8:	2308      	movs	r3, #8
 80052da:	74fb      	strb	r3, [r7, #19]
        tempVal = ( uint32_t )(( 32 * XTAL_FREQ ) / modulationParams->Params.Gfsk.BitRate );
 80052dc:	687b      	ldr	r3, [r7, #4]
 80052de:	685b      	ldr	r3, [r3, #4]
 80052e0:	4a4f      	ldr	r2, [pc, #316]	@ (8005420 <SUBGRF_SetModulationParams+0x19c>)
 80052e2:	fbb2 f3f3 	udiv	r3, r2, r3
 80052e6:	617b      	str	r3, [r7, #20]
        buf[0] = ( tempVal >> 16 ) & 0xFF;
 80052e8:	697b      	ldr	r3, [r7, #20]
 80052ea:	0c1b      	lsrs	r3, r3, #16
 80052ec:	b2db      	uxtb	r3, r3
 80052ee:	723b      	strb	r3, [r7, #8]
        buf[1] = ( tempVal >> 8 ) & 0xFF;
 80052f0:	697b      	ldr	r3, [r7, #20]
 80052f2:	0a1b      	lsrs	r3, r3, #8
 80052f4:	b2db      	uxtb	r3, r3
 80052f6:	727b      	strb	r3, [r7, #9]
        buf[2] = tempVal & 0xFF;
 80052f8:	697b      	ldr	r3, [r7, #20]
 80052fa:	b2db      	uxtb	r3, r3
 80052fc:	72bb      	strb	r3, [r7, #10]
        buf[3] = modulationParams->Params.Gfsk.ModulationShaping;
 80052fe:	687b      	ldr	r3, [r7, #4]
 8005300:	7b1b      	ldrb	r3, [r3, #12]
 8005302:	72fb      	strb	r3, [r7, #11]
        buf[4] = modulationParams->Params.Gfsk.Bandwidth;
 8005304:	687b      	ldr	r3, [r7, #4]
 8005306:	7b5b      	ldrb	r3, [r3, #13]
 8005308:	733b      	strb	r3, [r7, #12]
        SX_FREQ_TO_CHANNEL(tempVal, modulationParams->Params.Gfsk.Fdev);
 800530a:	687b      	ldr	r3, [r7, #4]
 800530c:	689b      	ldr	r3, [r3, #8]
 800530e:	2200      	movs	r2, #0
 8005310:	461c      	mov	r4, r3
 8005312:	4615      	mov	r5, r2
 8005314:	ea4f 19d4 	mov.w	r9, r4, lsr #7
 8005318:	ea4f 6844 	mov.w	r8, r4, lsl #25
 800531c:	4a41      	ldr	r2, [pc, #260]	@ (8005424 <SUBGRF_SetModulationParams+0x1a0>)
 800531e:	f04f 0300 	mov.w	r3, #0
 8005322:	4640      	mov	r0, r8
 8005324:	4649      	mov	r1, r9
 8005326:	f7fa ff7b 	bl	8000220 <__aeabi_uldivmod>
 800532a:	4602      	mov	r2, r0
 800532c:	460b      	mov	r3, r1
 800532e:	4613      	mov	r3, r2
 8005330:	617b      	str	r3, [r7, #20]
        buf[5] = ( tempVal >> 16 ) & 0xFF;
 8005332:	697b      	ldr	r3, [r7, #20]
 8005334:	0c1b      	lsrs	r3, r3, #16
 8005336:	b2db      	uxtb	r3, r3
 8005338:	737b      	strb	r3, [r7, #13]
        buf[6] = ( tempVal >> 8 ) & 0xFF;
 800533a:	697b      	ldr	r3, [r7, #20]
 800533c:	0a1b      	lsrs	r3, r3, #8
 800533e:	b2db      	uxtb	r3, r3
 8005340:	73bb      	strb	r3, [r7, #14]
        buf[7] = ( tempVal& 0xFF );
 8005342:	697b      	ldr	r3, [r7, #20]
 8005344:	b2db      	uxtb	r3, r3
 8005346:	73fb      	strb	r3, [r7, #15]
        SUBGRF_WriteCommand( RADIO_SET_MODULATIONPARAMS, buf, n );
 8005348:	7cfb      	ldrb	r3, [r7, #19]
 800534a:	b29a      	uxth	r2, r3
 800534c:	f107 0308 	add.w	r3, r7, #8
 8005350:	4619      	mov	r1, r3
 8005352:	208b      	movs	r0, #139	@ 0x8b
 8005354:	f000 fa7a 	bl	800584c <SUBGRF_WriteCommand>
        break;
 8005358:	e058      	b.n	800540c <SUBGRF_SetModulationParams+0x188>
    case PACKET_TYPE_BPSK:
        n = 4;
 800535a:	2304      	movs	r3, #4
 800535c:	74fb      	strb	r3, [r7, #19]
        tempVal = ( uint32_t ) (( 32 * XTAL_FREQ) / modulationParams->Params.Bpsk.BitRate );
 800535e:	687b      	ldr	r3, [r7, #4]
 8005360:	691b      	ldr	r3, [r3, #16]
 8005362:	4a2f      	ldr	r2, [pc, #188]	@ (8005420 <SUBGRF_SetModulationParams+0x19c>)
 8005364:	fbb2 f3f3 	udiv	r3, r2, r3
 8005368:	617b      	str	r3, [r7, #20]
        buf[0] = ( tempVal >> 16 ) & 0xFF;
 800536a:	697b      	ldr	r3, [r7, #20]
 800536c:	0c1b      	lsrs	r3, r3, #16
 800536e:	b2db      	uxtb	r3, r3
 8005370:	723b      	strb	r3, [r7, #8]
        buf[1] = ( tempVal >> 8 ) & 0xFF;
 8005372:	697b      	ldr	r3, [r7, #20]
 8005374:	0a1b      	lsrs	r3, r3, #8
 8005376:	b2db      	uxtb	r3, r3
 8005378:	727b      	strb	r3, [r7, #9]
        buf[2] = tempVal & 0xFF;
 800537a:	697b      	ldr	r3, [r7, #20]
 800537c:	b2db      	uxtb	r3, r3
 800537e:	72bb      	strb	r3, [r7, #10]
        buf[3] = modulationParams->Params.Bpsk.ModulationShaping;
 8005380:	687b      	ldr	r3, [r7, #4]
 8005382:	7d1b      	ldrb	r3, [r3, #20]
 8005384:	72fb      	strb	r3, [r7, #11]
        SUBGRF_WriteCommand( RADIO_SET_MODULATIONPARAMS, buf, n );
 8005386:	7cfb      	ldrb	r3, [r7, #19]
 8005388:	b29a      	uxth	r2, r3
 800538a:	f107 0308 	add.w	r3, r7, #8
 800538e:	4619      	mov	r1, r3
 8005390:	208b      	movs	r0, #139	@ 0x8b
 8005392:	f000 fa5b 	bl	800584c <SUBGRF_WriteCommand>
        break;
 8005396:	e039      	b.n	800540c <SUBGRF_SetModulationParams+0x188>
    case PACKET_TYPE_LORA:
        n = 4;
 8005398:	2304      	movs	r3, #4
 800539a:	74fb      	strb	r3, [r7, #19]
        buf[0] = modulationParams->Params.LoRa.SpreadingFactor;
 800539c:	687b      	ldr	r3, [r7, #4]
 800539e:	7e1b      	ldrb	r3, [r3, #24]
 80053a0:	723b      	strb	r3, [r7, #8]
        buf[1] = modulationParams->Params.LoRa.Bandwidth;
 80053a2:	687b      	ldr	r3, [r7, #4]
 80053a4:	7e5b      	ldrb	r3, [r3, #25]
 80053a6:	727b      	strb	r3, [r7, #9]
        buf[2] = modulationParams->Params.LoRa.CodingRate;
 80053a8:	687b      	ldr	r3, [r7, #4]
 80053aa:	7e9b      	ldrb	r3, [r3, #26]
 80053ac:	72bb      	strb	r3, [r7, #10]
        buf[3] = modulationParams->Params.LoRa.LowDatarateOptimize;
 80053ae:	687b      	ldr	r3, [r7, #4]
 80053b0:	7edb      	ldrb	r3, [r3, #27]
 80053b2:	72fb      	strb	r3, [r7, #11]

        SUBGRF_WriteCommand( RADIO_SET_MODULATIONPARAMS, buf, n );
 80053b4:	7cfb      	ldrb	r3, [r7, #19]
 80053b6:	b29a      	uxth	r2, r3
 80053b8:	f107 0308 	add.w	r3, r7, #8
 80053bc:	4619      	mov	r1, r3
 80053be:	208b      	movs	r0, #139	@ 0x8b
 80053c0:	f000 fa44 	bl	800584c <SUBGRF_WriteCommand>

        break;
 80053c4:	e022      	b.n	800540c <SUBGRF_SetModulationParams+0x188>
    case PACKET_TYPE_GMSK:
        n = 5;
 80053c6:	2305      	movs	r3, #5
 80053c8:	74fb      	strb	r3, [r7, #19]
        tempVal = ( uint32_t )(( 32 *XTAL_FREQ) / modulationParams->Params.Gfsk.BitRate );
 80053ca:	687b      	ldr	r3, [r7, #4]
 80053cc:	685b      	ldr	r3, [r3, #4]
 80053ce:	4a14      	ldr	r2, [pc, #80]	@ (8005420 <SUBGRF_SetModulationParams+0x19c>)
 80053d0:	fbb2 f3f3 	udiv	r3, r2, r3
 80053d4:	617b      	str	r3, [r7, #20]
        buf[0] = ( tempVal >> 16 ) & 0xFF;
 80053d6:	697b      	ldr	r3, [r7, #20]
 80053d8:	0c1b      	lsrs	r3, r3, #16
 80053da:	b2db      	uxtb	r3, r3
 80053dc:	723b      	strb	r3, [r7, #8]
        buf[1] = ( tempVal >> 8 ) & 0xFF;
 80053de:	697b      	ldr	r3, [r7, #20]
 80053e0:	0a1b      	lsrs	r3, r3, #8
 80053e2:	b2db      	uxtb	r3, r3
 80053e4:	727b      	strb	r3, [r7, #9]
        buf[2] = tempVal & 0xFF;
 80053e6:	697b      	ldr	r3, [r7, #20]
 80053e8:	b2db      	uxtb	r3, r3
 80053ea:	72bb      	strb	r3, [r7, #10]
        buf[3] = modulationParams->Params.Gfsk.ModulationShaping;
 80053ec:	687b      	ldr	r3, [r7, #4]
 80053ee:	7b1b      	ldrb	r3, [r3, #12]
 80053f0:	72fb      	strb	r3, [r7, #11]
        buf[4] = modulationParams->Params.Gfsk.Bandwidth;
 80053f2:	687b      	ldr	r3, [r7, #4]
 80053f4:	7b5b      	ldrb	r3, [r3, #13]
 80053f6:	733b      	strb	r3, [r7, #12]
        SUBGRF_WriteCommand( RADIO_SET_MODULATIONPARAMS, buf, n );
 80053f8:	7cfb      	ldrb	r3, [r7, #19]
 80053fa:	b29a      	uxth	r2, r3
 80053fc:	f107 0308 	add.w	r3, r7, #8
 8005400:	4619      	mov	r1, r3
 8005402:	208b      	movs	r0, #139	@ 0x8b
 8005404:	f000 fa22 	bl	800584c <SUBGRF_WriteCommand>
        break;
 8005408:	e000      	b.n	800540c <SUBGRF_SetModulationParams+0x188>
    default:
    case PACKET_TYPE_NONE:
      break;
 800540a:	bf00      	nop
    }
}
 800540c:	bf00      	nop
 800540e:	3718      	adds	r7, #24
 8005410:	46bd      	mov	sp, r7
 8005412:	e8bd 83b0 	ldmia.w	sp!, {r4, r5, r7, r8, r9, pc}
 8005416:	bf00      	nop
 8005418:	080071e0 	.word	0x080071e0
 800541c:	20000231 	.word	0x20000231
 8005420:	3d090000 	.word	0x3d090000
 8005424:	01e84800 	.word	0x01e84800

08005428 <SUBGRF_SetPacketParams>:

void SUBGRF_SetPacketParams( PacketParams_t *packetParams )
{
 8005428:	b580      	push	{r7, lr}
 800542a:	b086      	sub	sp, #24
 800542c:	af00      	add	r7, sp, #0
 800542e:	6078      	str	r0, [r7, #4]
    uint8_t n;
    uint8_t crcVal = 0;
 8005430:	2300      	movs	r3, #0
 8005432:	75bb      	strb	r3, [r7, #22]
    uint8_t buf[9] = { 0x00, 0x00, 0x00, 0x00, 0x00, 0x00, 0x00, 0x00, 0x00 };
 8005434:	4a48      	ldr	r2, [pc, #288]	@ (8005558 <SUBGRF_SetPacketParams+0x130>)
 8005436:	f107 030c 	add.w	r3, r7, #12
 800543a:	ca07      	ldmia	r2, {r0, r1, r2}
 800543c:	c303      	stmia	r3!, {r0, r1}
 800543e:	701a      	strb	r2, [r3, #0]

    // Check if required configuration corresponds to the stored packet type
    // If not, silently update radio packet type
    if( PacketType != packetParams->PacketType )
 8005440:	687b      	ldr	r3, [r7, #4]
 8005442:	781a      	ldrb	r2, [r3, #0]
 8005444:	4b45      	ldr	r3, [pc, #276]	@ (800555c <SUBGRF_SetPacketParams+0x134>)
 8005446:	781b      	ldrb	r3, [r3, #0]
 8005448:	429a      	cmp	r2, r3
 800544a:	d004      	beq.n	8005456 <SUBGRF_SetPacketParams+0x2e>
    {
        SUBGRF_SetPacketType( packetParams->PacketType );
 800544c:	687b      	ldr	r3, [r7, #4]
 800544e:	781b      	ldrb	r3, [r3, #0]
 8005450:	4618      	mov	r0, r3
 8005452:	f7ff fe23 	bl	800509c <SUBGRF_SetPacketType>
    }

    switch( packetParams->PacketType )
 8005456:	687b      	ldr	r3, [r7, #4]
 8005458:	781b      	ldrb	r3, [r3, #0]
 800545a:	2b03      	cmp	r3, #3
 800545c:	d878      	bhi.n	8005550 <SUBGRF_SetPacketParams+0x128>
 800545e:	a201      	add	r2, pc, #4	@ (adr r2, 8005464 <SUBGRF_SetPacketParams+0x3c>)
 8005460:	f852 f023 	ldr.w	pc, [r2, r3, lsl #2]
 8005464:	08005475 	.word	0x08005475
 8005468:	08005505 	.word	0x08005505
 800546c:	080054f9 	.word	0x080054f9
 8005470:	08005475 	.word	0x08005475
    {
    case PACKET_TYPE_GMSK:
    case PACKET_TYPE_GFSK:
        if( packetParams->Params.Gfsk.CrcLength == RADIO_CRC_2_BYTES_IBM )
 8005474:	687b      	ldr	r3, [r7, #4]
 8005476:	7a5b      	ldrb	r3, [r3, #9]
 8005478:	2bf1      	cmp	r3, #241	@ 0xf1
 800547a:	d10a      	bne.n	8005492 <SUBGRF_SetPacketParams+0x6a>
        {
            SUBGRF_SetCrcSeed( CRC_IBM_SEED );
 800547c:	f64f 70ff 	movw	r0, #65535	@ 0xffff
 8005480:	f7ff faaa 	bl	80049d8 <SUBGRF_SetCrcSeed>
            SUBGRF_SetCrcPolynomial( CRC_POLYNOMIAL_IBM );
 8005484:	f248 0005 	movw	r0, #32773	@ 0x8005
 8005488:	f7ff fac6 	bl	8004a18 <SUBGRF_SetCrcPolynomial>
            crcVal = RADIO_CRC_2_BYTES;
 800548c:	2302      	movs	r3, #2
 800548e:	75bb      	strb	r3, [r7, #22]
 8005490:	e011      	b.n	80054b6 <SUBGRF_SetPacketParams+0x8e>
        }
        else if( packetParams->Params.Gfsk.CrcLength == RADIO_CRC_2_BYTES_CCIT )
 8005492:	687b      	ldr	r3, [r7, #4]
 8005494:	7a5b      	ldrb	r3, [r3, #9]
 8005496:	2bf2      	cmp	r3, #242	@ 0xf2
 8005498:	d10a      	bne.n	80054b0 <SUBGRF_SetPacketParams+0x88>
        {
            SUBGRF_SetCrcSeed( CRC_CCITT_SEED );
 800549a:	f641 500f 	movw	r0, #7439	@ 0x1d0f
 800549e:	f7ff fa9b 	bl	80049d8 <SUBGRF_SetCrcSeed>
            SUBGRF_SetCrcPolynomial( CRC_POLYNOMIAL_CCITT );
 80054a2:	f241 0021 	movw	r0, #4129	@ 0x1021
 80054a6:	f7ff fab7 	bl	8004a18 <SUBGRF_SetCrcPolynomial>
            crcVal = RADIO_CRC_2_BYTES_INV;
 80054aa:	2306      	movs	r3, #6
 80054ac:	75bb      	strb	r3, [r7, #22]
 80054ae:	e002      	b.n	80054b6 <SUBGRF_SetPacketParams+0x8e>
        }
        else
        {
            crcVal = packetParams->Params.Gfsk.CrcLength;
 80054b0:	687b      	ldr	r3, [r7, #4]
 80054b2:	7a5b      	ldrb	r3, [r3, #9]
 80054b4:	75bb      	strb	r3, [r7, #22]
        }
        n = 9;
 80054b6:	2309      	movs	r3, #9
 80054b8:	75fb      	strb	r3, [r7, #23]
        buf[0] = ( packetParams->Params.Gfsk.PreambleLength >> 8 ) & 0xFF;
 80054ba:	687b      	ldr	r3, [r7, #4]
 80054bc:	885b      	ldrh	r3, [r3, #2]
 80054be:	0a1b      	lsrs	r3, r3, #8
 80054c0:	b29b      	uxth	r3, r3
 80054c2:	b2db      	uxtb	r3, r3
 80054c4:	733b      	strb	r3, [r7, #12]
        buf[1] = packetParams->Params.Gfsk.PreambleLength;
 80054c6:	687b      	ldr	r3, [r7, #4]
 80054c8:	885b      	ldrh	r3, [r3, #2]
 80054ca:	b2db      	uxtb	r3, r3
 80054cc:	737b      	strb	r3, [r7, #13]
        buf[2] = packetParams->Params.Gfsk.PreambleMinDetect;
 80054ce:	687b      	ldr	r3, [r7, #4]
 80054d0:	791b      	ldrb	r3, [r3, #4]
 80054d2:	73bb      	strb	r3, [r7, #14]
        buf[3] = ( packetParams->Params.Gfsk.SyncWordLength /*<< 3*/ ); // convert from byte to bit
 80054d4:	687b      	ldr	r3, [r7, #4]
 80054d6:	795b      	ldrb	r3, [r3, #5]
 80054d8:	73fb      	strb	r3, [r7, #15]
        buf[4] = packetParams->Params.Gfsk.AddrComp;
 80054da:	687b      	ldr	r3, [r7, #4]
 80054dc:	799b      	ldrb	r3, [r3, #6]
 80054de:	743b      	strb	r3, [r7, #16]
        buf[5] = packetParams->Params.Gfsk.HeaderType;
 80054e0:	687b      	ldr	r3, [r7, #4]
 80054e2:	79db      	ldrb	r3, [r3, #7]
 80054e4:	747b      	strb	r3, [r7, #17]
        buf[6] = packetParams->Params.Gfsk.PayloadLength;
 80054e6:	687b      	ldr	r3, [r7, #4]
 80054e8:	7a1b      	ldrb	r3, [r3, #8]
 80054ea:	74bb      	strb	r3, [r7, #18]
        buf[7] = crcVal;
 80054ec:	7dbb      	ldrb	r3, [r7, #22]
 80054ee:	74fb      	strb	r3, [r7, #19]
        buf[8] = packetParams->Params.Gfsk.DcFree;
 80054f0:	687b      	ldr	r3, [r7, #4]
 80054f2:	7a9b      	ldrb	r3, [r3, #10]
 80054f4:	753b      	strb	r3, [r7, #20]
        break;
 80054f6:	e022      	b.n	800553e <SUBGRF_SetPacketParams+0x116>
    case PACKET_TYPE_BPSK:
        n = 1;
 80054f8:	2301      	movs	r3, #1
 80054fa:	75fb      	strb	r3, [r7, #23]
        buf[0] = packetParams->Params.Bpsk.PayloadLength;
 80054fc:	687b      	ldr	r3, [r7, #4]
 80054fe:	7b1b      	ldrb	r3, [r3, #12]
 8005500:	733b      	strb	r3, [r7, #12]
        break;
 8005502:	e01c      	b.n	800553e <SUBGRF_SetPacketParams+0x116>
    case PACKET_TYPE_LORA:
        n = 6;
 8005504:	2306      	movs	r3, #6
 8005506:	75fb      	strb	r3, [r7, #23]
        buf[0] = ( packetParams->Params.LoRa.PreambleLength >> 8 ) & 0xFF;
 8005508:	687b      	ldr	r3, [r7, #4]
 800550a:	89db      	ldrh	r3, [r3, #14]
 800550c:	0a1b      	lsrs	r3, r3, #8
 800550e:	b29b      	uxth	r3, r3
 8005510:	b2db      	uxtb	r3, r3
 8005512:	733b      	strb	r3, [r7, #12]
        buf[1] = packetParams->Params.LoRa.PreambleLength;
 8005514:	687b      	ldr	r3, [r7, #4]
 8005516:	89db      	ldrh	r3, [r3, #14]
 8005518:	b2db      	uxtb	r3, r3
 800551a:	737b      	strb	r3, [r7, #13]
        buf[2] = LoRaHeaderType = packetParams->Params.LoRa.HeaderType;
 800551c:	687b      	ldr	r3, [r7, #4]
 800551e:	7c1a      	ldrb	r2, [r3, #16]
 8005520:	4b0f      	ldr	r3, [pc, #60]	@ (8005560 <SUBGRF_SetPacketParams+0x138>)
 8005522:	4611      	mov	r1, r2
 8005524:	7019      	strb	r1, [r3, #0]
 8005526:	4613      	mov	r3, r2
 8005528:	73bb      	strb	r3, [r7, #14]
        buf[3] = packetParams->Params.LoRa.PayloadLength;
 800552a:	687b      	ldr	r3, [r7, #4]
 800552c:	7c5b      	ldrb	r3, [r3, #17]
 800552e:	73fb      	strb	r3, [r7, #15]
        buf[4] = packetParams->Params.LoRa.CrcMode;
 8005530:	687b      	ldr	r3, [r7, #4]
 8005532:	7c9b      	ldrb	r3, [r3, #18]
 8005534:	743b      	strb	r3, [r7, #16]
        buf[5] = packetParams->Params.LoRa.InvertIQ;
 8005536:	687b      	ldr	r3, [r7, #4]
 8005538:	7cdb      	ldrb	r3, [r3, #19]
 800553a:	747b      	strb	r3, [r7, #17]
        break;
 800553c:	bf00      	nop
    default:
    case PACKET_TYPE_NONE:
        return;
    }
    SUBGRF_WriteCommand( RADIO_SET_PACKETPARAMS, buf, n );
 800553e:	7dfb      	ldrb	r3, [r7, #23]
 8005540:	b29a      	uxth	r2, r3
 8005542:	f107 030c 	add.w	r3, r7, #12
 8005546:	4619      	mov	r1, r3
 8005548:	208c      	movs	r0, #140	@ 0x8c
 800554a:	f000 f97f 	bl	800584c <SUBGRF_WriteCommand>
 800554e:	e000      	b.n	8005552 <SUBGRF_SetPacketParams+0x12a>
        return;
 8005550:	bf00      	nop
}
 8005552:	3718      	adds	r7, #24
 8005554:	46bd      	mov	sp, r7
 8005556:	bd80      	pop	{r7, pc}
 8005558:	080071e8 	.word	0x080071e8
 800555c:	20000231 	.word	0x20000231
 8005560:	20000232 	.word	0x20000232

08005564 <SUBGRF_SetBufferBaseAddress>:
    SUBGRF_WriteCommand( RADIO_SET_CADPARAMS, buf, 7 );
    OperatingMode = MODE_CAD;
}

void SUBGRF_SetBufferBaseAddress( uint8_t txBaseAddress, uint8_t rxBaseAddress )
{
 8005564:	b580      	push	{r7, lr}
 8005566:	b084      	sub	sp, #16
 8005568:	af00      	add	r7, sp, #0
 800556a:	4603      	mov	r3, r0
 800556c:	460a      	mov	r2, r1
 800556e:	71fb      	strb	r3, [r7, #7]
 8005570:	4613      	mov	r3, r2
 8005572:	71bb      	strb	r3, [r7, #6]
    uint8_t buf[2];

    buf[0] = txBaseAddress;
 8005574:	79fb      	ldrb	r3, [r7, #7]
 8005576:	733b      	strb	r3, [r7, #12]
    buf[1] = rxBaseAddress;
 8005578:	79bb      	ldrb	r3, [r7, #6]
 800557a:	737b      	strb	r3, [r7, #13]
    SUBGRF_WriteCommand( RADIO_SET_BUFFERBASEADDRESS, buf, 2 );
 800557c:	f107 030c 	add.w	r3, r7, #12
 8005580:	2202      	movs	r2, #2
 8005582:	4619      	mov	r1, r3
 8005584:	208f      	movs	r0, #143	@ 0x8f
 8005586:	f000 f961 	bl	800584c <SUBGRF_WriteCommand>
}
 800558a:	bf00      	nop
 800558c:	3710      	adds	r7, #16
 800558e:	46bd      	mov	sp, r7
 8005590:	bd80      	pop	{r7, pc}

08005592 <SUBGRF_GetRssiInst>:
    status.Fields.ChipMode = ( stat & ( 0x07 << 4 ) ) >> 4;
    return status;
}

int8_t SUBGRF_GetRssiInst( void )
{
 8005592:	b580      	push	{r7, lr}
 8005594:	b082      	sub	sp, #8
 8005596:	af00      	add	r7, sp, #0
    uint8_t buf[1];
    int8_t rssi = 0;
 8005598:	2300      	movs	r3, #0
 800559a:	71fb      	strb	r3, [r7, #7]

    SUBGRF_ReadCommand( RADIO_GET_RSSIINST, buf, 1 );
 800559c:	1d3b      	adds	r3, r7, #4
 800559e:	2201      	movs	r2, #1
 80055a0:	4619      	mov	r1, r3
 80055a2:	2015      	movs	r0, #21
 80055a4:	f000 f974 	bl	8005890 <SUBGRF_ReadCommand>
    rssi = -buf[0] >> 1;
 80055a8:	793b      	ldrb	r3, [r7, #4]
 80055aa:	425b      	negs	r3, r3
 80055ac:	105b      	asrs	r3, r3, #1
 80055ae:	71fb      	strb	r3, [r7, #7]
    return rssi;
 80055b0:	f997 3007 	ldrsb.w	r3, [r7, #7]
}
 80055b4:	4618      	mov	r0, r3
 80055b6:	3708      	adds	r7, #8
 80055b8:	46bd      	mov	sp, r7
 80055ba:	bd80      	pop	{r7, pc}

080055bc <SUBGRF_GetRxBufferStatus>:

void SUBGRF_GetRxBufferStatus( uint8_t *payloadLength, uint8_t *rxStartBufferPointer )
{
 80055bc:	b580      	push	{r7, lr}
 80055be:	b084      	sub	sp, #16
 80055c0:	af00      	add	r7, sp, #0
 80055c2:	6078      	str	r0, [r7, #4]
 80055c4:	6039      	str	r1, [r7, #0]
    uint8_t status[2];

    SUBGRF_ReadCommand( RADIO_GET_RXBUFFERSTATUS, status, 2 );
 80055c6:	f107 030c 	add.w	r3, r7, #12
 80055ca:	2202      	movs	r2, #2
 80055cc:	4619      	mov	r1, r3
 80055ce:	2013      	movs	r0, #19
 80055d0:	f000 f95e 	bl	8005890 <SUBGRF_ReadCommand>

    // In case of LORA fixed header, the payloadLength is obtained by reading
    // the register REG_LR_PAYLOADLENGTH
    if( ( SUBGRF_GetPacketType( ) == PACKET_TYPE_LORA ) && ( LoRaHeaderType == LORA_PACKET_FIXED_LENGTH ) )
 80055d4:	f7ff fd7e 	bl	80050d4 <SUBGRF_GetPacketType>
 80055d8:	4603      	mov	r3, r0
 80055da:	2b01      	cmp	r3, #1
 80055dc:	d10d      	bne.n	80055fa <SUBGRF_GetRxBufferStatus+0x3e>
 80055de:	4b0c      	ldr	r3, [pc, #48]	@ (8005610 <SUBGRF_GetRxBufferStatus+0x54>)
 80055e0:	781b      	ldrb	r3, [r3, #0]
 80055e2:	b2db      	uxtb	r3, r3
 80055e4:	2b01      	cmp	r3, #1
 80055e6:	d108      	bne.n	80055fa <SUBGRF_GetRxBufferStatus+0x3e>
    {
        *payloadLength = SUBGRF_ReadRegister( REG_LR_PAYLOADLENGTH );
 80055e8:	f240 7002 	movw	r0, #1794	@ 0x702
 80055ec:	f000 f886 	bl	80056fc <SUBGRF_ReadRegister>
 80055f0:	4603      	mov	r3, r0
 80055f2:	461a      	mov	r2, r3
 80055f4:	687b      	ldr	r3, [r7, #4]
 80055f6:	701a      	strb	r2, [r3, #0]
 80055f8:	e002      	b.n	8005600 <SUBGRF_GetRxBufferStatus+0x44>
    }
    else
    {
        *payloadLength = status[0];
 80055fa:	7b3a      	ldrb	r2, [r7, #12]
 80055fc:	687b      	ldr	r3, [r7, #4]
 80055fe:	701a      	strb	r2, [r3, #0]
    }
    *rxStartBufferPointer = status[1];
 8005600:	7b7a      	ldrb	r2, [r7, #13]
 8005602:	683b      	ldr	r3, [r7, #0]
 8005604:	701a      	strb	r2, [r3, #0]
}
 8005606:	bf00      	nop
 8005608:	3710      	adds	r7, #16
 800560a:	46bd      	mov	sp, r7
 800560c:	bd80      	pop	{r7, pc}
 800560e:	bf00      	nop
 8005610:	20000232 	.word	0x20000232

08005614 <SUBGRF_GetPacketStatus>:

void SUBGRF_GetPacketStatus( PacketStatus_t *pktStatus )
{
 8005614:	b580      	push	{r7, lr}
 8005616:	b084      	sub	sp, #16
 8005618:	af00      	add	r7, sp, #0
 800561a:	6078      	str	r0, [r7, #4]
    uint8_t status[3];

    SUBGRF_ReadCommand( RADIO_GET_PACKETSTATUS, status, 3 );
 800561c:	f107 030c 	add.w	r3, r7, #12
 8005620:	2203      	movs	r2, #3
 8005622:	4619      	mov	r1, r3
 8005624:	2014      	movs	r0, #20
 8005626:	f000 f933 	bl	8005890 <SUBGRF_ReadCommand>

    pktStatus->packetType = SUBGRF_GetPacketType( );
 800562a:	f7ff fd53 	bl	80050d4 <SUBGRF_GetPacketType>
 800562e:	4603      	mov	r3, r0
 8005630:	461a      	mov	r2, r3
 8005632:	687b      	ldr	r3, [r7, #4]
 8005634:	701a      	strb	r2, [r3, #0]
    switch( pktStatus->packetType )
 8005636:	687b      	ldr	r3, [r7, #4]
 8005638:	781b      	ldrb	r3, [r3, #0]
 800563a:	2b00      	cmp	r3, #0
 800563c:	d002      	beq.n	8005644 <SUBGRF_GetPacketStatus+0x30>
 800563e:	2b01      	cmp	r3, #1
 8005640:	d013      	beq.n	800566a <SUBGRF_GetPacketStatus+0x56>
 8005642:	e02a      	b.n	800569a <SUBGRF_GetPacketStatus+0x86>
    {
        case PACKET_TYPE_GFSK:
            pktStatus->Params.Gfsk.RxStatus = status[0];
 8005644:	7b3a      	ldrb	r2, [r7, #12]
 8005646:	687b      	ldr	r3, [r7, #4]
 8005648:	711a      	strb	r2, [r3, #4]
            pktStatus->Params.Gfsk.RssiSync = -status[1] >> 1;
 800564a:	7b7b      	ldrb	r3, [r7, #13]
 800564c:	425b      	negs	r3, r3
 800564e:	105b      	asrs	r3, r3, #1
 8005650:	b25a      	sxtb	r2, r3
 8005652:	687b      	ldr	r3, [r7, #4]
 8005654:	719a      	strb	r2, [r3, #6]
            pktStatus->Params.Gfsk.RssiAvg = -status[2] >> 1;
 8005656:	7bbb      	ldrb	r3, [r7, #14]
 8005658:	425b      	negs	r3, r3
 800565a:	105b      	asrs	r3, r3, #1
 800565c:	b25a      	sxtb	r2, r3
 800565e:	687b      	ldr	r3, [r7, #4]
 8005660:	715a      	strb	r2, [r3, #5]
            pktStatus->Params.Gfsk.FreqError = 0;
 8005662:	687b      	ldr	r3, [r7, #4]
 8005664:	2200      	movs	r2, #0
 8005666:	609a      	str	r2, [r3, #8]
            break;
 8005668:	e020      	b.n	80056ac <SUBGRF_GetPacketStatus+0x98>

        case PACKET_TYPE_LORA:
            pktStatus->Params.LoRa.RssiPkt = -status[0] >> 1;
 800566a:	7b3b      	ldrb	r3, [r7, #12]
 800566c:	425b      	negs	r3, r3
 800566e:	105b      	asrs	r3, r3, #1
 8005670:	b25a      	sxtb	r2, r3
 8005672:	687b      	ldr	r3, [r7, #4]
 8005674:	731a      	strb	r2, [r3, #12]
            // Returns SNR value [dB] rounded to the nearest integer value
            pktStatus->Params.LoRa.SnrPkt = ( ( ( int8_t )status[1] ) + 2 ) >> 2;
 8005676:	7b7b      	ldrb	r3, [r7, #13]
 8005678:	b25b      	sxtb	r3, r3
 800567a:	3302      	adds	r3, #2
 800567c:	109b      	asrs	r3, r3, #2
 800567e:	b25a      	sxtb	r2, r3
 8005680:	687b      	ldr	r3, [r7, #4]
 8005682:	735a      	strb	r2, [r3, #13]
            pktStatus->Params.LoRa.SignalRssiPkt = -status[2] >> 1;
 8005684:	7bbb      	ldrb	r3, [r7, #14]
 8005686:	425b      	negs	r3, r3
 8005688:	105b      	asrs	r3, r3, #1
 800568a:	b25a      	sxtb	r2, r3
 800568c:	687b      	ldr	r3, [r7, #4]
 800568e:	739a      	strb	r2, [r3, #14]
            pktStatus->Params.LoRa.FreqError = FrequencyError;
 8005690:	4b08      	ldr	r3, [pc, #32]	@ (80056b4 <SUBGRF_GetPacketStatus+0xa0>)
 8005692:	681a      	ldr	r2, [r3, #0]
 8005694:	687b      	ldr	r3, [r7, #4]
 8005696:	611a      	str	r2, [r3, #16]
            break;
 8005698:	e008      	b.n	80056ac <SUBGRF_GetPacketStatus+0x98>

        default:
        case PACKET_TYPE_NONE:
            // In that specific case, we set everything in the pktStatus to zeros
            // and reset the packet type accordingly
            RADIO_MEMSET8( pktStatus, 0, sizeof( PacketStatus_t ) );
 800569a:	2214      	movs	r2, #20
 800569c:	2100      	movs	r1, #0
 800569e:	6878      	ldr	r0, [r7, #4]
 80056a0:	f000 fbd5 	bl	8005e4e <UTIL_MEM_set_8>
            pktStatus->packetType = PACKET_TYPE_NONE;
 80056a4:	687b      	ldr	r3, [r7, #4]
 80056a6:	220f      	movs	r2, #15
 80056a8:	701a      	strb	r2, [r3, #0]
            break;
 80056aa:	bf00      	nop
    }
}
 80056ac:	bf00      	nop
 80056ae:	3710      	adds	r7, #16
 80056b0:	46bd      	mov	sp, r7
 80056b2:	bd80      	pop	{r7, pc}
 80056b4:	20000234 	.word	0x20000234

080056b8 <SUBGRF_WriteRegister>:
    buf[1] = ( uint8_t )( ( uint16_t )irq & 0x00FF );
    SUBGRF_WriteCommand( RADIO_CLR_IRQSTATUS, buf, 2 );
}

void SUBGRF_WriteRegister( uint16_t addr, uint8_t data )
{
 80056b8:	b580      	push	{r7, lr}
 80056ba:	b086      	sub	sp, #24
 80056bc:	af00      	add	r7, sp, #0
 80056be:	4603      	mov	r3, r0
 80056c0:	460a      	mov	r2, r1
 80056c2:	80fb      	strh	r3, [r7, #6]
 80056c4:	4613      	mov	r3, r2
 80056c6:	717b      	strb	r3, [r7, #5]
 */
__STATIC_FORCEINLINE uint32_t __get_PRIMASK(void)
{
  uint32_t result;

  __ASM volatile ("MRS %0, primask" : "=r" (result) :: "memory");
 80056c8:	f3ef 8310 	mrs	r3, PRIMASK
 80056cc:	60fb      	str	r3, [r7, #12]
  return(result);
 80056ce:	68fb      	ldr	r3, [r7, #12]
    CRITICAL_SECTION_BEGIN();
 80056d0:	617b      	str	r3, [r7, #20]
  __ASM volatile ("cpsid i" : : : "memory");
 80056d2:	b672      	cpsid	i
}
 80056d4:	bf00      	nop
    HAL_SUBGHZ_WriteRegisters( &hsubghz, addr, (uint8_t*)&data, 1 );
 80056d6:	1d7a      	adds	r2, r7, #5
 80056d8:	88f9      	ldrh	r1, [r7, #6]
 80056da:	2301      	movs	r3, #1
 80056dc:	4806      	ldr	r0, [pc, #24]	@ (80056f8 <SUBGRF_WriteRegister+0x40>)
 80056de:	f7fc fdf9 	bl	80022d4 <HAL_SUBGHZ_WriteRegisters>
 80056e2:	697b      	ldr	r3, [r7, #20]
 80056e4:	613b      	str	r3, [r7, #16]
  \details Assigns the given value to the Priority Mask Register.
  \param [in]    priMask  Priority Mask
 */
__STATIC_FORCEINLINE void __set_PRIMASK(uint32_t priMask)
{
  __ASM volatile ("MSR primask, %0" : : "r" (priMask) : "memory");
 80056e6:	693b      	ldr	r3, [r7, #16]
 80056e8:	f383 8810 	msr	PRIMASK, r3
}
 80056ec:	bf00      	nop
    CRITICAL_SECTION_END();
}
 80056ee:	bf00      	nop
 80056f0:	3718      	adds	r7, #24
 80056f2:	46bd      	mov	sp, r7
 80056f4:	bd80      	pop	{r7, pc}
 80056f6:	bf00      	nop
 80056f8:	20000084 	.word	0x20000084

080056fc <SUBGRF_ReadRegister>:

uint8_t SUBGRF_ReadRegister( uint16_t addr )
{
 80056fc:	b580      	push	{r7, lr}
 80056fe:	b086      	sub	sp, #24
 8005700:	af00      	add	r7, sp, #0
 8005702:	4603      	mov	r3, r0
 8005704:	80fb      	strh	r3, [r7, #6]
  __ASM volatile ("MRS %0, primask" : "=r" (result) :: "memory");
 8005706:	f3ef 8310 	mrs	r3, PRIMASK
 800570a:	60fb      	str	r3, [r7, #12]
  return(result);
 800570c:	68fb      	ldr	r3, [r7, #12]
    uint8_t data;
    CRITICAL_SECTION_BEGIN();
 800570e:	617b      	str	r3, [r7, #20]
  __ASM volatile ("cpsid i" : : : "memory");
 8005710:	b672      	cpsid	i
}
 8005712:	bf00      	nop
    HAL_SUBGHZ_ReadRegisters( &hsubghz, addr, &data, 1 );
 8005714:	f107 020b 	add.w	r2, r7, #11
 8005718:	88f9      	ldrh	r1, [r7, #6]
 800571a:	2301      	movs	r3, #1
 800571c:	4806      	ldr	r0, [pc, #24]	@ (8005738 <SUBGRF_ReadRegister+0x3c>)
 800571e:	f7fc fe38 	bl	8002392 <HAL_SUBGHZ_ReadRegisters>
 8005722:	697b      	ldr	r3, [r7, #20]
 8005724:	613b      	str	r3, [r7, #16]
  __ASM volatile ("MSR primask, %0" : : "r" (priMask) : "memory");
 8005726:	693b      	ldr	r3, [r7, #16]
 8005728:	f383 8810 	msr	PRIMASK, r3
}
 800572c:	bf00      	nop
    CRITICAL_SECTION_END();
    return data;
 800572e:	7afb      	ldrb	r3, [r7, #11]
}
 8005730:	4618      	mov	r0, r3
 8005732:	3718      	adds	r7, #24
 8005734:	46bd      	mov	sp, r7
 8005736:	bd80      	pop	{r7, pc}
 8005738:	20000084 	.word	0x20000084

0800573c <SUBGRF_WriteRegisters>:

void SUBGRF_WriteRegisters( uint16_t address, uint8_t *buffer, uint16_t size )
{
 800573c:	b580      	push	{r7, lr}
 800573e:	b086      	sub	sp, #24
 8005740:	af00      	add	r7, sp, #0
 8005742:	4603      	mov	r3, r0
 8005744:	6039      	str	r1, [r7, #0]
 8005746:	80fb      	strh	r3, [r7, #6]
 8005748:	4613      	mov	r3, r2
 800574a:	80bb      	strh	r3, [r7, #4]
  __ASM volatile ("MRS %0, primask" : "=r" (result) :: "memory");
 800574c:	f3ef 8310 	mrs	r3, PRIMASK
 8005750:	60fb      	str	r3, [r7, #12]
  return(result);
 8005752:	68fb      	ldr	r3, [r7, #12]
    CRITICAL_SECTION_BEGIN();
 8005754:	617b      	str	r3, [r7, #20]
  __ASM volatile ("cpsid i" : : : "memory");
 8005756:	b672      	cpsid	i
}
 8005758:	bf00      	nop
    HAL_SUBGHZ_WriteRegisters( &hsubghz, address, buffer, size );
 800575a:	88bb      	ldrh	r3, [r7, #4]
 800575c:	88f9      	ldrh	r1, [r7, #6]
 800575e:	683a      	ldr	r2, [r7, #0]
 8005760:	4806      	ldr	r0, [pc, #24]	@ (800577c <SUBGRF_WriteRegisters+0x40>)
 8005762:	f7fc fdb7 	bl	80022d4 <HAL_SUBGHZ_WriteRegisters>
 8005766:	697b      	ldr	r3, [r7, #20]
 8005768:	613b      	str	r3, [r7, #16]
  __ASM volatile ("MSR primask, %0" : : "r" (priMask) : "memory");
 800576a:	693b      	ldr	r3, [r7, #16]
 800576c:	f383 8810 	msr	PRIMASK, r3
}
 8005770:	bf00      	nop
    CRITICAL_SECTION_END();
}
 8005772:	bf00      	nop
 8005774:	3718      	adds	r7, #24
 8005776:	46bd      	mov	sp, r7
 8005778:	bd80      	pop	{r7, pc}
 800577a:	bf00      	nop
 800577c:	20000084 	.word	0x20000084

08005780 <SUBGRF_ReadRegisters>:

void SUBGRF_ReadRegisters( uint16_t address, uint8_t *buffer, uint16_t size )
{
 8005780:	b580      	push	{r7, lr}
 8005782:	b086      	sub	sp, #24
 8005784:	af00      	add	r7, sp, #0
 8005786:	4603      	mov	r3, r0
 8005788:	6039      	str	r1, [r7, #0]
 800578a:	80fb      	strh	r3, [r7, #6]
 800578c:	4613      	mov	r3, r2
 800578e:	80bb      	strh	r3, [r7, #4]
  __ASM volatile ("MRS %0, primask" : "=r" (result) :: "memory");
 8005790:	f3ef 8310 	mrs	r3, PRIMASK
 8005794:	60fb      	str	r3, [r7, #12]
  return(result);
 8005796:	68fb      	ldr	r3, [r7, #12]
    CRITICAL_SECTION_BEGIN();
 8005798:	617b      	str	r3, [r7, #20]
  __ASM volatile ("cpsid i" : : : "memory");
 800579a:	b672      	cpsid	i
}
 800579c:	bf00      	nop
    HAL_SUBGHZ_ReadRegisters( &hsubghz, address, buffer, size );
 800579e:	88bb      	ldrh	r3, [r7, #4]
 80057a0:	88f9      	ldrh	r1, [r7, #6]
 80057a2:	683a      	ldr	r2, [r7, #0]
 80057a4:	4806      	ldr	r0, [pc, #24]	@ (80057c0 <SUBGRF_ReadRegisters+0x40>)
 80057a6:	f7fc fdf4 	bl	8002392 <HAL_SUBGHZ_ReadRegisters>
 80057aa:	697b      	ldr	r3, [r7, #20]
 80057ac:	613b      	str	r3, [r7, #16]
  __ASM volatile ("MSR primask, %0" : : "r" (priMask) : "memory");
 80057ae:	693b      	ldr	r3, [r7, #16]
 80057b0:	f383 8810 	msr	PRIMASK, r3
}
 80057b4:	bf00      	nop
    CRITICAL_SECTION_END();
}
 80057b6:	bf00      	nop
 80057b8:	3718      	adds	r7, #24
 80057ba:	46bd      	mov	sp, r7
 80057bc:	bd80      	pop	{r7, pc}
 80057be:	bf00      	nop
 80057c0:	20000084 	.word	0x20000084

080057c4 <SUBGRF_WriteBuffer>:

void SUBGRF_WriteBuffer( uint8_t offset, uint8_t *buffer, uint8_t size )
{
 80057c4:	b580      	push	{r7, lr}
 80057c6:	b086      	sub	sp, #24
 80057c8:	af00      	add	r7, sp, #0
 80057ca:	4603      	mov	r3, r0
 80057cc:	6039      	str	r1, [r7, #0]
 80057ce:	71fb      	strb	r3, [r7, #7]
 80057d0:	4613      	mov	r3, r2
 80057d2:	71bb      	strb	r3, [r7, #6]
  __ASM volatile ("MRS %0, primask" : "=r" (result) :: "memory");
 80057d4:	f3ef 8310 	mrs	r3, PRIMASK
 80057d8:	60fb      	str	r3, [r7, #12]
  return(result);
 80057da:	68fb      	ldr	r3, [r7, #12]
    CRITICAL_SECTION_BEGIN();
 80057dc:	617b      	str	r3, [r7, #20]
  __ASM volatile ("cpsid i" : : : "memory");
 80057de:	b672      	cpsid	i
}
 80057e0:	bf00      	nop
    HAL_SUBGHZ_WriteBuffer( &hsubghz, offset, buffer, size );
 80057e2:	79bb      	ldrb	r3, [r7, #6]
 80057e4:	b29b      	uxth	r3, r3
 80057e6:	79f9      	ldrb	r1, [r7, #7]
 80057e8:	683a      	ldr	r2, [r7, #0]
 80057ea:	4806      	ldr	r0, [pc, #24]	@ (8005804 <SUBGRF_WriteBuffer+0x40>)
 80057ec:	f7fc fee5 	bl	80025ba <HAL_SUBGHZ_WriteBuffer>
 80057f0:	697b      	ldr	r3, [r7, #20]
 80057f2:	613b      	str	r3, [r7, #16]
  __ASM volatile ("MSR primask, %0" : : "r" (priMask) : "memory");
 80057f4:	693b      	ldr	r3, [r7, #16]
 80057f6:	f383 8810 	msr	PRIMASK, r3
}
 80057fa:	bf00      	nop
    CRITICAL_SECTION_END();
}
 80057fc:	bf00      	nop
 80057fe:	3718      	adds	r7, #24
 8005800:	46bd      	mov	sp, r7
 8005802:	bd80      	pop	{r7, pc}
 8005804:	20000084 	.word	0x20000084

08005808 <SUBGRF_ReadBuffer>:

void SUBGRF_ReadBuffer( uint8_t offset, uint8_t *buffer, uint8_t size )
{
 8005808:	b580      	push	{r7, lr}
 800580a:	b086      	sub	sp, #24
 800580c:	af00      	add	r7, sp, #0
 800580e:	4603      	mov	r3, r0
 8005810:	6039      	str	r1, [r7, #0]
 8005812:	71fb      	strb	r3, [r7, #7]
 8005814:	4613      	mov	r3, r2
 8005816:	71bb      	strb	r3, [r7, #6]
  __ASM volatile ("MRS %0, primask" : "=r" (result) :: "memory");
 8005818:	f3ef 8310 	mrs	r3, PRIMASK
 800581c:	60fb      	str	r3, [r7, #12]
  return(result);
 800581e:	68fb      	ldr	r3, [r7, #12]
    CRITICAL_SECTION_BEGIN();
 8005820:	617b      	str	r3, [r7, #20]
  __ASM volatile ("cpsid i" : : : "memory");
 8005822:	b672      	cpsid	i
}
 8005824:	bf00      	nop
    HAL_SUBGHZ_ReadBuffer( &hsubghz, offset, buffer, size );
 8005826:	79bb      	ldrb	r3, [r7, #6]
 8005828:	b29b      	uxth	r3, r3
 800582a:	79f9      	ldrb	r1, [r7, #7]
 800582c:	683a      	ldr	r2, [r7, #0]
 800582e:	4806      	ldr	r0, [pc, #24]	@ (8005848 <SUBGRF_ReadBuffer+0x40>)
 8005830:	f7fc ff16 	bl	8002660 <HAL_SUBGHZ_ReadBuffer>
 8005834:	697b      	ldr	r3, [r7, #20]
 8005836:	613b      	str	r3, [r7, #16]
  __ASM volatile ("MSR primask, %0" : : "r" (priMask) : "memory");
 8005838:	693b      	ldr	r3, [r7, #16]
 800583a:	f383 8810 	msr	PRIMASK, r3
}
 800583e:	bf00      	nop
    CRITICAL_SECTION_END();
}
 8005840:	bf00      	nop
 8005842:	3718      	adds	r7, #24
 8005844:	46bd      	mov	sp, r7
 8005846:	bd80      	pop	{r7, pc}
 8005848:	20000084 	.word	0x20000084

0800584c <SUBGRF_WriteCommand>:

void SUBGRF_WriteCommand( SUBGHZ_RadioSetCmd_t Command, uint8_t *pBuffer,
                                        uint16_t Size )
{
 800584c:	b580      	push	{r7, lr}
 800584e:	b086      	sub	sp, #24
 8005850:	af00      	add	r7, sp, #0
 8005852:	4603      	mov	r3, r0
 8005854:	6039      	str	r1, [r7, #0]
 8005856:	71fb      	strb	r3, [r7, #7]
 8005858:	4613      	mov	r3, r2
 800585a:	80bb      	strh	r3, [r7, #4]
  __ASM volatile ("MRS %0, primask" : "=r" (result) :: "memory");
 800585c:	f3ef 8310 	mrs	r3, PRIMASK
 8005860:	60fb      	str	r3, [r7, #12]
  return(result);
 8005862:	68fb      	ldr	r3, [r7, #12]
    CRITICAL_SECTION_BEGIN();
 8005864:	617b      	str	r3, [r7, #20]
  __ASM volatile ("cpsid i" : : : "memory");
 8005866:	b672      	cpsid	i
}
 8005868:	bf00      	nop
    HAL_SUBGHZ_ExecSetCmd( &hsubghz, Command, pBuffer, Size );
 800586a:	88bb      	ldrh	r3, [r7, #4]
 800586c:	79f9      	ldrb	r1, [r7, #7]
 800586e:	683a      	ldr	r2, [r7, #0]
 8005870:	4806      	ldr	r0, [pc, #24]	@ (800588c <SUBGRF_WriteCommand+0x40>)
 8005872:	f7fc fdef 	bl	8002454 <HAL_SUBGHZ_ExecSetCmd>
 8005876:	697b      	ldr	r3, [r7, #20]
 8005878:	613b      	str	r3, [r7, #16]
  __ASM volatile ("MSR primask, %0" : : "r" (priMask) : "memory");
 800587a:	693b      	ldr	r3, [r7, #16]
 800587c:	f383 8810 	msr	PRIMASK, r3
}
 8005880:	bf00      	nop
    CRITICAL_SECTION_END();
}
 8005882:	bf00      	nop
 8005884:	3718      	adds	r7, #24
 8005886:	46bd      	mov	sp, r7
 8005888:	bd80      	pop	{r7, pc}
 800588a:	bf00      	nop
 800588c:	20000084 	.word	0x20000084

08005890 <SUBGRF_ReadCommand>:

void SUBGRF_ReadCommand( SUBGHZ_RadioGetCmd_t Command, uint8_t *pBuffer,
                                        uint16_t Size )
{
 8005890:	b580      	push	{r7, lr}
 8005892:	b086      	sub	sp, #24
 8005894:	af00      	add	r7, sp, #0
 8005896:	4603      	mov	r3, r0
 8005898:	6039      	str	r1, [r7, #0]
 800589a:	71fb      	strb	r3, [r7, #7]
 800589c:	4613      	mov	r3, r2
 800589e:	80bb      	strh	r3, [r7, #4]
  __ASM volatile ("MRS %0, primask" : "=r" (result) :: "memory");
 80058a0:	f3ef 8310 	mrs	r3, PRIMASK
 80058a4:	60fb      	str	r3, [r7, #12]
  return(result);
 80058a6:	68fb      	ldr	r3, [r7, #12]
    CRITICAL_SECTION_BEGIN();
 80058a8:	617b      	str	r3, [r7, #20]
  __ASM volatile ("cpsid i" : : : "memory");
 80058aa:	b672      	cpsid	i
}
 80058ac:	bf00      	nop
    HAL_SUBGHZ_ExecGetCmd( &hsubghz, Command, pBuffer, Size );
 80058ae:	88bb      	ldrh	r3, [r7, #4]
 80058b0:	79f9      	ldrb	r1, [r7, #7]
 80058b2:	683a      	ldr	r2, [r7, #0]
 80058b4:	4806      	ldr	r0, [pc, #24]	@ (80058d0 <SUBGRF_ReadCommand+0x40>)
 80058b6:	f7fc fe2c 	bl	8002512 <HAL_SUBGHZ_ExecGetCmd>
 80058ba:	697b      	ldr	r3, [r7, #20]
 80058bc:	613b      	str	r3, [r7, #16]
  __ASM volatile ("MSR primask, %0" : : "r" (priMask) : "memory");
 80058be:	693b      	ldr	r3, [r7, #16]
 80058c0:	f383 8810 	msr	PRIMASK, r3
}
 80058c4:	bf00      	nop
    CRITICAL_SECTION_END();
}
 80058c6:	bf00      	nop
 80058c8:	3718      	adds	r7, #24
 80058ca:	46bd      	mov	sp, r7
 80058cc:	bd80      	pop	{r7, pc}
 80058ce:	bf00      	nop
 80058d0:	20000084 	.word	0x20000084

080058d4 <SUBGRF_SetSwitch>:

void SUBGRF_SetSwitch( uint8_t paSelect, RFState_t rxtx )
{
 80058d4:	b580      	push	{r7, lr}
 80058d6:	b084      	sub	sp, #16
 80058d8:	af00      	add	r7, sp, #0
 80058da:	4603      	mov	r3, r0
 80058dc:	460a      	mov	r2, r1
 80058de:	71fb      	strb	r3, [r7, #7]
 80058e0:	4613      	mov	r3, r2
 80058e2:	71bb      	strb	r3, [r7, #6]
    RBI_Switch_TypeDef state = RBI_SWITCH_RX;
 80058e4:	2301      	movs	r3, #1
 80058e6:	73fb      	strb	r3, [r7, #15]

    if (rxtx == RFSWITCH_TX)
 80058e8:	79bb      	ldrb	r3, [r7, #6]
 80058ea:	2b01      	cmp	r3, #1
 80058ec:	d10d      	bne.n	800590a <SUBGRF_SetSwitch+0x36>
    {
        if (paSelect == RFO_LP)
 80058ee:	79fb      	ldrb	r3, [r7, #7]
 80058f0:	2b01      	cmp	r3, #1
 80058f2:	d104      	bne.n	80058fe <SUBGRF_SetSwitch+0x2a>
        {
            state = RBI_SWITCH_RFO_LP;
 80058f4:	2302      	movs	r3, #2
 80058f6:	73fb      	strb	r3, [r7, #15]
            Radio_SMPS_Set(SMPS_DRIVE_SETTING_MAX);
 80058f8:	2004      	movs	r0, #4
 80058fa:	f000 f84e 	bl	800599a <Radio_SMPS_Set>
        }
        if (paSelect == RFO_HP)
 80058fe:	79fb      	ldrb	r3, [r7, #7]
 8005900:	2b02      	cmp	r3, #2
 8005902:	d107      	bne.n	8005914 <SUBGRF_SetSwitch+0x40>
        {
            state = RBI_SWITCH_RFO_HP;
 8005904:	2303      	movs	r3, #3
 8005906:	73fb      	strb	r3, [r7, #15]
 8005908:	e004      	b.n	8005914 <SUBGRF_SetSwitch+0x40>
        }
    }
    else
    {
        if (rxtx == RFSWITCH_RX)
 800590a:	79bb      	ldrb	r3, [r7, #6]
 800590c:	2b00      	cmp	r3, #0
 800590e:	d101      	bne.n	8005914 <SUBGRF_SetSwitch+0x40>
        {
            state = RBI_SWITCH_RX;
 8005910:	2301      	movs	r3, #1
 8005912:	73fb      	strb	r3, [r7, #15]
        }
    }
    RBI_ConfigRFSwitch(state);
 8005914:	7bfb      	ldrb	r3, [r7, #15]
 8005916:	4618      	mov	r0, r3
 8005918:	f000 fa37 	bl	8005d8a <RBI_ConfigRFSwitch>
}
 800591c:	bf00      	nop
 800591e:	3710      	adds	r7, #16
 8005920:	46bd      	mov	sp, r7
 8005922:	bd80      	pop	{r7, pc}

08005924 <SUBGRF_SetRfTxPower>:

uint8_t SUBGRF_SetRfTxPower( int8_t power )
{
 8005924:	b580      	push	{r7, lr}
 8005926:	b084      	sub	sp, #16
 8005928:	af00      	add	r7, sp, #0
 800592a:	4603      	mov	r3, r0
 800592c:	71fb      	strb	r3, [r7, #7]
    uint8_t paSelect= RFO_LP;
 800592e:	2301      	movs	r3, #1
 8005930:	73fb      	strb	r3, [r7, #15]

    int32_t TxConfig = RBI_GetTxConfig();
 8005932:	f000 fa37 	bl	8005da4 <RBI_GetTxConfig>
 8005936:	60b8      	str	r0, [r7, #8]

    switch (TxConfig)
 8005938:	68bb      	ldr	r3, [r7, #8]
 800593a:	2b02      	cmp	r3, #2
 800593c:	d016      	beq.n	800596c <SUBGRF_SetRfTxPower+0x48>
 800593e:	68bb      	ldr	r3, [r7, #8]
 8005940:	2b02      	cmp	r3, #2
 8005942:	dc16      	bgt.n	8005972 <SUBGRF_SetRfTxPower+0x4e>
 8005944:	68bb      	ldr	r3, [r7, #8]
 8005946:	2b00      	cmp	r3, #0
 8005948:	d003      	beq.n	8005952 <SUBGRF_SetRfTxPower+0x2e>
 800594a:	68bb      	ldr	r3, [r7, #8]
 800594c:	2b01      	cmp	r3, #1
 800594e:	d00a      	beq.n	8005966 <SUBGRF_SetRfTxPower+0x42>
        {
            paSelect = RFO_HP;
            break;
        }
        default:
            break;
 8005950:	e00f      	b.n	8005972 <SUBGRF_SetRfTxPower+0x4e>
            if (power > 15)
 8005952:	f997 3007 	ldrsb.w	r3, [r7, #7]
 8005956:	2b0f      	cmp	r3, #15
 8005958:	dd02      	ble.n	8005960 <SUBGRF_SetRfTxPower+0x3c>
                paSelect = RFO_HP;
 800595a:	2302      	movs	r3, #2
 800595c:	73fb      	strb	r3, [r7, #15]
            break;
 800595e:	e009      	b.n	8005974 <SUBGRF_SetRfTxPower+0x50>
                paSelect = RFO_LP;
 8005960:	2301      	movs	r3, #1
 8005962:	73fb      	strb	r3, [r7, #15]
            break;
 8005964:	e006      	b.n	8005974 <SUBGRF_SetRfTxPower+0x50>
            paSelect = RFO_LP;
 8005966:	2301      	movs	r3, #1
 8005968:	73fb      	strb	r3, [r7, #15]
            break;
 800596a:	e003      	b.n	8005974 <SUBGRF_SetRfTxPower+0x50>
            paSelect = RFO_HP;
 800596c:	2302      	movs	r3, #2
 800596e:	73fb      	strb	r3, [r7, #15]
            break;
 8005970:	e000      	b.n	8005974 <SUBGRF_SetRfTxPower+0x50>
            break;
 8005972:	bf00      	nop
    }

    SUBGRF_SetTxParams( paSelect, power, RADIO_RAMP_40_US );
 8005974:	f997 1007 	ldrsb.w	r1, [r7, #7]
 8005978:	7bfb      	ldrb	r3, [r7, #15]
 800597a:	2202      	movs	r2, #2
 800597c:	4618      	mov	r0, r3
 800597e:	f7ff fbb3 	bl	80050e8 <SUBGRF_SetTxParams>

    return paSelect;
 8005982:	7bfb      	ldrb	r3, [r7, #15]
}
 8005984:	4618      	mov	r0, r3
 8005986:	3710      	adds	r7, #16
 8005988:	46bd      	mov	sp, r7
 800598a:	bd80      	pop	{r7, pc}

0800598c <SUBGRF_GetRadioWakeUpTime>:

uint32_t SUBGRF_GetRadioWakeUpTime( void )
{
 800598c:	b480      	push	{r7}
 800598e:	af00      	add	r7, sp, #0
    return RF_WAKEUP_TIME;
 8005990:	2301      	movs	r3, #1
}
 8005992:	4618      	mov	r0, r3
 8005994:	46bd      	mov	sp, r7
 8005996:	bc80      	pop	{r7}
 8005998:	4770      	bx	lr

0800599a <Radio_SMPS_Set>:
{
    RadioOnDioIrqCb( IRQ_LR_FHSS_HOP );
}

static void Radio_SMPS_Set(uint8_t level)
{
 800599a:	b580      	push	{r7, lr}
 800599c:	b084      	sub	sp, #16
 800599e:	af00      	add	r7, sp, #0
 80059a0:	4603      	mov	r3, r0
 80059a2:	71fb      	strb	r3, [r7, #7]
  if ( 1U == RBI_IsDCDC() )
 80059a4:	f000 fa14 	bl	8005dd0 <RBI_IsDCDC>
 80059a8:	4603      	mov	r3, r0
 80059aa:	2b01      	cmp	r3, #1
 80059ac:	d112      	bne.n	80059d4 <Radio_SMPS_Set+0x3a>
  {
    uint8_t modReg;
    modReg= SUBGRF_ReadRegister(SUBGHZ_SMPSC2R);
 80059ae:	f640 1023 	movw	r0, #2339	@ 0x923
 80059b2:	f7ff fea3 	bl	80056fc <SUBGRF_ReadRegister>
 80059b6:	4603      	mov	r3, r0
 80059b8:	73fb      	strb	r3, [r7, #15]
    modReg&= (~SMPS_DRV_MASK);
 80059ba:	7bfb      	ldrb	r3, [r7, #15]
 80059bc:	f023 0306 	bic.w	r3, r3, #6
 80059c0:	73fb      	strb	r3, [r7, #15]
    SUBGRF_WriteRegister(SUBGHZ_SMPSC2R, modReg | level);
 80059c2:	7bfa      	ldrb	r2, [r7, #15]
 80059c4:	79fb      	ldrb	r3, [r7, #7]
 80059c6:	4313      	orrs	r3, r2
 80059c8:	b2db      	uxtb	r3, r3
 80059ca:	4619      	mov	r1, r3
 80059cc:	f640 1023 	movw	r0, #2339	@ 0x923
 80059d0:	f7ff fe72 	bl	80056b8 <SUBGRF_WriteRegister>
  }
}
 80059d4:	bf00      	nop
 80059d6:	3710      	adds	r7, #16
 80059d8:	46bd      	mov	sp, r7
 80059da:	bd80      	pop	{r7, pc}

080059dc <SUBGRF_GetFskBandwidthRegValue>:

uint8_t SUBGRF_GetFskBandwidthRegValue( uint32_t bandwidth )
{
 80059dc:	b480      	push	{r7}
 80059de:	b085      	sub	sp, #20
 80059e0:	af00      	add	r7, sp, #0
 80059e2:	6078      	str	r0, [r7, #4]
    uint8_t i;

    if( bandwidth == 0 )
 80059e4:	687b      	ldr	r3, [r7, #4]
 80059e6:	2b00      	cmp	r3, #0
 80059e8:	d101      	bne.n	80059ee <SUBGRF_GetFskBandwidthRegValue+0x12>
    {
        return( 0x1F );
 80059ea:	231f      	movs	r3, #31
 80059ec:	e017      	b.n	8005a1e <SUBGRF_GetFskBandwidthRegValue+0x42>
    }

    for( i = 0; i < ( sizeof( FskBandwidths ) / sizeof( FskBandwidth_t ) ); i++ )
 80059ee:	2300      	movs	r3, #0
 80059f0:	73fb      	strb	r3, [r7, #15]
 80059f2:	e00f      	b.n	8005a14 <SUBGRF_GetFskBandwidthRegValue+0x38>
    {
        if ( bandwidth < FskBandwidths[i].bandwidth )
 80059f4:	7bfb      	ldrb	r3, [r7, #15]
 80059f6:	4a0c      	ldr	r2, [pc, #48]	@ (8005a28 <SUBGRF_GetFskBandwidthRegValue+0x4c>)
 80059f8:	f852 3033 	ldr.w	r3, [r2, r3, lsl #3]
 80059fc:	687a      	ldr	r2, [r7, #4]
 80059fe:	429a      	cmp	r2, r3
 8005a00:	d205      	bcs.n	8005a0e <SUBGRF_GetFskBandwidthRegValue+0x32>
        {
            return FskBandwidths[i].RegValue;
 8005a02:	7bfb      	ldrb	r3, [r7, #15]
 8005a04:	4a08      	ldr	r2, [pc, #32]	@ (8005a28 <SUBGRF_GetFskBandwidthRegValue+0x4c>)
 8005a06:	00db      	lsls	r3, r3, #3
 8005a08:	4413      	add	r3, r2
 8005a0a:	791b      	ldrb	r3, [r3, #4]
 8005a0c:	e007      	b.n	8005a1e <SUBGRF_GetFskBandwidthRegValue+0x42>
    for( i = 0; i < ( sizeof( FskBandwidths ) / sizeof( FskBandwidth_t ) ); i++ )
 8005a0e:	7bfb      	ldrb	r3, [r7, #15]
 8005a10:	3301      	adds	r3, #1
 8005a12:	73fb      	strb	r3, [r7, #15]
 8005a14:	7bfb      	ldrb	r3, [r7, #15]
 8005a16:	2b15      	cmp	r3, #21
 8005a18:	d9ec      	bls.n	80059f4 <SUBGRF_GetFskBandwidthRegValue+0x18>
        }
    }
    // ERROR: Value not found
    while( 1 );
 8005a1a:	bf00      	nop
 8005a1c:	e7fd      	b.n	8005a1a <SUBGRF_GetFskBandwidthRegValue+0x3e>
}
 8005a1e:	4618      	mov	r0, r3
 8005a20:	3714      	adds	r7, #20
 8005a22:	46bd      	mov	sp, r7
 8005a24:	bc80      	pop	{r7}
 8005a26:	4770      	bx	lr
 8005a28:	08007358 	.word	0x08007358

08005a2c <SUBGRF_GetCFO>:
void SUBGRF_GetCFO( uint32_t bitRate, int32_t *cfo)
{
 8005a2c:	b580      	push	{r7, lr}
 8005a2e:	b08a      	sub	sp, #40	@ 0x28
 8005a30:	af00      	add	r7, sp, #0
 8005a32:	6078      	str	r0, [r7, #4]
 8005a34:	6039      	str	r1, [r7, #0]
  uint8_t BwMant[] = {4, 8, 10, 12};
 8005a36:	4b35      	ldr	r3, [pc, #212]	@ (8005b0c <SUBGRF_GetCFO+0xe0>)
 8005a38:	60fb      	str	r3, [r7, #12]
  /* read demod bandwidth: mant bit4:3, exp bits 2:0 */
  uint8_t reg = (SUBGRF_ReadRegister( SUBGHZ_BWSELR ));
 8005a3a:	f640 0007 	movw	r0, #2055	@ 0x807
 8005a3e:	f7ff fe5d 	bl	80056fc <SUBGRF_ReadRegister>
 8005a42:	4603      	mov	r3, r0
 8005a44:	77fb      	strb	r3, [r7, #31]
  uint8_t bandwidth_mant = BwMant[( reg >> 3 ) & 0x3];
 8005a46:	7ffb      	ldrb	r3, [r7, #31]
 8005a48:	08db      	lsrs	r3, r3, #3
 8005a4a:	b2db      	uxtb	r3, r3
 8005a4c:	f003 0303 	and.w	r3, r3, #3
 8005a50:	3328      	adds	r3, #40	@ 0x28
 8005a52:	443b      	add	r3, r7
 8005a54:	f813 3c1c 	ldrb.w	r3, [r3, #-28]
 8005a58:	77bb      	strb	r3, [r7, #30]
  uint8_t bandwidth_exp = reg & 0x7;
 8005a5a:	7ffb      	ldrb	r3, [r7, #31]
 8005a5c:	f003 0307 	and.w	r3, r3, #7
 8005a60:	777b      	strb	r3, [r7, #29]
  uint32_t cf_fs = XTAL_FREQ / ( bandwidth_mant * ( 1 << ( bandwidth_exp + 1 )));
 8005a62:	7fba      	ldrb	r2, [r7, #30]
 8005a64:	7f7b      	ldrb	r3, [r7, #29]
 8005a66:	3301      	adds	r3, #1
 8005a68:	fa02 f303 	lsl.w	r3, r2, r3
 8005a6c:	461a      	mov	r2, r3
 8005a6e:	4b28      	ldr	r3, [pc, #160]	@ (8005b10 <SUBGRF_GetCFO+0xe4>)
 8005a70:	fbb3 f3f2 	udiv	r3, r3, r2
 8005a74:	61bb      	str	r3, [r7, #24]
  uint32_t cf_osr = cf_fs / bitRate;
 8005a76:	69ba      	ldr	r2, [r7, #24]
 8005a78:	687b      	ldr	r3, [r7, #4]
 8005a7a:	fbb2 f3f3 	udiv	r3, r2, r3
 8005a7e:	617b      	str	r3, [r7, #20]
  uint8_t interp = 1;
 8005a80:	2301      	movs	r3, #1
 8005a82:	f887 3027 	strb.w	r3, [r7, #39]	@ 0x27
  /* calculate demod interpolation factor */
  if (cf_osr * interp < 8)
 8005a86:	f897 3027 	ldrb.w	r3, [r7, #39]	@ 0x27
 8005a8a:	697a      	ldr	r2, [r7, #20]
 8005a8c:	fb02 f303 	mul.w	r3, r2, r3
 8005a90:	2b07      	cmp	r3, #7
 8005a92:	d802      	bhi.n	8005a9a <SUBGRF_GetCFO+0x6e>
  {
    interp = 2;
 8005a94:	2302      	movs	r3, #2
 8005a96:	f887 3027 	strb.w	r3, [r7, #39]	@ 0x27
  }
  if (cf_osr * interp < 4)
 8005a9a:	f897 3027 	ldrb.w	r3, [r7, #39]	@ 0x27
 8005a9e:	697a      	ldr	r2, [r7, #20]
 8005aa0:	fb02 f303 	mul.w	r3, r2, r3
 8005aa4:	2b03      	cmp	r3, #3
 8005aa6:	d802      	bhi.n	8005aae <SUBGRF_GetCFO+0x82>
  {
    interp = 4;
 8005aa8:	2304      	movs	r3, #4
 8005aaa:	f887 3027 	strb.w	r3, [r7, #39]	@ 0x27
  }
  /* calculate demod sampling frequency */
  uint32_t fs = cf_fs* interp;
 8005aae:	f897 2027 	ldrb.w	r2, [r7, #39]	@ 0x27
 8005ab2:	69bb      	ldr	r3, [r7, #24]
 8005ab4:	fb02 f303 	mul.w	r3, r2, r3
 8005ab8:	613b      	str	r3, [r7, #16]
  /* get the cfo registers */
  int32_t cfo_bin = ( SUBGRF_ReadRegister( SUBGHZ_GCFORH ) & 0xF ) << 8;
 8005aba:	f44f 60d6 	mov.w	r0, #1712	@ 0x6b0
 8005abe:	f7ff fe1d 	bl	80056fc <SUBGRF_ReadRegister>
 8005ac2:	4603      	mov	r3, r0
 8005ac4:	021b      	lsls	r3, r3, #8
 8005ac6:	f403 6370 	and.w	r3, r3, #3840	@ 0xf00
 8005aca:	623b      	str	r3, [r7, #32]
  cfo_bin |= SUBGRF_ReadRegister( SUBGHZ_GCFORL );
 8005acc:	f240 60b1 	movw	r0, #1713	@ 0x6b1
 8005ad0:	f7ff fe14 	bl	80056fc <SUBGRF_ReadRegister>
 8005ad4:	4603      	mov	r3, r0
 8005ad6:	461a      	mov	r2, r3
 8005ad8:	6a3b      	ldr	r3, [r7, #32]
 8005ada:	4313      	orrs	r3, r2
 8005adc:	623b      	str	r3, [r7, #32]
  /* negate if 12 bits sign bit is 1 */
  if (( cfo_bin & 0x800 ) == 0x800 )
 8005ade:	6a3b      	ldr	r3, [r7, #32]
 8005ae0:	f403 6300 	and.w	r3, r3, #2048	@ 0x800
 8005ae4:	2b00      	cmp	r3, #0
 8005ae6:	d005      	beq.n	8005af4 <SUBGRF_GetCFO+0xc8>
  {
    cfo_bin |= 0xFFFFF000;
 8005ae8:	6a3b      	ldr	r3, [r7, #32]
 8005aea:	ea6f 5303 	mvn.w	r3, r3, lsl #20
 8005aee:	ea6f 5313 	mvn.w	r3, r3, lsr #20
 8005af2:	623b      	str	r3, [r7, #32]
  }
  /* calculate cfo in Hz */
  /* shift by 5 first to not saturate, cfo_bin on 12bits */
  *cfo = ((int32_t)( cfo_bin * ( fs >> 5 ))) >> ( 12 - 5 );
 8005af4:	693b      	ldr	r3, [r7, #16]
 8005af6:	095b      	lsrs	r3, r3, #5
 8005af8:	6a3a      	ldr	r2, [r7, #32]
 8005afa:	fb02 f303 	mul.w	r3, r2, r3
 8005afe:	11da      	asrs	r2, r3, #7
 8005b00:	683b      	ldr	r3, [r7, #0]
 8005b02:	601a      	str	r2, [r3, #0]
}
 8005b04:	bf00      	nop
 8005b06:	3728      	adds	r7, #40	@ 0x28
 8005b08:	46bd      	mov	sp, r7
 8005b0a:	bd80      	pop	{r7, pc}
 8005b0c:	0c0a0804 	.word	0x0c0a0804
 8005b10:	01e84800 	.word	0x01e84800

08005b14 <RFW_TransmitLongPacket>:
#endif /* RFW_ENABLE == 1 */

/* Exported functions --------------------------------------------------------*/
int32_t RFW_TransmitLongPacket( uint16_t payload_size, uint32_t timeout,
                                void ( *TxLongPacketGetNextChunkCb )( uint8_t **buffer, uint8_t buffer_size ) )
{
 8005b14:	b480      	push	{r7}
 8005b16:	b087      	sub	sp, #28
 8005b18:	af00      	add	r7, sp, #0
 8005b1a:	4603      	mov	r3, r0
 8005b1c:	60b9      	str	r1, [r7, #8]
 8005b1e:	607a      	str	r2, [r7, #4]
 8005b20:	81fb      	strh	r3, [r7, #14]
    int32_t status = 0;
 8005b22:	2300      	movs	r3, #0
 8005b24:	617b      	str	r3, [r7, #20]
        default:
            break;
        }
    }
#else
    status = -1;
 8005b26:	f04f 33ff 	mov.w	r3, #4294967295	@ 0xffffffff
 8005b2a:	617b      	str	r3, [r7, #20]
#endif /* RFW_LONGPACKET_ENABLE == 1 */
    return status;
 8005b2c:	697b      	ldr	r3, [r7, #20]
}
 8005b2e:	4618      	mov	r0, r3
 8005b30:	371c      	adds	r7, #28
 8005b32:	46bd      	mov	sp, r7
 8005b34:	bc80      	pop	{r7}
 8005b36:	4770      	bx	lr

08005b38 <RFW_ReceiveLongPacket>:

int32_t RFW_ReceiveLongPacket( uint8_t boosted_mode, uint32_t timeout,
                               void ( *RxLongPacketStoreChunkCb )( uint8_t *buffer, uint8_t chunk_size ) )
{
 8005b38:	b480      	push	{r7}
 8005b3a:	b087      	sub	sp, #28
 8005b3c:	af00      	add	r7, sp, #0
 8005b3e:	4603      	mov	r3, r0
 8005b40:	60b9      	str	r1, [r7, #8]
 8005b42:	607a      	str	r2, [r7, #4]
 8005b44:	73fb      	strb	r3, [r7, #15]
    int32_t status = 0;
 8005b46:	2300      	movs	r3, #0
 8005b48:	617b      	str	r3, [r7, #20]
        {
            SUBGRF_SetRx( 0xFFFFFF ); /* Rx Continuous */
        }
    }
#else
    status = -1;
 8005b4a:	f04f 33ff 	mov.w	r3, #4294967295	@ 0xffffffff
 8005b4e:	617b      	str	r3, [r7, #20]
#endif /* RFW_LONGPACKET_ENABLE == 1 */
    return status;
 8005b50:	697b      	ldr	r3, [r7, #20]
}
 8005b52:	4618      	mov	r0, r3
 8005b54:	371c      	adds	r7, #28
 8005b56:	46bd      	mov	sp, r7
 8005b58:	bc80      	pop	{r7}
 8005b5a:	4770      	bx	lr

08005b5c <RFW_Init>:

int32_t RFW_Init( ConfigGeneric_t *config, RadioEvents_t *RadioEvents, TimerEvent_t *TimeoutTimerEvent )
{
 8005b5c:	b480      	push	{r7}
 8005b5e:	b085      	sub	sp, #20
 8005b60:	af00      	add	r7, sp, #0
 8005b62:	60f8      	str	r0, [r7, #12]
 8005b64:	60b9      	str	r1, [r7, #8]
 8005b66:	607a      	str	r2, [r7, #4]
    RFWPacket.Init.Enable = 1;
    /* Initialize Timer for end of fixed packet, started at sync*/
    TimerInit( &RFWPacket.Timer, RFW_GetPayloadTimerEvent );
    return 0;
#else
    return -1;
 8005b68:	f04f 33ff 	mov.w	r3, #4294967295	@ 0xffffffff
#endif /* RFW_ENABLE == 1 */
}
 8005b6c:	4618      	mov	r0, r3
 8005b6e:	3714      	adds	r7, #20
 8005b70:	46bd      	mov	sp, r7
 8005b72:	bc80      	pop	{r7}
 8005b74:	4770      	bx	lr

08005b76 <RFW_DeInit>:

void RFW_DeInit( void )
{
 8005b76:	b480      	push	{r7}
 8005b78:	af00      	add	r7, sp, #0
#if (RFW_ENABLE == 1 )
    RFWPacket.Init.Enable = 0; /*Disable the RFWPacket decoding*/
#endif /* RFW_ENABLE == 1 */
}
 8005b7a:	bf00      	nop
 8005b7c:	46bd      	mov	sp, r7
 8005b7e:	bc80      	pop	{r7}
 8005b80:	4770      	bx	lr

08005b82 <RFW_Is_Init>:

uint8_t RFW_Is_Init( void )
{
 8005b82:	b480      	push	{r7}
 8005b84:	af00      	add	r7, sp, #0
#if (RFW_ENABLE == 1 )
    return RFWPacket.Init.Enable;
#else
    return 0;
 8005b86:	2300      	movs	r3, #0
#endif /* RFW_ENABLE == 1 */
}
 8005b88:	4618      	mov	r0, r3
 8005b8a:	46bd      	mov	sp, r7
 8005b8c:	bc80      	pop	{r7}
 8005b8e:	4770      	bx	lr

08005b90 <RFW_Is_LongPacketModeEnabled>:

uint8_t RFW_Is_LongPacketModeEnabled( void )
{
 8005b90:	b480      	push	{r7}
 8005b92:	af00      	add	r7, sp, #0
#if (RFW_ENABLE == 1 )
    return RFWPacket.LongPacketModeEnable;
#else
    return 0;
 8005b94:	2300      	movs	r3, #0
#endif /* RFW_ENABLE == 1 */
}
 8005b96:	4618      	mov	r0, r3
 8005b98:	46bd      	mov	sp, r7
 8005b9a:	bc80      	pop	{r7}
 8005b9c:	4770      	bx	lr

08005b9e <RFW_SetAntSwitch>:

void RFW_SetAntSwitch( uint8_t AntSwitch )
{
 8005b9e:	b480      	push	{r7}
 8005ba0:	b083      	sub	sp, #12
 8005ba2:	af00      	add	r7, sp, #0
 8005ba4:	4603      	mov	r3, r0
 8005ba6:	71fb      	strb	r3, [r7, #7]
#if (RFW_ENABLE == 1 )
    RFWPacket.AntSwitchPaSelect = AntSwitch;
#endif /* RFW_ENABLE == 1 */
}
 8005ba8:	bf00      	nop
 8005baa:	370c      	adds	r7, #12
 8005bac:	46bd      	mov	sp, r7
 8005bae:	bc80      	pop	{r7}
 8005bb0:	4770      	bx	lr

08005bb2 <RFW_TransmitInit>:

int32_t RFW_TransmitInit( uint8_t *inOutBuffer, uint8_t size, uint8_t *outSize )
{
 8005bb2:	b480      	push	{r7}
 8005bb4:	b087      	sub	sp, #28
 8005bb6:	af00      	add	r7, sp, #0
 8005bb8:	60f8      	str	r0, [r7, #12]
 8005bba:	460b      	mov	r3, r1
 8005bbc:	607a      	str	r2, [r7, #4]
 8005bbe:	72fb      	strb	r3, [r7, #11]
    int32_t status = -1;
 8005bc0:	f04f 33ff 	mov.w	r3, #4294967295	@ 0xffffffff
 8005bc4:	617b      	str	r3, [r7, #20]
        RFWPacket.LongPacketModeEnable = 0;

        status = 0;
    }
#endif /* RFW_ENABLE == 1 */
    return status;
 8005bc6:	697b      	ldr	r3, [r7, #20]
}
 8005bc8:	4618      	mov	r0, r3
 8005bca:	371c      	adds	r7, #28
 8005bcc:	46bd      	mov	sp, r7
 8005bce:	bc80      	pop	{r7}
 8005bd0:	4770      	bx	lr

08005bd2 <RFW_ReceiveInit>:

int32_t RFW_ReceiveInit( void )
{
 8005bd2:	b480      	push	{r7}
 8005bd4:	af00      	add	r7, sp, #0
    RFWPacket.RxPayloadOffset = 0;

    RFWPacket.LongPacketModeEnable = 0;
    return 0;
#else
    return -1;
 8005bd6:	f04f 33ff 	mov.w	r3, #4294967295	@ 0xffffffff
#endif /* RFW_ENABLE == 1 */
}
 8005bda:	4618      	mov	r0, r3
 8005bdc:	46bd      	mov	sp, r7
 8005bde:	bc80      	pop	{r7}
 8005be0:	4770      	bx	lr

08005be2 <RFW_DeInit_TxLongPacket>:

void RFW_DeInit_TxLongPacket( void )
{
 8005be2:	b480      	push	{r7}
 8005be4:	af00      	add	r7, sp, #0
    /*long packet WA*/
    uint8_t reg = SUBGRF_ReadRegister( SUBGHZ_GPKTCTL1AR );
    SUBGRF_WriteRegister( SUBGHZ_GPKTCTL1AR, reg & ~0x02 ); /* clear infinite_sequence bit */
    SUBGRF_WriteRegister( SUBGHZ_GRTXPLDLEN, 0xFF ); /* RxTxPldLen: reset to 0xFF */
#endif /* RFW_LONGPACKET_ENABLE == 1 */
}
 8005be6:	bf00      	nop
 8005be8:	46bd      	mov	sp, r7
 8005bea:	bc80      	pop	{r7}
 8005bec:	4770      	bx	lr

08005bee <RFW_ReceivePayload>:

void RFW_ReceivePayload( void )
{
 8005bee:	b480      	push	{r7}
 8005bf0:	af00      	add	r7, sp, #0
        /*timeout*/
        SUBGRF_SetStandby( STDBY_RC );
        RFWPacket.Init.RadioEvents->RxTimeout( );
    }
#endif /* RFW_ENABLE == 1 */
}
 8005bf2:	bf00      	nop
 8005bf4:	46bd      	mov	sp, r7
 8005bf6:	bc80      	pop	{r7}
 8005bf8:	4770      	bx	lr

08005bfa <RFW_SetRadioModem>:

void RFW_SetRadioModem( RadioModems_t Modem )
{
 8005bfa:	b480      	push	{r7}
 8005bfc:	b083      	sub	sp, #12
 8005bfe:	af00      	add	r7, sp, #0
 8005c00:	4603      	mov	r3, r0
 8005c02:	71fb      	strb	r3, [r7, #7]
#if (RFW_ENABLE == 1 )
    RFWPacket.Init.Modem = Modem;
#endif /* RFW_ENABLE == 1 */
}
 8005c04:	bf00      	nop
 8005c06:	370c      	adds	r7, #12
 8005c08:	46bd      	mov	sp, r7
 8005c0a:	bc80      	pop	{r7}
 8005c0c:	4770      	bx	lr

08005c0e <MX_SubGHz_Phy_Init>:
/* USER CODE END PFP */

/* Exported functions --------------------------------------------------------*/

void MX_SubGHz_Phy_Init(void)
{
 8005c0e:	b580      	push	{r7, lr}
 8005c10:	af00      	add	r7, sp, #0
  /* USER CODE BEGIN MX_SubGHz_Phy_Init_1 */

  /* USER CODE END MX_SubGHz_Phy_Init_1 */
  SystemApp_Init();
 8005c12:	f7fa fd8c 	bl	800072e <SystemApp_Init>
  /* USER CODE BEGIN MX_SubGHz_Phy_Init_1_1 */

  /* USER CODE END MX_SubGHz_Phy_Init_1_1 */
  SubghzApp_Init();
 8005c16:	f000 f803 	bl	8005c20 <SubghzApp_Init>
  /* USER CODE BEGIN MX_SubGHz_Phy_Init_2 */

  /* USER CODE END MX_SubGHz_Phy_Init_2 */
}
 8005c1a:	bf00      	nop
 8005c1c:	bd80      	pop	{r7, pc}
	...

08005c20 <SubghzApp_Init>:
void radio_SendErr(void);
/* USER CODE END PFP */

/* Exported functions ---------------------------------------------------------*/
void SubghzApp_Init(void)
{
 8005c20:	b590      	push	{r4, r7, lr}
 8005c22:	b08b      	sub	sp, #44	@ 0x2c
 8005c24:	af0a      	add	r7, sp, #40	@ 0x28
  /* USER CODE BEGIN SubghzApp_Init_1 */
    UTIL_TIMER_Create(&txLedTimer, TX_LED_BLINK_MS, UTIL_TIMER_ONESHOT, OnTxLedEvent, NULL);
 8005c26:	2300      	movs	r3, #0
 8005c28:	9300      	str	r3, [sp, #0]
 8005c2a:	4b22      	ldr	r3, [pc, #136]	@ (8005cb4 <SubghzApp_Init+0x94>)
 8005c2c:	2200      	movs	r2, #0
 8005c2e:	2164      	movs	r1, #100	@ 0x64
 8005c30:	4821      	ldr	r0, [pc, #132]	@ (8005cb8 <SubghzApp_Init+0x98>)
 8005c32:	f000 f927 	bl	8005e84 <UTIL_TIMER_Create>
  /* USER CODE END SubghzApp_Init_1 */

  /* Radio initialization */
  RadioEvents.TxDone = OnTxDone;
 8005c36:	4b21      	ldr	r3, [pc, #132]	@ (8005cbc <SubghzApp_Init+0x9c>)
 8005c38:	4a21      	ldr	r2, [pc, #132]	@ (8005cc0 <SubghzApp_Init+0xa0>)
 8005c3a:	601a      	str	r2, [r3, #0]
  RadioEvents.RxDone = OnRxDone;
 8005c3c:	4b1f      	ldr	r3, [pc, #124]	@ (8005cbc <SubghzApp_Init+0x9c>)
 8005c3e:	4a21      	ldr	r2, [pc, #132]	@ (8005cc4 <SubghzApp_Init+0xa4>)
 8005c40:	609a      	str	r2, [r3, #8]
  RadioEvents.TxTimeout = OnTxTimeout;
 8005c42:	4b1e      	ldr	r3, [pc, #120]	@ (8005cbc <SubghzApp_Init+0x9c>)
 8005c44:	4a20      	ldr	r2, [pc, #128]	@ (8005cc8 <SubghzApp_Init+0xa8>)
 8005c46:	605a      	str	r2, [r3, #4]
  RadioEvents.RxTimeout = OnRxTimeout;
 8005c48:	4b1c      	ldr	r3, [pc, #112]	@ (8005cbc <SubghzApp_Init+0x9c>)
 8005c4a:	4a20      	ldr	r2, [pc, #128]	@ (8005ccc <SubghzApp_Init+0xac>)
 8005c4c:	60da      	str	r2, [r3, #12]
  RadioEvents.RxError = OnRxError;
 8005c4e:	4b1b      	ldr	r3, [pc, #108]	@ (8005cbc <SubghzApp_Init+0x9c>)
 8005c50:	4a1f      	ldr	r2, [pc, #124]	@ (8005cd0 <SubghzApp_Init+0xb0>)
 8005c52:	611a      	str	r2, [r3, #16]

  Radio.Init(&RadioEvents);
 8005c54:	4b1f      	ldr	r3, [pc, #124]	@ (8005cd4 <SubghzApp_Init+0xb4>)
 8005c56:	681b      	ldr	r3, [r3, #0]
 8005c58:	4818      	ldr	r0, [pc, #96]	@ (8005cbc <SubghzApp_Init+0x9c>)
 8005c5a:	4798      	blx	r3
  Radio.SetChannel(RF_FREQUENCY);
 8005c5c:	4b1d      	ldr	r3, [pc, #116]	@ (8005cd4 <SubghzApp_Init+0xb4>)
 8005c5e:	68db      	ldr	r3, [r3, #12]
 8005c60:	481d      	ldr	r0, [pc, #116]	@ (8005cd8 <SubghzApp_Init+0xb8>)
 8005c62:	4798      	blx	r3

  Radio.SetTxConfig(MODEM_LORA, TX_OUTPUT_POWER, 0, LORA_BANDWIDTH,
 8005c64:	4b1b      	ldr	r3, [pc, #108]	@ (8005cd4 <SubghzApp_Init+0xb4>)
 8005c66:	69dc      	ldr	r4, [r3, #28]
 8005c68:	f240 23ee 	movw	r3, #750	@ 0x2ee
 8005c6c:	9308      	str	r3, [sp, #32]
 8005c6e:	2300      	movs	r3, #0
 8005c70:	9307      	str	r3, [sp, #28]
 8005c72:	2300      	movs	r3, #0
 8005c74:	9306      	str	r3, [sp, #24]
 8005c76:	2300      	movs	r3, #0
 8005c78:	9305      	str	r3, [sp, #20]
 8005c7a:	2301      	movs	r3, #1
 8005c7c:	9304      	str	r3, [sp, #16]
 8005c7e:	2300      	movs	r3, #0
 8005c80:	9303      	str	r3, [sp, #12]
 8005c82:	2308      	movs	r3, #8
 8005c84:	9302      	str	r3, [sp, #8]
 8005c86:	2301      	movs	r3, #1
 8005c88:	9301      	str	r3, [sp, #4]
 8005c8a:	2307      	movs	r3, #7
 8005c8c:	9300      	str	r3, [sp, #0]
 8005c8e:	2300      	movs	r3, #0
 8005c90:	2200      	movs	r2, #0
 8005c92:	210e      	movs	r1, #14
 8005c94:	2001      	movs	r0, #1
 8005c96:	47a0      	blx	r4
                    LORA_SPREADING_FACTOR, LORA_CODINGRATE,
                    LORA_PREAMBLE_LENGTH, LORA_FIX_LENGTH_PAYLOAD_ON,
                    true, 0, 0, LORA_IQ_INVERSION_ON, TX_TIMEOUT_VALUE);

  Radio.SetMaxPayloadLength(MODEM_LORA, MAX_APP_BUFFER_SIZE);
 8005c98:	4b0e      	ldr	r3, [pc, #56]	@ (8005cd4 <SubghzApp_Init+0xb4>)
 8005c9a:	6d5b      	ldr	r3, [r3, #84]	@ 0x54
 8005c9c:	2120      	movs	r1, #32
 8005c9e:	2001      	movs	r0, #1
 8005ca0:	4798      	blx	r3

  /*fills tx buffer*/
  memset(BufferTx, 0x0, MAX_APP_BUFFER_SIZE);
 8005ca2:	2220      	movs	r2, #32
 8005ca4:	2100      	movs	r1, #0
 8005ca6:	480d      	ldr	r0, [pc, #52]	@ (8005cdc <SubghzApp_Init+0xbc>)
 8005ca8:	f000 fcf6 	bl	8006698 <memset>
  /* USER CODE BEGIN SubghzApp_Init_2 */

  /* USER CODE END SubghzApp_Init_2 */
}
 8005cac:	bf00      	nop
 8005cae:	3704      	adds	r7, #4
 8005cb0:	46bd      	mov	sp, r7
 8005cb2:	bd90      	pop	{r4, r7, pc}
 8005cb4:	08005d55 	.word	0x08005d55
 8005cb8:	2000027c 	.word	0x2000027c
 8005cbc:	20000240 	.word	0x20000240
 8005cc0:	08005ce1 	.word	0x08005ce1
 8005cc4:	08005d0d 	.word	0x08005d0d
 8005cc8:	08005d31 	.word	0x08005d31
 8005ccc:	08005d3d 	.word	0x08005d3d
 8005cd0:	08005d49 	.word	0x08005d49
 8005cd4:	080072c8 	.word	0x080072c8
 8005cd8:	33bca100 	.word	0x33bca100
 8005cdc:	2000025c 	.word	0x2000025c

08005ce0 <OnTxDone>:

/* USER CODE END EF */

/* Private functions ---------------------------------------------------------*/
static void OnTxDone(void)
{
 8005ce0:	b580      	push	{r7, lr}
 8005ce2:	af00      	add	r7, sp, #0
	   HAL_GPIO_WritePin(LED_TX_GPIO_Port, LED_TX_Pin, GPIO_PIN_SET);
 8005ce4:	2201      	movs	r2, #1
 8005ce6:	2120      	movs	r1, #32
 8005ce8:	4805      	ldr	r0, [pc, #20]	@ (8005d00 <OnTxDone+0x20>)
 8005cea:	f7fb f93d 	bl	8000f68 <HAL_GPIO_WritePin>
	   UTIL_TIMER_Start(&txLedTimer);
 8005cee:	4805      	ldr	r0, [pc, #20]	@ (8005d04 <OnTxDone+0x24>)
 8005cf0:	f000 f8fe 	bl	8005ef0 <UTIL_TIMER_Start>


	   printf("Telemetry packet sent successfully!\r\n");
 8005cf4:	4804      	ldr	r0, [pc, #16]	@ (8005d08 <OnTxDone+0x28>)
 8005cf6:	f000 fbef 	bl	80064d8 <puts>
}
 8005cfa:	bf00      	nop
 8005cfc:	bd80      	pop	{r7, pc}
 8005cfe:	bf00      	nop
 8005d00:	48000400 	.word	0x48000400
 8005d04:	2000027c 	.word	0x2000027c
 8005d08:	080071f4 	.word	0x080071f4

08005d0c <OnRxDone>:

static void OnRxDone(uint8_t *payload, uint16_t size, int16_t rssi, int8_t LoraSnr_FskCfo)
{
 8005d0c:	b480      	push	{r7}
 8005d0e:	b085      	sub	sp, #20
 8005d10:	af00      	add	r7, sp, #0
 8005d12:	60f8      	str	r0, [r7, #12]
 8005d14:	4608      	mov	r0, r1
 8005d16:	4611      	mov	r1, r2
 8005d18:	461a      	mov	r2, r3
 8005d1a:	4603      	mov	r3, r0
 8005d1c:	817b      	strh	r3, [r7, #10]
 8005d1e:	460b      	mov	r3, r1
 8005d20:	813b      	strh	r3, [r7, #8]
 8005d22:	4613      	mov	r3, r2
 8005d24:	71fb      	strb	r3, [r7, #7]
  /* USER CODE BEGIN OnRxDone */
  /* USER CODE END OnRxDone */
}
 8005d26:	bf00      	nop
 8005d28:	3714      	adds	r7, #20
 8005d2a:	46bd      	mov	sp, r7
 8005d2c:	bc80      	pop	{r7}
 8005d2e:	4770      	bx	lr

08005d30 <OnTxTimeout>:

static void OnTxTimeout(void)
{
 8005d30:	b480      	push	{r7}
 8005d32:	af00      	add	r7, sp, #0
  /* USER CODE BEGIN OnTxTimeout */
  /* USER CODE END OnTxTimeout */
}
 8005d34:	bf00      	nop
 8005d36:	46bd      	mov	sp, r7
 8005d38:	bc80      	pop	{r7}
 8005d3a:	4770      	bx	lr

08005d3c <OnRxTimeout>:

static void OnRxTimeout(void)
{
 8005d3c:	b480      	push	{r7}
 8005d3e:	af00      	add	r7, sp, #0
  /* USER CODE BEGIN OnRxTimeout */
  /* USER CODE END OnRxTimeout */
}
 8005d40:	bf00      	nop
 8005d42:	46bd      	mov	sp, r7
 8005d44:	bc80      	pop	{r7}
 8005d46:	4770      	bx	lr

08005d48 <OnRxError>:

static void OnRxError(void)
{
 8005d48:	b480      	push	{r7}
 8005d4a:	af00      	add	r7, sp, #0
  /* USER CODE BEGIN OnRxError */
  /* USER CODE END OnRxError */
}
 8005d4c:	bf00      	nop
 8005d4e:	46bd      	mov	sp, r7
 8005d50:	bc80      	pop	{r7}
 8005d52:	4770      	bx	lr

08005d54 <OnTxLedEvent>:

static void OnTxLedEvent(void *context)
{
 8005d54:	b580      	push	{r7, lr}
 8005d56:	b082      	sub	sp, #8
 8005d58:	af00      	add	r7, sp, #0
 8005d5a:	6078      	str	r0, [r7, #4]
    HAL_GPIO_WritePin(LED_TX_GPIO_Port, LED_TX_Pin, GPIO_PIN_RESET); // turn off LED
 8005d5c:	2200      	movs	r2, #0
 8005d5e:	2120      	movs	r1, #32
 8005d60:	4803      	ldr	r0, [pc, #12]	@ (8005d70 <OnTxLedEvent+0x1c>)
 8005d62:	f7fb f901 	bl	8000f68 <HAL_GPIO_WritePin>
}
 8005d66:	bf00      	nop
 8005d68:	3708      	adds	r7, #8
 8005d6a:	46bd      	mov	sp, r7
 8005d6c:	bd80      	pop	{r7, pc}
 8005d6e:	bf00      	nop
 8005d70:	48000400 	.word	0x48000400

08005d74 <RBI_Init>:

/* USER CODE END PFP */

/* Exported functions --------------------------------------------------------*/
int32_t RBI_Init(void)
{
 8005d74:	b480      	push	{r7}
 8005d76:	b083      	sub	sp, #12
 8005d78:	af00      	add	r7, sp, #0
   *       on DC/DC configuration
   *       on maximum output power that the board can deliver*/
  return BSP_RADIO_Init();
#else
  /* 2/ Or implement RBI_Init here */
  int32_t retcode = 0;
 8005d7a:	2300      	movs	r3, #0
 8005d7c:	607b      	str	r3, [r7, #4]
  /* USER CODE BEGIN RBI_Init_2 */
#warning user to provide its board code or to call his board driver functions
  /* USER CODE END RBI_Init_2 */
  return retcode;
 8005d7e:	687b      	ldr	r3, [r7, #4]
#endif  /* USE_BSP_DRIVER  */
}
 8005d80:	4618      	mov	r0, r3
 8005d82:	370c      	adds	r7, #12
 8005d84:	46bd      	mov	sp, r7
 8005d86:	bc80      	pop	{r7}
 8005d88:	4770      	bx	lr

08005d8a <RBI_ConfigRFSwitch>:
  return retcode;
#endif  /* USE_BSP_DRIVER */
}

int32_t RBI_ConfigRFSwitch(RBI_Switch_TypeDef Config)
{
 8005d8a:	b480      	push	{r7}
 8005d8c:	b085      	sub	sp, #20
 8005d8e:	af00      	add	r7, sp, #0
 8005d90:	4603      	mov	r3, r0
 8005d92:	71fb      	strb	r3, [r7, #7]
   *       on DC/DC configuration
   *       on maximum output power that the board can deliver*/
  return BSP_RADIO_ConfigRFSwitch((BSP_RADIO_Switch_TypeDef) Config);
#else
  /* 2/ Or implement RBI_ConfigRFSwitch here */
  int32_t retcode = 0;
 8005d94:	2300      	movs	r3, #0
 8005d96:	60fb      	str	r3, [r7, #12]
  /* USER CODE BEGIN RBI_ConfigRFSwitch_2 */
#warning user to provide its board code or to call his board driver functions
  /* USER CODE END RBI_ConfigRFSwitch_2 */
  return retcode;
 8005d98:	68fb      	ldr	r3, [r7, #12]
#endif  /* USE_BSP_DRIVER */
}
 8005d9a:	4618      	mov	r0, r3
 8005d9c:	3714      	adds	r7, #20
 8005d9e:	46bd      	mov	sp, r7
 8005da0:	bc80      	pop	{r7}
 8005da2:	4770      	bx	lr

08005da4 <RBI_GetTxConfig>:

int32_t RBI_GetTxConfig(void)
{
 8005da4:	b480      	push	{r7}
 8005da6:	b083      	sub	sp, #12
 8005da8:	af00      	add	r7, sp, #0
   *       on DC/DC configuration
   *       on maximum output power that the board can deliver*/
  return BSP_RADIO_GetTxConfig();
#else
  /* 2/ Or implement RBI_GetTxConfig here */
  int32_t retcode = RBI_CONF_RFO;
 8005daa:	2300      	movs	r3, #0
 8005dac:	607b      	str	r3, [r7, #4]
  /* USER CODE BEGIN RBI_GetTxConfig_2 */
#warning user to provide its board code or to call his board driver functions
  /* USER CODE END RBI_GetTxConfig_2 */
  return retcode;
 8005dae:	687b      	ldr	r3, [r7, #4]
#endif  /* USE_BSP_DRIVER */
}
 8005db0:	4618      	mov	r0, r3
 8005db2:	370c      	adds	r7, #12
 8005db4:	46bd      	mov	sp, r7
 8005db6:	bc80      	pop	{r7}
 8005db8:	4770      	bx	lr

08005dba <RBI_IsTCXO>:

int32_t RBI_IsTCXO(void)
{
 8005dba:	b480      	push	{r7}
 8005dbc:	b083      	sub	sp, #12
 8005dbe:	af00      	add	r7, sp, #0
   *       on DC/DC configuration
   *       on maximum output power that the board can deliver*/
  return BSP_RADIO_IsTCXO();
#else
  /* 2/ Or implement RBI_IsTCXO here */
  int32_t retcode = IS_TCXO_SUPPORTED;
 8005dc0:	2300      	movs	r3, #0
 8005dc2:	607b      	str	r3, [r7, #4]
  /* USER CODE BEGIN RBI_IsTCXO_2 */
#warning user to provide its board code or to call his board driver functions
  /* USER CODE END RBI_IsTCXO_2 */
  return retcode;
 8005dc4:	687b      	ldr	r3, [r7, #4]
#endif  /* USE_BSP_DRIVER  */
}
 8005dc6:	4618      	mov	r0, r3
 8005dc8:	370c      	adds	r7, #12
 8005dca:	46bd      	mov	sp, r7
 8005dcc:	bc80      	pop	{r7}
 8005dce:	4770      	bx	lr

08005dd0 <RBI_IsDCDC>:

int32_t RBI_IsDCDC(void)
{
 8005dd0:	b480      	push	{r7}
 8005dd2:	b083      	sub	sp, #12
 8005dd4:	af00      	add	r7, sp, #0
   *       on DC/DC configuration
   *       on maximum output power that the board can deliver*/
  return BSP_RADIO_IsDCDC();
#else
  /* 2/ Or implement RBI_IsDCDC here */
  int32_t retcode = IS_DCDC_SUPPORTED;
 8005dd6:	2301      	movs	r3, #1
 8005dd8:	607b      	str	r3, [r7, #4]
  /* USER CODE BEGIN RBI_IsDCDC_2 */
#warning user to provide its board code or to call his board driver functions
  /* USER CODE END RBI_IsDCDC_2 */
  return retcode;
 8005dda:	687b      	ldr	r3, [r7, #4]
#endif  /* USE_BSP_DRIVER  */
}
 8005ddc:	4618      	mov	r0, r3
 8005dde:	370c      	adds	r7, #12
 8005de0:	46bd      	mov	sp, r7
 8005de2:	bc80      	pop	{r7}
 8005de4:	4770      	bx	lr

08005de6 <RBI_GetRFOMaxPowerConfig>:

int32_t RBI_GetRFOMaxPowerConfig(RBI_RFOMaxPowerConfig_TypeDef Config)
{
 8005de6:	b480      	push	{r7}
 8005de8:	b085      	sub	sp, #20
 8005dea:	af00      	add	r7, sp, #0
 8005dec:	4603      	mov	r3, r0
 8005dee:	71fb      	strb	r3, [r7, #7]
   *       on DC/DC configuration
   *       on maximum output power that the board can deliver*/
  return BSP_RADIO_GetRFOMaxPowerConfig((BSP_RADIO_RFOMaxPowerConfig_TypeDef) Config);
#else
  /* 2/ Or implement RBI_RBI_GetRFOMaxPowerConfig here */
  int32_t ret = 0;
 8005df0:	2300      	movs	r3, #0
 8005df2:	60fb      	str	r3, [r7, #12]
  /* USER CODE BEGIN RBI_GetRFOMaxPowerConfig_2 */
#warning user to provide its board code or to call his board driver functions
  if (Config == RBI_RFO_LP_MAXPOWER)
 8005df4:	79fb      	ldrb	r3, [r7, #7]
 8005df6:	2b00      	cmp	r3, #0
 8005df8:	d102      	bne.n	8005e00 <RBI_GetRFOMaxPowerConfig+0x1a>
  {
    ret = 15; /*dBm*/
 8005dfa:	230f      	movs	r3, #15
 8005dfc:	60fb      	str	r3, [r7, #12]
 8005dfe:	e001      	b.n	8005e04 <RBI_GetRFOMaxPowerConfig+0x1e>
  }
  else
  {
    ret = 22; /*dBm*/
 8005e00:	2316      	movs	r3, #22
 8005e02:	60fb      	str	r3, [r7, #12]
  }
  /* USER CODE END RBI_GetRFOMaxPowerConfig_2 */
  return ret;
 8005e04:	68fb      	ldr	r3, [r7, #12]
#endif  /* USE_BSP_DRIVER  */
}
 8005e06:	4618      	mov	r0, r3
 8005e08:	3714      	adds	r7, #20
 8005e0a:	46bd      	mov	sp, r7
 8005e0c:	bc80      	pop	{r7}
 8005e0e:	4770      	bx	lr

08005e10 <UTIL_MEM_cpy_8>:
/* Global variables ----------------------------------------------------------*/
/* Private function prototypes -----------------------------------------------*/
/* Functions Definition ------------------------------------------------------*/

void UTIL_MEM_cpy_8( void *dst, const void *src, uint16_t size )
{
 8005e10:	b480      	push	{r7}
 8005e12:	b087      	sub	sp, #28
 8005e14:	af00      	add	r7, sp, #0
 8005e16:	60f8      	str	r0, [r7, #12]
 8005e18:	60b9      	str	r1, [r7, #8]
 8005e1a:	4613      	mov	r3, r2
 8005e1c:	80fb      	strh	r3, [r7, #6]
  uint8_t* dst8= (uint8_t *) dst;
 8005e1e:	68fb      	ldr	r3, [r7, #12]
 8005e20:	617b      	str	r3, [r7, #20]
  uint8_t* src8= (uint8_t *) src;
 8005e22:	68bb      	ldr	r3, [r7, #8]
 8005e24:	613b      	str	r3, [r7, #16]

  while( size-- )
 8005e26:	e007      	b.n	8005e38 <UTIL_MEM_cpy_8+0x28>
    {
        *dst8++ = *src8++;
 8005e28:	693a      	ldr	r2, [r7, #16]
 8005e2a:	1c53      	adds	r3, r2, #1
 8005e2c:	613b      	str	r3, [r7, #16]
 8005e2e:	697b      	ldr	r3, [r7, #20]
 8005e30:	1c59      	adds	r1, r3, #1
 8005e32:	6179      	str	r1, [r7, #20]
 8005e34:	7812      	ldrb	r2, [r2, #0]
 8005e36:	701a      	strb	r2, [r3, #0]
  while( size-- )
 8005e38:	88fb      	ldrh	r3, [r7, #6]
 8005e3a:	1e5a      	subs	r2, r3, #1
 8005e3c:	80fa      	strh	r2, [r7, #6]
 8005e3e:	2b00      	cmp	r3, #0
 8005e40:	d1f2      	bne.n	8005e28 <UTIL_MEM_cpy_8+0x18>
    }
}
 8005e42:	bf00      	nop
 8005e44:	bf00      	nop
 8005e46:	371c      	adds	r7, #28
 8005e48:	46bd      	mov	sp, r7
 8005e4a:	bc80      	pop	{r7}
 8005e4c:	4770      	bx	lr

08005e4e <UTIL_MEM_set_8>:
        *dst8-- = *src8++;
    }
}

void UTIL_MEM_set_8( void *dst, uint8_t value, uint16_t size )
{
 8005e4e:	b480      	push	{r7}
 8005e50:	b085      	sub	sp, #20
 8005e52:	af00      	add	r7, sp, #0
 8005e54:	6078      	str	r0, [r7, #4]
 8005e56:	460b      	mov	r3, r1
 8005e58:	70fb      	strb	r3, [r7, #3]
 8005e5a:	4613      	mov	r3, r2
 8005e5c:	803b      	strh	r3, [r7, #0]
  uint8_t* dst8= (uint8_t *) dst;
 8005e5e:	687b      	ldr	r3, [r7, #4]
 8005e60:	60fb      	str	r3, [r7, #12]
  while( size-- )
 8005e62:	e004      	b.n	8005e6e <UTIL_MEM_set_8+0x20>
  {
    *dst8++ = value;
 8005e64:	68fb      	ldr	r3, [r7, #12]
 8005e66:	1c5a      	adds	r2, r3, #1
 8005e68:	60fa      	str	r2, [r7, #12]
 8005e6a:	78fa      	ldrb	r2, [r7, #3]
 8005e6c:	701a      	strb	r2, [r3, #0]
  while( size-- )
 8005e6e:	883b      	ldrh	r3, [r7, #0]
 8005e70:	1e5a      	subs	r2, r3, #1
 8005e72:	803a      	strh	r2, [r7, #0]
 8005e74:	2b00      	cmp	r3, #0
 8005e76:	d1f5      	bne.n	8005e64 <UTIL_MEM_set_8+0x16>
  }
}
 8005e78:	bf00      	nop
 8005e7a:	bf00      	nop
 8005e7c:	3714      	adds	r7, #20
 8005e7e:	46bd      	mov	sp, r7
 8005e80:	bc80      	pop	{r7}
 8005e82:	4770      	bx	lr

08005e84 <UTIL_TIMER_Create>:
{
  return UTIL_TimerDriver.DeInitTimer();
}

UTIL_TIMER_Status_t UTIL_TIMER_Create( UTIL_TIMER_Object_t *TimerObject, uint32_t PeriodValue, UTIL_TIMER_Mode_t Mode, void ( *Callback )( void *), void *Argument)
{
 8005e84:	b580      	push	{r7, lr}
 8005e86:	b084      	sub	sp, #16
 8005e88:	af00      	add	r7, sp, #0
 8005e8a:	60f8      	str	r0, [r7, #12]
 8005e8c:	60b9      	str	r1, [r7, #8]
 8005e8e:	603b      	str	r3, [r7, #0]
 8005e90:	4613      	mov	r3, r2
 8005e92:	71fb      	strb	r3, [r7, #7]
  if((TimerObject != NULL) && (Callback != NULL))
 8005e94:	68fb      	ldr	r3, [r7, #12]
 8005e96:	2b00      	cmp	r3, #0
 8005e98:	d023      	beq.n	8005ee2 <UTIL_TIMER_Create+0x5e>
 8005e9a:	683b      	ldr	r3, [r7, #0]
 8005e9c:	2b00      	cmp	r3, #0
 8005e9e:	d020      	beq.n	8005ee2 <UTIL_TIMER_Create+0x5e>
  {
    TimerObject->Timestamp = 0U;
 8005ea0:	68fb      	ldr	r3, [r7, #12]
 8005ea2:	2200      	movs	r2, #0
 8005ea4:	601a      	str	r2, [r3, #0]
    TimerObject->ReloadValue = UTIL_TimerDriver.ms2Tick(PeriodValue);
 8005ea6:	4b11      	ldr	r3, [pc, #68]	@ (8005eec <UTIL_TIMER_Create+0x68>)
 8005ea8:	6a5b      	ldr	r3, [r3, #36]	@ 0x24
 8005eaa:	68b8      	ldr	r0, [r7, #8]
 8005eac:	4798      	blx	r3
 8005eae:	4602      	mov	r2, r0
 8005eb0:	68fb      	ldr	r3, [r7, #12]
 8005eb2:	605a      	str	r2, [r3, #4]
    TimerObject->IsPending = 0U;
 8005eb4:	68fb      	ldr	r3, [r7, #12]
 8005eb6:	2200      	movs	r2, #0
 8005eb8:	721a      	strb	r2, [r3, #8]
    TimerObject->IsRunning = 0U;
 8005eba:	68fb      	ldr	r3, [r7, #12]
 8005ebc:	2200      	movs	r2, #0
 8005ebe:	725a      	strb	r2, [r3, #9]
    TimerObject->IsReloadStopped = 0U;
 8005ec0:	68fb      	ldr	r3, [r7, #12]
 8005ec2:	2200      	movs	r2, #0
 8005ec4:	729a      	strb	r2, [r3, #10]
    TimerObject->Callback = Callback;
 8005ec6:	68fb      	ldr	r3, [r7, #12]
 8005ec8:	683a      	ldr	r2, [r7, #0]
 8005eca:	60da      	str	r2, [r3, #12]
    TimerObject->argument = Argument;
 8005ecc:	68fb      	ldr	r3, [r7, #12]
 8005ece:	69ba      	ldr	r2, [r7, #24]
 8005ed0:	611a      	str	r2, [r3, #16]
    TimerObject->Mode = Mode;
 8005ed2:	68fb      	ldr	r3, [r7, #12]
 8005ed4:	79fa      	ldrb	r2, [r7, #7]
 8005ed6:	72da      	strb	r2, [r3, #11]
    TimerObject->Next = NULL;
 8005ed8:	68fb      	ldr	r3, [r7, #12]
 8005eda:	2200      	movs	r2, #0
 8005edc:	615a      	str	r2, [r3, #20]
    return UTIL_TIMER_OK;
 8005ede:	2300      	movs	r3, #0
 8005ee0:	e000      	b.n	8005ee4 <UTIL_TIMER_Create+0x60>
  }
  else
  {
    return UTIL_TIMER_INVALID_PARAM;
 8005ee2:	2301      	movs	r3, #1
  }
}
 8005ee4:	4618      	mov	r0, r3
 8005ee6:	3710      	adds	r7, #16
 8005ee8:	46bd      	mov	sp, r7
 8005eea:	bd80      	pop	{r7, pc}
 8005eec:	0800729c 	.word	0x0800729c

08005ef0 <UTIL_TIMER_Start>:

UTIL_TIMER_Status_t UTIL_TIMER_Start( UTIL_TIMER_Object_t *TimerObject)
{
 8005ef0:	b580      	push	{r7, lr}
 8005ef2:	b08a      	sub	sp, #40	@ 0x28
 8005ef4:	af00      	add	r7, sp, #0
 8005ef6:	6078      	str	r0, [r7, #4]
  UTIL_TIMER_Status_t  ret = UTIL_TIMER_OK;
 8005ef8:	2300      	movs	r3, #0
 8005efa:	f887 3027 	strb.w	r3, [r7, #39]	@ 0x27
  uint32_t elapsedTime;
  uint32_t minValue;
  uint32_t ticks;
    
  if(( TimerObject != NULL ) && ( TimerExists( TimerObject ) == false ) && (TimerObject->IsRunning == 0U))
 8005efe:	687b      	ldr	r3, [r7, #4]
 8005f00:	2b00      	cmp	r3, #0
 8005f02:	d056      	beq.n	8005fb2 <UTIL_TIMER_Start+0xc2>
 8005f04:	6878      	ldr	r0, [r7, #4]
 8005f06:	f000 f929 	bl	800615c <TimerExists>
 8005f0a:	4603      	mov	r3, r0
 8005f0c:	f083 0301 	eor.w	r3, r3, #1
 8005f10:	b2db      	uxtb	r3, r3
 8005f12:	2b00      	cmp	r3, #0
 8005f14:	d04d      	beq.n	8005fb2 <UTIL_TIMER_Start+0xc2>
 8005f16:	687b      	ldr	r3, [r7, #4]
 8005f18:	7a5b      	ldrb	r3, [r3, #9]
 8005f1a:	2b00      	cmp	r3, #0
 8005f1c:	d149      	bne.n	8005fb2 <UTIL_TIMER_Start+0xc2>
  __ASM volatile ("MRS %0, primask" : "=r" (result) :: "memory");
 8005f1e:	f3ef 8310 	mrs	r3, PRIMASK
 8005f22:	613b      	str	r3, [r7, #16]
  return(result);
 8005f24:	693b      	ldr	r3, [r7, #16]
  {
    UTIL_TIMER_ENTER_CRITICAL_SECTION();
 8005f26:	61fb      	str	r3, [r7, #28]
  __ASM volatile ("cpsid i" : : : "memory");
 8005f28:	b672      	cpsid	i
}
 8005f2a:	bf00      	nop
    ticks = TimerObject->ReloadValue;
 8005f2c:	687b      	ldr	r3, [r7, #4]
 8005f2e:	685b      	ldr	r3, [r3, #4]
 8005f30:	623b      	str	r3, [r7, #32]
    minValue = UTIL_TimerDriver.GetMinimumTimeout( );
 8005f32:	4b24      	ldr	r3, [pc, #144]	@ (8005fc4 <UTIL_TIMER_Start+0xd4>)
 8005f34:	6a1b      	ldr	r3, [r3, #32]
 8005f36:	4798      	blx	r3
 8005f38:	61b8      	str	r0, [r7, #24]
    
    if( ticks < minValue )
 8005f3a:	6a3a      	ldr	r2, [r7, #32]
 8005f3c:	69bb      	ldr	r3, [r7, #24]
 8005f3e:	429a      	cmp	r2, r3
 8005f40:	d201      	bcs.n	8005f46 <UTIL_TIMER_Start+0x56>
    {
      ticks = minValue;
 8005f42:	69bb      	ldr	r3, [r7, #24]
 8005f44:	623b      	str	r3, [r7, #32]
    }
    
    TimerObject->Timestamp = ticks;
 8005f46:	687b      	ldr	r3, [r7, #4]
 8005f48:	6a3a      	ldr	r2, [r7, #32]
 8005f4a:	601a      	str	r2, [r3, #0]
    TimerObject->IsPending = 0U;
 8005f4c:	687b      	ldr	r3, [r7, #4]
 8005f4e:	2200      	movs	r2, #0
 8005f50:	721a      	strb	r2, [r3, #8]
    TimerObject->IsRunning = 1U;
 8005f52:	687b      	ldr	r3, [r7, #4]
 8005f54:	2201      	movs	r2, #1
 8005f56:	725a      	strb	r2, [r3, #9]
    TimerObject->IsReloadStopped = 0U;
 8005f58:	687b      	ldr	r3, [r7, #4]
 8005f5a:	2200      	movs	r2, #0
 8005f5c:	729a      	strb	r2, [r3, #10]
    if( TimerListHead == NULL )
 8005f5e:	4b1a      	ldr	r3, [pc, #104]	@ (8005fc8 <UTIL_TIMER_Start+0xd8>)
 8005f60:	681b      	ldr	r3, [r3, #0]
 8005f62:	2b00      	cmp	r3, #0
 8005f64:	d106      	bne.n	8005f74 <UTIL_TIMER_Start+0x84>
    {
      UTIL_TimerDriver.SetTimerContext();
 8005f66:	4b17      	ldr	r3, [pc, #92]	@ (8005fc4 <UTIL_TIMER_Start+0xd4>)
 8005f68:	691b      	ldr	r3, [r3, #16]
 8005f6a:	4798      	blx	r3
      TimerInsertNewHeadTimer( TimerObject ); /* insert a timeout at now+obj->Timestamp */
 8005f6c:	6878      	ldr	r0, [r7, #4]
 8005f6e:	f000 f96b 	bl	8006248 <TimerInsertNewHeadTimer>
 8005f72:	e017      	b.n	8005fa4 <UTIL_TIMER_Start+0xb4>
    }
    else 
    {
      elapsedTime = UTIL_TimerDriver.GetTimerElapsedTime( );
 8005f74:	4b13      	ldr	r3, [pc, #76]	@ (8005fc4 <UTIL_TIMER_Start+0xd4>)
 8005f76:	699b      	ldr	r3, [r3, #24]
 8005f78:	4798      	blx	r3
 8005f7a:	6178      	str	r0, [r7, #20]
      TimerObject->Timestamp += elapsedTime;
 8005f7c:	687b      	ldr	r3, [r7, #4]
 8005f7e:	681a      	ldr	r2, [r3, #0]
 8005f80:	697b      	ldr	r3, [r7, #20]
 8005f82:	441a      	add	r2, r3
 8005f84:	687b      	ldr	r3, [r7, #4]
 8005f86:	601a      	str	r2, [r3, #0]
      
      if( TimerObject->Timestamp < TimerListHead->Timestamp )
 8005f88:	687b      	ldr	r3, [r7, #4]
 8005f8a:	681a      	ldr	r2, [r3, #0]
 8005f8c:	4b0e      	ldr	r3, [pc, #56]	@ (8005fc8 <UTIL_TIMER_Start+0xd8>)
 8005f8e:	681b      	ldr	r3, [r3, #0]
 8005f90:	681b      	ldr	r3, [r3, #0]
 8005f92:	429a      	cmp	r2, r3
 8005f94:	d203      	bcs.n	8005f9e <UTIL_TIMER_Start+0xae>
      {
        TimerInsertNewHeadTimer( TimerObject);
 8005f96:	6878      	ldr	r0, [r7, #4]
 8005f98:	f000 f956 	bl	8006248 <TimerInsertNewHeadTimer>
 8005f9c:	e002      	b.n	8005fa4 <UTIL_TIMER_Start+0xb4>
      }
      else
      {
        TimerInsertTimer( TimerObject);
 8005f9e:	6878      	ldr	r0, [r7, #4]
 8005fa0:	f000 f922 	bl	80061e8 <TimerInsertTimer>
 8005fa4:	69fb      	ldr	r3, [r7, #28]
 8005fa6:	60fb      	str	r3, [r7, #12]
  __ASM volatile ("MSR primask, %0" : : "r" (priMask) : "memory");
 8005fa8:	68fb      	ldr	r3, [r7, #12]
 8005faa:	f383 8810 	msr	PRIMASK, r3
}
 8005fae:	bf00      	nop
  {
 8005fb0:	e002      	b.n	8005fb8 <UTIL_TIMER_Start+0xc8>
    }
    UTIL_TIMER_EXIT_CRITICAL_SECTION();
  }
  else
  {
    ret =  UTIL_TIMER_INVALID_PARAM;
 8005fb2:	2301      	movs	r3, #1
 8005fb4:	f887 3027 	strb.w	r3, [r7, #39]	@ 0x27
  }
  return ret;
 8005fb8:	f897 3027 	ldrb.w	r3, [r7, #39]	@ 0x27
}
 8005fbc:	4618      	mov	r0, r3
 8005fbe:	3728      	adds	r7, #40	@ 0x28
 8005fc0:	46bd      	mov	sp, r7
 8005fc2:	bd80      	pop	{r7, pc}
 8005fc4:	0800729c 	.word	0x0800729c
 8005fc8:	20000294 	.word	0x20000294

08005fcc <UTIL_TIMER_Stop>:
  }
  return ret;
}

UTIL_TIMER_Status_t UTIL_TIMER_Stop( UTIL_TIMER_Object_t *TimerObject )
{
 8005fcc:	b580      	push	{r7, lr}
 8005fce:	b088      	sub	sp, #32
 8005fd0:	af00      	add	r7, sp, #0
 8005fd2:	6078      	str	r0, [r7, #4]
  UTIL_TIMER_Status_t  ret = UTIL_TIMER_OK;
 8005fd4:	2300      	movs	r3, #0
 8005fd6:	77fb      	strb	r3, [r7, #31]

  if (NULL != TimerObject)
 8005fd8:	687b      	ldr	r3, [r7, #4]
 8005fda:	2b00      	cmp	r3, #0
 8005fdc:	d05b      	beq.n	8006096 <UTIL_TIMER_Stop+0xca>
  __ASM volatile ("MRS %0, primask" : "=r" (result) :: "memory");
 8005fde:	f3ef 8310 	mrs	r3, PRIMASK
 8005fe2:	60fb      	str	r3, [r7, #12]
  return(result);
 8005fe4:	68fb      	ldr	r3, [r7, #12]
  {
    UTIL_TIMER_ENTER_CRITICAL_SECTION();
 8005fe6:	613b      	str	r3, [r7, #16]
  __ASM volatile ("cpsid i" : : : "memory");
 8005fe8:	b672      	cpsid	i
}
 8005fea:	bf00      	nop
    UTIL_TIMER_Object_t* prev = TimerListHead;
 8005fec:	4b2d      	ldr	r3, [pc, #180]	@ (80060a4 <UTIL_TIMER_Stop+0xd8>)
 8005fee:	681b      	ldr	r3, [r3, #0]
 8005ff0:	61bb      	str	r3, [r7, #24]
    UTIL_TIMER_Object_t* cur = TimerListHead;
 8005ff2:	4b2c      	ldr	r3, [pc, #176]	@ (80060a4 <UTIL_TIMER_Stop+0xd8>)
 8005ff4:	681b      	ldr	r3, [r3, #0]
 8005ff6:	617b      	str	r3, [r7, #20]
    TimerObject->IsReloadStopped = 1U;
 8005ff8:	687b      	ldr	r3, [r7, #4]
 8005ffa:	2201      	movs	r2, #1
 8005ffc:	729a      	strb	r2, [r3, #10]
    
    /* List is empty or the Obj to stop does not exist  */
    if(NULL != TimerListHead)
 8005ffe:	4b29      	ldr	r3, [pc, #164]	@ (80060a4 <UTIL_TIMER_Stop+0xd8>)
 8006000:	681b      	ldr	r3, [r3, #0]
 8006002:	2b00      	cmp	r3, #0
 8006004:	d041      	beq.n	800608a <UTIL_TIMER_Stop+0xbe>
    {
      TimerObject->IsRunning = 0U;
 8006006:	687b      	ldr	r3, [r7, #4]
 8006008:	2200      	movs	r2, #0
 800600a:	725a      	strb	r2, [r3, #9]
      
      if( TimerListHead == TimerObject ) /* Stop the Head */
 800600c:	4b25      	ldr	r3, [pc, #148]	@ (80060a4 <UTIL_TIMER_Stop+0xd8>)
 800600e:	681b      	ldr	r3, [r3, #0]
 8006010:	687a      	ldr	r2, [r7, #4]
 8006012:	429a      	cmp	r2, r3
 8006014:	d134      	bne.n	8006080 <UTIL_TIMER_Stop+0xb4>
      {
          TimerListHead->IsPending = 0;
 8006016:	4b23      	ldr	r3, [pc, #140]	@ (80060a4 <UTIL_TIMER_Stop+0xd8>)
 8006018:	681b      	ldr	r3, [r3, #0]
 800601a:	2200      	movs	r2, #0
 800601c:	721a      	strb	r2, [r3, #8]
          if( TimerListHead->Next != NULL )
 800601e:	4b21      	ldr	r3, [pc, #132]	@ (80060a4 <UTIL_TIMER_Stop+0xd8>)
 8006020:	681b      	ldr	r3, [r3, #0]
 8006022:	695b      	ldr	r3, [r3, #20]
 8006024:	2b00      	cmp	r3, #0
 8006026:	d00a      	beq.n	800603e <UTIL_TIMER_Stop+0x72>
          {
            TimerListHead = TimerListHead->Next;
 8006028:	4b1e      	ldr	r3, [pc, #120]	@ (80060a4 <UTIL_TIMER_Stop+0xd8>)
 800602a:	681b      	ldr	r3, [r3, #0]
 800602c:	695b      	ldr	r3, [r3, #20]
 800602e:	4a1d      	ldr	r2, [pc, #116]	@ (80060a4 <UTIL_TIMER_Stop+0xd8>)
 8006030:	6013      	str	r3, [r2, #0]
            TimerSetTimeout( TimerListHead );
 8006032:	4b1c      	ldr	r3, [pc, #112]	@ (80060a4 <UTIL_TIMER_Stop+0xd8>)
 8006034:	681b      	ldr	r3, [r3, #0]
 8006036:	4618      	mov	r0, r3
 8006038:	f000 f8ac 	bl	8006194 <TimerSetTimeout>
 800603c:	e023      	b.n	8006086 <UTIL_TIMER_Stop+0xba>
          }
          else
          {
            UTIL_TimerDriver.StopTimerEvt( );
 800603e:	4b1a      	ldr	r3, [pc, #104]	@ (80060a8 <UTIL_TIMER_Stop+0xdc>)
 8006040:	68db      	ldr	r3, [r3, #12]
 8006042:	4798      	blx	r3
            TimerListHead = NULL;
 8006044:	4b17      	ldr	r3, [pc, #92]	@ (80060a4 <UTIL_TIMER_Stop+0xd8>)
 8006046:	2200      	movs	r2, #0
 8006048:	601a      	str	r2, [r3, #0]
 800604a:	e01c      	b.n	8006086 <UTIL_TIMER_Stop+0xba>
      }
      else /* Stop an object within the list */
      {      
        while( cur != NULL )
        {
          if( cur == TimerObject )
 800604c:	697a      	ldr	r2, [r7, #20]
 800604e:	687b      	ldr	r3, [r7, #4]
 8006050:	429a      	cmp	r2, r3
 8006052:	d110      	bne.n	8006076 <UTIL_TIMER_Stop+0xaa>
          {
            if( cur->Next != NULL )
 8006054:	697b      	ldr	r3, [r7, #20]
 8006056:	695b      	ldr	r3, [r3, #20]
 8006058:	2b00      	cmp	r3, #0
 800605a:	d006      	beq.n	800606a <UTIL_TIMER_Stop+0x9e>
            {
              cur = cur->Next;
 800605c:	697b      	ldr	r3, [r7, #20]
 800605e:	695b      	ldr	r3, [r3, #20]
 8006060:	617b      	str	r3, [r7, #20]
              prev->Next = cur;
 8006062:	69bb      	ldr	r3, [r7, #24]
 8006064:	697a      	ldr	r2, [r7, #20]
 8006066:	615a      	str	r2, [r3, #20]
            else
            {
              cur = NULL;
              prev->Next = cur;
            }
            break;
 8006068:	e00d      	b.n	8006086 <UTIL_TIMER_Stop+0xba>
              cur = NULL;
 800606a:	2300      	movs	r3, #0
 800606c:	617b      	str	r3, [r7, #20]
              prev->Next = cur;
 800606e:	69bb      	ldr	r3, [r7, #24]
 8006070:	697a      	ldr	r2, [r7, #20]
 8006072:	615a      	str	r2, [r3, #20]
            break;
 8006074:	e007      	b.n	8006086 <UTIL_TIMER_Stop+0xba>
          }
          else
          {
            prev = cur;
 8006076:	697b      	ldr	r3, [r7, #20]
 8006078:	61bb      	str	r3, [r7, #24]
            cur = cur->Next;
 800607a:	697b      	ldr	r3, [r7, #20]
 800607c:	695b      	ldr	r3, [r3, #20]
 800607e:	617b      	str	r3, [r7, #20]
        while( cur != NULL )
 8006080:	697b      	ldr	r3, [r7, #20]
 8006082:	2b00      	cmp	r3, #0
 8006084:	d1e2      	bne.n	800604c <UTIL_TIMER_Stop+0x80>
          }
        }   
      }
      ret = UTIL_TIMER_OK;
 8006086:	2300      	movs	r3, #0
 8006088:	77fb      	strb	r3, [r7, #31]
 800608a:	693b      	ldr	r3, [r7, #16]
 800608c:	60bb      	str	r3, [r7, #8]
  __ASM volatile ("MSR primask, %0" : : "r" (priMask) : "memory");
 800608e:	68bb      	ldr	r3, [r7, #8]
 8006090:	f383 8810 	msr	PRIMASK, r3
}
 8006094:	e001      	b.n	800609a <UTIL_TIMER_Stop+0xce>
    }
    UTIL_TIMER_EXIT_CRITICAL_SECTION();
  }
  else
  {
    ret = UTIL_TIMER_INVALID_PARAM;
 8006096:	2301      	movs	r3, #1
 8006098:	77fb      	strb	r3, [r7, #31]
  }
  return ret;
 800609a:	7ffb      	ldrb	r3, [r7, #31]
}
 800609c:	4618      	mov	r0, r3
 800609e:	3720      	adds	r7, #32
 80060a0:	46bd      	mov	sp, r7
 80060a2:	bd80      	pop	{r7, pc}
 80060a4:	20000294 	.word	0x20000294
 80060a8:	0800729c 	.word	0x0800729c

080060ac <UTIL_TIMER_SetPeriod>:

UTIL_TIMER_Status_t UTIL_TIMER_SetPeriod(UTIL_TIMER_Object_t *TimerObject, uint32_t NewPeriodValue)
{
 80060ac:	b580      	push	{r7, lr}
 80060ae:	b084      	sub	sp, #16
 80060b0:	af00      	add	r7, sp, #0
 80060b2:	6078      	str	r0, [r7, #4]
 80060b4:	6039      	str	r1, [r7, #0]
  UTIL_TIMER_Status_t  ret = UTIL_TIMER_OK;
 80060b6:	2300      	movs	r3, #0
 80060b8:	73fb      	strb	r3, [r7, #15]
  
  if(NULL == TimerObject)
 80060ba:	687b      	ldr	r3, [r7, #4]
 80060bc:	2b00      	cmp	r3, #0
 80060be:	d102      	bne.n	80060c6 <UTIL_TIMER_SetPeriod+0x1a>
  {
	  ret = UTIL_TIMER_INVALID_PARAM;
 80060c0:	2301      	movs	r3, #1
 80060c2:	73fb      	strb	r3, [r7, #15]
 80060c4:	e014      	b.n	80060f0 <UTIL_TIMER_SetPeriod+0x44>
  }
  else
  {
    TimerObject->ReloadValue = UTIL_TimerDriver.ms2Tick(NewPeriodValue);
 80060c6:	4b0d      	ldr	r3, [pc, #52]	@ (80060fc <UTIL_TIMER_SetPeriod+0x50>)
 80060c8:	6a5b      	ldr	r3, [r3, #36]	@ 0x24
 80060ca:	6838      	ldr	r0, [r7, #0]
 80060cc:	4798      	blx	r3
 80060ce:	4602      	mov	r2, r0
 80060d0:	687b      	ldr	r3, [r7, #4]
 80060d2:	605a      	str	r2, [r3, #4]
    if(TimerExists(TimerObject))
 80060d4:	6878      	ldr	r0, [r7, #4]
 80060d6:	f000 f841 	bl	800615c <TimerExists>
 80060da:	4603      	mov	r3, r0
 80060dc:	2b00      	cmp	r3, #0
 80060de:	d007      	beq.n	80060f0 <UTIL_TIMER_SetPeriod+0x44>
    {
      (void)UTIL_TIMER_Stop(TimerObject);
 80060e0:	6878      	ldr	r0, [r7, #4]
 80060e2:	f7ff ff73 	bl	8005fcc <UTIL_TIMER_Stop>
      ret = UTIL_TIMER_Start(TimerObject);
 80060e6:	6878      	ldr	r0, [r7, #4]
 80060e8:	f7ff ff02 	bl	8005ef0 <UTIL_TIMER_Start>
 80060ec:	4603      	mov	r3, r0
 80060ee:	73fb      	strb	r3, [r7, #15]
    }
  }
  return ret;
 80060f0:	7bfb      	ldrb	r3, [r7, #15]
}
 80060f2:	4618      	mov	r0, r3
 80060f4:	3710      	adds	r7, #16
 80060f6:	46bd      	mov	sp, r7
 80060f8:	bd80      	pop	{r7, pc}
 80060fa:	bf00      	nop
 80060fc:	0800729c 	.word	0x0800729c

08006100 <UTIL_TIMER_GetCurrentTime>:
  }
  UTIL_TIMER_EXIT_CRITICAL_SECTION();
}

UTIL_TIMER_Time_t UTIL_TIMER_GetCurrentTime(void)
{
 8006100:	b580      	push	{r7, lr}
 8006102:	b082      	sub	sp, #8
 8006104:	af00      	add	r7, sp, #0
  uint32_t now = UTIL_TimerDriver.GetTimerValue( );
 8006106:	4b06      	ldr	r3, [pc, #24]	@ (8006120 <UTIL_TIMER_GetCurrentTime+0x20>)
 8006108:	69db      	ldr	r3, [r3, #28]
 800610a:	4798      	blx	r3
 800610c:	6078      	str	r0, [r7, #4]
  return  UTIL_TimerDriver.Tick2ms(now);
 800610e:	4b04      	ldr	r3, [pc, #16]	@ (8006120 <UTIL_TIMER_GetCurrentTime+0x20>)
 8006110:	6a9b      	ldr	r3, [r3, #40]	@ 0x28
 8006112:	6878      	ldr	r0, [r7, #4]
 8006114:	4798      	blx	r3
 8006116:	4603      	mov	r3, r0
}
 8006118:	4618      	mov	r0, r3
 800611a:	3708      	adds	r7, #8
 800611c:	46bd      	mov	sp, r7
 800611e:	bd80      	pop	{r7, pc}
 8006120:	0800729c 	.word	0x0800729c

08006124 <UTIL_TIMER_GetElapsedTime>:

UTIL_TIMER_Time_t UTIL_TIMER_GetElapsedTime(UTIL_TIMER_Time_t past )
{
 8006124:	b580      	push	{r7, lr}
 8006126:	b084      	sub	sp, #16
 8006128:	af00      	add	r7, sp, #0
 800612a:	6078      	str	r0, [r7, #4]
  uint32_t nowInTicks = UTIL_TimerDriver.GetTimerValue( );
 800612c:	4b0a      	ldr	r3, [pc, #40]	@ (8006158 <UTIL_TIMER_GetElapsedTime+0x34>)
 800612e:	69db      	ldr	r3, [r3, #28]
 8006130:	4798      	blx	r3
 8006132:	60f8      	str	r0, [r7, #12]
  uint32_t pastInTicks = UTIL_TimerDriver.ms2Tick( past );
 8006134:	4b08      	ldr	r3, [pc, #32]	@ (8006158 <UTIL_TIMER_GetElapsedTime+0x34>)
 8006136:	6a5b      	ldr	r3, [r3, #36]	@ 0x24
 8006138:	6878      	ldr	r0, [r7, #4]
 800613a:	4798      	blx	r3
 800613c:	60b8      	str	r0, [r7, #8]
  /* intentional wrap around. Works Ok if tick duation below 1ms */
  return UTIL_TimerDriver.Tick2ms( nowInTicks- pastInTicks );
 800613e:	4b06      	ldr	r3, [pc, #24]	@ (8006158 <UTIL_TIMER_GetElapsedTime+0x34>)
 8006140:	6a9b      	ldr	r3, [r3, #40]	@ 0x28
 8006142:	68f9      	ldr	r1, [r7, #12]
 8006144:	68ba      	ldr	r2, [r7, #8]
 8006146:	1a8a      	subs	r2, r1, r2
 8006148:	4610      	mov	r0, r2
 800614a:	4798      	blx	r3
 800614c:	4603      	mov	r3, r0
}
 800614e:	4618      	mov	r0, r3
 8006150:	3710      	adds	r7, #16
 8006152:	46bd      	mov	sp, r7
 8006154:	bd80      	pop	{r7, pc}
 8006156:	bf00      	nop
 8006158:	0800729c 	.word	0x0800729c

0800615c <TimerExists>:
 *
 * @param TimerObject Structure containing the timer object parameters
 * @retval 1 (the object is already in the list) or 0
 */
bool TimerExists( UTIL_TIMER_Object_t *TimerObject )
{
 800615c:	b480      	push	{r7}
 800615e:	b085      	sub	sp, #20
 8006160:	af00      	add	r7, sp, #0
 8006162:	6078      	str	r0, [r7, #4]
  UTIL_TIMER_Object_t* cur = TimerListHead;
 8006164:	4b0a      	ldr	r3, [pc, #40]	@ (8006190 <TimerExists+0x34>)
 8006166:	681b      	ldr	r3, [r3, #0]
 8006168:	60fb      	str	r3, [r7, #12]

  while( cur != NULL )
 800616a:	e008      	b.n	800617e <TimerExists+0x22>
  {
    if( cur == TimerObject )
 800616c:	68fa      	ldr	r2, [r7, #12]
 800616e:	687b      	ldr	r3, [r7, #4]
 8006170:	429a      	cmp	r2, r3
 8006172:	d101      	bne.n	8006178 <TimerExists+0x1c>
    {
      return true;
 8006174:	2301      	movs	r3, #1
 8006176:	e006      	b.n	8006186 <TimerExists+0x2a>
    }
    cur = cur->Next;
 8006178:	68fb      	ldr	r3, [r7, #12]
 800617a:	695b      	ldr	r3, [r3, #20]
 800617c:	60fb      	str	r3, [r7, #12]
  while( cur != NULL )
 800617e:	68fb      	ldr	r3, [r7, #12]
 8006180:	2b00      	cmp	r3, #0
 8006182:	d1f3      	bne.n	800616c <TimerExists+0x10>
  }
  return false;
 8006184:	2300      	movs	r3, #0
}
 8006186:	4618      	mov	r0, r3
 8006188:	3714      	adds	r7, #20
 800618a:	46bd      	mov	sp, r7
 800618c:	bc80      	pop	{r7}
 800618e:	4770      	bx	lr
 8006190:	20000294 	.word	0x20000294

08006194 <TimerSetTimeout>:
 * @brief Sets a timeout with the duration "timestamp"
 *
 * @param TimerObject Structure containing the timer object parameters
 */
void TimerSetTimeout( UTIL_TIMER_Object_t *TimerObject )
{
 8006194:	b590      	push	{r4, r7, lr}
 8006196:	b085      	sub	sp, #20
 8006198:	af00      	add	r7, sp, #0
 800619a:	6078      	str	r0, [r7, #4]
  uint32_t minTicks= UTIL_TimerDriver.GetMinimumTimeout( );
 800619c:	4b11      	ldr	r3, [pc, #68]	@ (80061e4 <TimerSetTimeout+0x50>)
 800619e:	6a1b      	ldr	r3, [r3, #32]
 80061a0:	4798      	blx	r3
 80061a2:	60f8      	str	r0, [r7, #12]
  TimerObject->IsPending = 1;
 80061a4:	687b      	ldr	r3, [r7, #4]
 80061a6:	2201      	movs	r2, #1
 80061a8:	721a      	strb	r2, [r3, #8]

  /* In case deadline too soon */
  if(TimerObject->Timestamp  < (UTIL_TimerDriver.GetTimerElapsedTime(  ) + minTicks) )
 80061aa:	687b      	ldr	r3, [r7, #4]
 80061ac:	681c      	ldr	r4, [r3, #0]
 80061ae:	4b0d      	ldr	r3, [pc, #52]	@ (80061e4 <TimerSetTimeout+0x50>)
 80061b0:	699b      	ldr	r3, [r3, #24]
 80061b2:	4798      	blx	r3
 80061b4:	4602      	mov	r2, r0
 80061b6:	68fb      	ldr	r3, [r7, #12]
 80061b8:	4413      	add	r3, r2
 80061ba:	429c      	cmp	r4, r3
 80061bc:	d207      	bcs.n	80061ce <TimerSetTimeout+0x3a>
  {
	  TimerObject->Timestamp = UTIL_TimerDriver.GetTimerElapsedTime(  ) + minTicks;
 80061be:	4b09      	ldr	r3, [pc, #36]	@ (80061e4 <TimerSetTimeout+0x50>)
 80061c0:	699b      	ldr	r3, [r3, #24]
 80061c2:	4798      	blx	r3
 80061c4:	4602      	mov	r2, r0
 80061c6:	68fb      	ldr	r3, [r7, #12]
 80061c8:	441a      	add	r2, r3
 80061ca:	687b      	ldr	r3, [r7, #4]
 80061cc:	601a      	str	r2, [r3, #0]
  }
  UTIL_TimerDriver.StartTimerEvt( TimerObject->Timestamp );
 80061ce:	4b05      	ldr	r3, [pc, #20]	@ (80061e4 <TimerSetTimeout+0x50>)
 80061d0:	689b      	ldr	r3, [r3, #8]
 80061d2:	687a      	ldr	r2, [r7, #4]
 80061d4:	6812      	ldr	r2, [r2, #0]
 80061d6:	4610      	mov	r0, r2
 80061d8:	4798      	blx	r3
}
 80061da:	bf00      	nop
 80061dc:	3714      	adds	r7, #20
 80061de:	46bd      	mov	sp, r7
 80061e0:	bd90      	pop	{r4, r7, pc}
 80061e2:	bf00      	nop
 80061e4:	0800729c 	.word	0x0800729c

080061e8 <TimerInsertTimer>:
 *     next timer to expire.
 *
 * @param TimerObject Structure containing the timer object parameters
 */
void TimerInsertTimer( UTIL_TIMER_Object_t *TimerObject)
{
 80061e8:	b480      	push	{r7}
 80061ea:	b085      	sub	sp, #20
 80061ec:	af00      	add	r7, sp, #0
 80061ee:	6078      	str	r0, [r7, #4]
  UTIL_TIMER_Object_t* cur = TimerListHead;
 80061f0:	4b14      	ldr	r3, [pc, #80]	@ (8006244 <TimerInsertTimer+0x5c>)
 80061f2:	681b      	ldr	r3, [r3, #0]
 80061f4:	60fb      	str	r3, [r7, #12]
  UTIL_TIMER_Object_t* next = TimerListHead->Next;
 80061f6:	4b13      	ldr	r3, [pc, #76]	@ (8006244 <TimerInsertTimer+0x5c>)
 80061f8:	681b      	ldr	r3, [r3, #0]
 80061fa:	695b      	ldr	r3, [r3, #20]
 80061fc:	60bb      	str	r3, [r7, #8]

  while (cur->Next != NULL )
 80061fe:	e012      	b.n	8006226 <TimerInsertTimer+0x3e>
  {  
    if( TimerObject->Timestamp  > next->Timestamp )
 8006200:	687b      	ldr	r3, [r7, #4]
 8006202:	681a      	ldr	r2, [r3, #0]
 8006204:	68bb      	ldr	r3, [r7, #8]
 8006206:	681b      	ldr	r3, [r3, #0]
 8006208:	429a      	cmp	r2, r3
 800620a:	d905      	bls.n	8006218 <TimerInsertTimer+0x30>
    {
        cur = next;
 800620c:	68bb      	ldr	r3, [r7, #8]
 800620e:	60fb      	str	r3, [r7, #12]
        next = next->Next;
 8006210:	68bb      	ldr	r3, [r7, #8]
 8006212:	695b      	ldr	r3, [r3, #20]
 8006214:	60bb      	str	r3, [r7, #8]
 8006216:	e006      	b.n	8006226 <TimerInsertTimer+0x3e>
    }
    else
    {
        cur->Next = TimerObject;
 8006218:	68fb      	ldr	r3, [r7, #12]
 800621a:	687a      	ldr	r2, [r7, #4]
 800621c:	615a      	str	r2, [r3, #20]
        TimerObject->Next = next;
 800621e:	687b      	ldr	r3, [r7, #4]
 8006220:	68ba      	ldr	r2, [r7, #8]
 8006222:	615a      	str	r2, [r3, #20]
        return;
 8006224:	e009      	b.n	800623a <TimerInsertTimer+0x52>
  while (cur->Next != NULL )
 8006226:	68fb      	ldr	r3, [r7, #12]
 8006228:	695b      	ldr	r3, [r3, #20]
 800622a:	2b00      	cmp	r3, #0
 800622c:	d1e8      	bne.n	8006200 <TimerInsertTimer+0x18>

    }
  }
  cur->Next = TimerObject;
 800622e:	68fb      	ldr	r3, [r7, #12]
 8006230:	687a      	ldr	r2, [r7, #4]
 8006232:	615a      	str	r2, [r3, #20]
  TimerObject->Next = NULL;
 8006234:	687b      	ldr	r3, [r7, #4]
 8006236:	2200      	movs	r2, #0
 8006238:	615a      	str	r2, [r3, #20]
}
 800623a:	3714      	adds	r7, #20
 800623c:	46bd      	mov	sp, r7
 800623e:	bc80      	pop	{r7}
 8006240:	4770      	bx	lr
 8006242:	bf00      	nop
 8006244:	20000294 	.word	0x20000294

08006248 <TimerInsertNewHeadTimer>:
 *
 * @remark The list is automatically sorted. The list head always contains the
 *         next timer to expire.
 */
void TimerInsertNewHeadTimer( UTIL_TIMER_Object_t *TimerObject )
{
 8006248:	b580      	push	{r7, lr}
 800624a:	b084      	sub	sp, #16
 800624c:	af00      	add	r7, sp, #0
 800624e:	6078      	str	r0, [r7, #4]
  UTIL_TIMER_Object_t* cur = TimerListHead;
 8006250:	4b0b      	ldr	r3, [pc, #44]	@ (8006280 <TimerInsertNewHeadTimer+0x38>)
 8006252:	681b      	ldr	r3, [r3, #0]
 8006254:	60fb      	str	r3, [r7, #12]

  if( cur != NULL )
 8006256:	68fb      	ldr	r3, [r7, #12]
 8006258:	2b00      	cmp	r3, #0
 800625a:	d002      	beq.n	8006262 <TimerInsertNewHeadTimer+0x1a>
  {
    cur->IsPending = 0;
 800625c:	68fb      	ldr	r3, [r7, #12]
 800625e:	2200      	movs	r2, #0
 8006260:	721a      	strb	r2, [r3, #8]
  }

  TimerObject->Next = cur;
 8006262:	687b      	ldr	r3, [r7, #4]
 8006264:	68fa      	ldr	r2, [r7, #12]
 8006266:	615a      	str	r2, [r3, #20]
  TimerListHead = TimerObject;
 8006268:	4a05      	ldr	r2, [pc, #20]	@ (8006280 <TimerInsertNewHeadTimer+0x38>)
 800626a:	687b      	ldr	r3, [r7, #4]
 800626c:	6013      	str	r3, [r2, #0]
  TimerSetTimeout( TimerListHead );
 800626e:	4b04      	ldr	r3, [pc, #16]	@ (8006280 <TimerInsertNewHeadTimer+0x38>)
 8006270:	681b      	ldr	r3, [r3, #0]
 8006272:	4618      	mov	r0, r3
 8006274:	f7ff ff8e 	bl	8006194 <TimerSetTimeout>
}
 8006278:	bf00      	nop
 800627a:	3710      	adds	r7, #16
 800627c:	46bd      	mov	sp, r7
 800627e:	bd80      	pop	{r7, pc}
 8006280:	20000294 	.word	0x20000294

08006284 <std>:
 8006284:	2300      	movs	r3, #0
 8006286:	b510      	push	{r4, lr}
 8006288:	4604      	mov	r4, r0
 800628a:	e9c0 3300 	strd	r3, r3, [r0]
 800628e:	e9c0 3304 	strd	r3, r3, [r0, #16]
 8006292:	6083      	str	r3, [r0, #8]
 8006294:	8181      	strh	r1, [r0, #12]
 8006296:	6643      	str	r3, [r0, #100]	@ 0x64
 8006298:	81c2      	strh	r2, [r0, #14]
 800629a:	6183      	str	r3, [r0, #24]
 800629c:	4619      	mov	r1, r3
 800629e:	2208      	movs	r2, #8
 80062a0:	305c      	adds	r0, #92	@ 0x5c
 80062a2:	f000 f9f9 	bl	8006698 <memset>
 80062a6:	4b0d      	ldr	r3, [pc, #52]	@ (80062dc <std+0x58>)
 80062a8:	6263      	str	r3, [r4, #36]	@ 0x24
 80062aa:	4b0d      	ldr	r3, [pc, #52]	@ (80062e0 <std+0x5c>)
 80062ac:	62a3      	str	r3, [r4, #40]	@ 0x28
 80062ae:	4b0d      	ldr	r3, [pc, #52]	@ (80062e4 <std+0x60>)
 80062b0:	62e3      	str	r3, [r4, #44]	@ 0x2c
 80062b2:	4b0d      	ldr	r3, [pc, #52]	@ (80062e8 <std+0x64>)
 80062b4:	6323      	str	r3, [r4, #48]	@ 0x30
 80062b6:	4b0d      	ldr	r3, [pc, #52]	@ (80062ec <std+0x68>)
 80062b8:	6224      	str	r4, [r4, #32]
 80062ba:	429c      	cmp	r4, r3
 80062bc:	d006      	beq.n	80062cc <std+0x48>
 80062be:	f103 0268 	add.w	r2, r3, #104	@ 0x68
 80062c2:	4294      	cmp	r4, r2
 80062c4:	d002      	beq.n	80062cc <std+0x48>
 80062c6:	33d0      	adds	r3, #208	@ 0xd0
 80062c8:	429c      	cmp	r4, r3
 80062ca:	d105      	bne.n	80062d8 <std+0x54>
 80062cc:	f104 0058 	add.w	r0, r4, #88	@ 0x58
 80062d0:	e8bd 4010 	ldmia.w	sp!, {r4, lr}
 80062d4:	f000 ba58 	b.w	8006788 <__retarget_lock_init_recursive>
 80062d8:	bd10      	pop	{r4, pc}
 80062da:	bf00      	nop
 80062dc:	080064e9 	.word	0x080064e9
 80062e0:	0800650b 	.word	0x0800650b
 80062e4:	08006543 	.word	0x08006543
 80062e8:	08006567 	.word	0x08006567
 80062ec:	20000298 	.word	0x20000298

080062f0 <stdio_exit_handler>:
 80062f0:	4a02      	ldr	r2, [pc, #8]	@ (80062fc <stdio_exit_handler+0xc>)
 80062f2:	4903      	ldr	r1, [pc, #12]	@ (8006300 <stdio_exit_handler+0x10>)
 80062f4:	4803      	ldr	r0, [pc, #12]	@ (8006304 <stdio_exit_handler+0x14>)
 80062f6:	f000 b869 	b.w	80063cc <_fwalk_sglue>
 80062fa:	bf00      	nop
 80062fc:	2000000c 	.word	0x2000000c
 8006300:	0800701d 	.word	0x0800701d
 8006304:	2000001c 	.word	0x2000001c

08006308 <cleanup_stdio>:
 8006308:	6841      	ldr	r1, [r0, #4]
 800630a:	4b0c      	ldr	r3, [pc, #48]	@ (800633c <cleanup_stdio+0x34>)
 800630c:	4299      	cmp	r1, r3
 800630e:	b510      	push	{r4, lr}
 8006310:	4604      	mov	r4, r0
 8006312:	d001      	beq.n	8006318 <cleanup_stdio+0x10>
 8006314:	f000 fe82 	bl	800701c <_fflush_r>
 8006318:	68a1      	ldr	r1, [r4, #8]
 800631a:	4b09      	ldr	r3, [pc, #36]	@ (8006340 <cleanup_stdio+0x38>)
 800631c:	4299      	cmp	r1, r3
 800631e:	d002      	beq.n	8006326 <cleanup_stdio+0x1e>
 8006320:	4620      	mov	r0, r4
 8006322:	f000 fe7b 	bl	800701c <_fflush_r>
 8006326:	68e1      	ldr	r1, [r4, #12]
 8006328:	4b06      	ldr	r3, [pc, #24]	@ (8006344 <cleanup_stdio+0x3c>)
 800632a:	4299      	cmp	r1, r3
 800632c:	d004      	beq.n	8006338 <cleanup_stdio+0x30>
 800632e:	4620      	mov	r0, r4
 8006330:	e8bd 4010 	ldmia.w	sp!, {r4, lr}
 8006334:	f000 be72 	b.w	800701c <_fflush_r>
 8006338:	bd10      	pop	{r4, pc}
 800633a:	bf00      	nop
 800633c:	20000298 	.word	0x20000298
 8006340:	20000300 	.word	0x20000300
 8006344:	20000368 	.word	0x20000368

08006348 <global_stdio_init.part.0>:
 8006348:	b510      	push	{r4, lr}
 800634a:	4b0b      	ldr	r3, [pc, #44]	@ (8006378 <global_stdio_init.part.0+0x30>)
 800634c:	4c0b      	ldr	r4, [pc, #44]	@ (800637c <global_stdio_init.part.0+0x34>)
 800634e:	4a0c      	ldr	r2, [pc, #48]	@ (8006380 <global_stdio_init.part.0+0x38>)
 8006350:	601a      	str	r2, [r3, #0]
 8006352:	4620      	mov	r0, r4
 8006354:	2200      	movs	r2, #0
 8006356:	2104      	movs	r1, #4
 8006358:	f7ff ff94 	bl	8006284 <std>
 800635c:	f104 0068 	add.w	r0, r4, #104	@ 0x68
 8006360:	2201      	movs	r2, #1
 8006362:	2109      	movs	r1, #9
 8006364:	f7ff ff8e 	bl	8006284 <std>
 8006368:	f104 00d0 	add.w	r0, r4, #208	@ 0xd0
 800636c:	2202      	movs	r2, #2
 800636e:	e8bd 4010 	ldmia.w	sp!, {r4, lr}
 8006372:	2112      	movs	r1, #18
 8006374:	f7ff bf86 	b.w	8006284 <std>
 8006378:	200003d0 	.word	0x200003d0
 800637c:	20000298 	.word	0x20000298
 8006380:	080062f1 	.word	0x080062f1

08006384 <__sfp_lock_acquire>:
 8006384:	4801      	ldr	r0, [pc, #4]	@ (800638c <__sfp_lock_acquire+0x8>)
 8006386:	f000 ba00 	b.w	800678a <__retarget_lock_acquire_recursive>
 800638a:	bf00      	nop
 800638c:	200003d9 	.word	0x200003d9

08006390 <__sfp_lock_release>:
 8006390:	4801      	ldr	r0, [pc, #4]	@ (8006398 <__sfp_lock_release+0x8>)
 8006392:	f000 b9fb 	b.w	800678c <__retarget_lock_release_recursive>
 8006396:	bf00      	nop
 8006398:	200003d9 	.word	0x200003d9

0800639c <__sinit>:
 800639c:	b510      	push	{r4, lr}
 800639e:	4604      	mov	r4, r0
 80063a0:	f7ff fff0 	bl	8006384 <__sfp_lock_acquire>
 80063a4:	6a23      	ldr	r3, [r4, #32]
 80063a6:	b11b      	cbz	r3, 80063b0 <__sinit+0x14>
 80063a8:	e8bd 4010 	ldmia.w	sp!, {r4, lr}
 80063ac:	f7ff bff0 	b.w	8006390 <__sfp_lock_release>
 80063b0:	4b04      	ldr	r3, [pc, #16]	@ (80063c4 <__sinit+0x28>)
 80063b2:	6223      	str	r3, [r4, #32]
 80063b4:	4b04      	ldr	r3, [pc, #16]	@ (80063c8 <__sinit+0x2c>)
 80063b6:	681b      	ldr	r3, [r3, #0]
 80063b8:	2b00      	cmp	r3, #0
 80063ba:	d1f5      	bne.n	80063a8 <__sinit+0xc>
 80063bc:	f7ff ffc4 	bl	8006348 <global_stdio_init.part.0>
 80063c0:	e7f2      	b.n	80063a8 <__sinit+0xc>
 80063c2:	bf00      	nop
 80063c4:	08006309 	.word	0x08006309
 80063c8:	200003d0 	.word	0x200003d0

080063cc <_fwalk_sglue>:
 80063cc:	e92d 43f8 	stmdb	sp!, {r3, r4, r5, r6, r7, r8, r9, lr}
 80063d0:	4607      	mov	r7, r0
 80063d2:	4688      	mov	r8, r1
 80063d4:	4614      	mov	r4, r2
 80063d6:	2600      	movs	r6, #0
 80063d8:	e9d4 9501 	ldrd	r9, r5, [r4, #4]
 80063dc:	f1b9 0901 	subs.w	r9, r9, #1
 80063e0:	d505      	bpl.n	80063ee <_fwalk_sglue+0x22>
 80063e2:	6824      	ldr	r4, [r4, #0]
 80063e4:	2c00      	cmp	r4, #0
 80063e6:	d1f7      	bne.n	80063d8 <_fwalk_sglue+0xc>
 80063e8:	4630      	mov	r0, r6
 80063ea:	e8bd 83f8 	ldmia.w	sp!, {r3, r4, r5, r6, r7, r8, r9, pc}
 80063ee:	89ab      	ldrh	r3, [r5, #12]
 80063f0:	2b01      	cmp	r3, #1
 80063f2:	d907      	bls.n	8006404 <_fwalk_sglue+0x38>
 80063f4:	f9b5 300e 	ldrsh.w	r3, [r5, #14]
 80063f8:	3301      	adds	r3, #1
 80063fa:	d003      	beq.n	8006404 <_fwalk_sglue+0x38>
 80063fc:	4629      	mov	r1, r5
 80063fe:	4638      	mov	r0, r7
 8006400:	47c0      	blx	r8
 8006402:	4306      	orrs	r6, r0
 8006404:	3568      	adds	r5, #104	@ 0x68
 8006406:	e7e9      	b.n	80063dc <_fwalk_sglue+0x10>

08006408 <iprintf>:
 8006408:	b40f      	push	{r0, r1, r2, r3}
 800640a:	b507      	push	{r0, r1, r2, lr}
 800640c:	4906      	ldr	r1, [pc, #24]	@ (8006428 <iprintf+0x20>)
 800640e:	ab04      	add	r3, sp, #16
 8006410:	6808      	ldr	r0, [r1, #0]
 8006412:	f853 2b04 	ldr.w	r2, [r3], #4
 8006416:	6881      	ldr	r1, [r0, #8]
 8006418:	9301      	str	r3, [sp, #4]
 800641a:	f000 fad9 	bl	80069d0 <_vfiprintf_r>
 800641e:	b003      	add	sp, #12
 8006420:	f85d eb04 	ldr.w	lr, [sp], #4
 8006424:	b004      	add	sp, #16
 8006426:	4770      	bx	lr
 8006428:	20000018 	.word	0x20000018

0800642c <_puts_r>:
 800642c:	6a03      	ldr	r3, [r0, #32]
 800642e:	b570      	push	{r4, r5, r6, lr}
 8006430:	6884      	ldr	r4, [r0, #8]
 8006432:	4605      	mov	r5, r0
 8006434:	460e      	mov	r6, r1
 8006436:	b90b      	cbnz	r3, 800643c <_puts_r+0x10>
 8006438:	f7ff ffb0 	bl	800639c <__sinit>
 800643c:	6e63      	ldr	r3, [r4, #100]	@ 0x64
 800643e:	07db      	lsls	r3, r3, #31
 8006440:	d405      	bmi.n	800644e <_puts_r+0x22>
 8006442:	89a3      	ldrh	r3, [r4, #12]
 8006444:	0598      	lsls	r0, r3, #22
 8006446:	d402      	bmi.n	800644e <_puts_r+0x22>
 8006448:	6da0      	ldr	r0, [r4, #88]	@ 0x58
 800644a:	f000 f99e 	bl	800678a <__retarget_lock_acquire_recursive>
 800644e:	89a3      	ldrh	r3, [r4, #12]
 8006450:	0719      	lsls	r1, r3, #28
 8006452:	d502      	bpl.n	800645a <_puts_r+0x2e>
 8006454:	6923      	ldr	r3, [r4, #16]
 8006456:	2b00      	cmp	r3, #0
 8006458:	d135      	bne.n	80064c6 <_puts_r+0x9a>
 800645a:	4621      	mov	r1, r4
 800645c:	4628      	mov	r0, r5
 800645e:	f000 f8c5 	bl	80065ec <__swsetup_r>
 8006462:	b380      	cbz	r0, 80064c6 <_puts_r+0x9a>
 8006464:	f04f 35ff 	mov.w	r5, #4294967295	@ 0xffffffff
 8006468:	6e63      	ldr	r3, [r4, #100]	@ 0x64
 800646a:	07da      	lsls	r2, r3, #31
 800646c:	d405      	bmi.n	800647a <_puts_r+0x4e>
 800646e:	89a3      	ldrh	r3, [r4, #12]
 8006470:	059b      	lsls	r3, r3, #22
 8006472:	d402      	bmi.n	800647a <_puts_r+0x4e>
 8006474:	6da0      	ldr	r0, [r4, #88]	@ 0x58
 8006476:	f000 f989 	bl	800678c <__retarget_lock_release_recursive>
 800647a:	4628      	mov	r0, r5
 800647c:	bd70      	pop	{r4, r5, r6, pc}
 800647e:	2b00      	cmp	r3, #0
 8006480:	da04      	bge.n	800648c <_puts_r+0x60>
 8006482:	69a2      	ldr	r2, [r4, #24]
 8006484:	429a      	cmp	r2, r3
 8006486:	dc17      	bgt.n	80064b8 <_puts_r+0x8c>
 8006488:	290a      	cmp	r1, #10
 800648a:	d015      	beq.n	80064b8 <_puts_r+0x8c>
 800648c:	6823      	ldr	r3, [r4, #0]
 800648e:	1c5a      	adds	r2, r3, #1
 8006490:	6022      	str	r2, [r4, #0]
 8006492:	7019      	strb	r1, [r3, #0]
 8006494:	68a3      	ldr	r3, [r4, #8]
 8006496:	f816 1f01 	ldrb.w	r1, [r6, #1]!
 800649a:	3b01      	subs	r3, #1
 800649c:	60a3      	str	r3, [r4, #8]
 800649e:	2900      	cmp	r1, #0
 80064a0:	d1ed      	bne.n	800647e <_puts_r+0x52>
 80064a2:	2b00      	cmp	r3, #0
 80064a4:	da11      	bge.n	80064ca <_puts_r+0x9e>
 80064a6:	4622      	mov	r2, r4
 80064a8:	210a      	movs	r1, #10
 80064aa:	4628      	mov	r0, r5
 80064ac:	f000 f85f 	bl	800656e <__swbuf_r>
 80064b0:	3001      	adds	r0, #1
 80064b2:	d0d7      	beq.n	8006464 <_puts_r+0x38>
 80064b4:	250a      	movs	r5, #10
 80064b6:	e7d7      	b.n	8006468 <_puts_r+0x3c>
 80064b8:	4622      	mov	r2, r4
 80064ba:	4628      	mov	r0, r5
 80064bc:	f000 f857 	bl	800656e <__swbuf_r>
 80064c0:	3001      	adds	r0, #1
 80064c2:	d1e7      	bne.n	8006494 <_puts_r+0x68>
 80064c4:	e7ce      	b.n	8006464 <_puts_r+0x38>
 80064c6:	3e01      	subs	r6, #1
 80064c8:	e7e4      	b.n	8006494 <_puts_r+0x68>
 80064ca:	6823      	ldr	r3, [r4, #0]
 80064cc:	1c5a      	adds	r2, r3, #1
 80064ce:	6022      	str	r2, [r4, #0]
 80064d0:	220a      	movs	r2, #10
 80064d2:	701a      	strb	r2, [r3, #0]
 80064d4:	e7ee      	b.n	80064b4 <_puts_r+0x88>
	...

080064d8 <puts>:
 80064d8:	4b02      	ldr	r3, [pc, #8]	@ (80064e4 <puts+0xc>)
 80064da:	4601      	mov	r1, r0
 80064dc:	6818      	ldr	r0, [r3, #0]
 80064de:	f7ff bfa5 	b.w	800642c <_puts_r>
 80064e2:	bf00      	nop
 80064e4:	20000018 	.word	0x20000018

080064e8 <__sread>:
 80064e8:	b510      	push	{r4, lr}
 80064ea:	460c      	mov	r4, r1
 80064ec:	f9b1 100e 	ldrsh.w	r1, [r1, #14]
 80064f0:	f000 f8fc 	bl	80066ec <_read_r>
 80064f4:	2800      	cmp	r0, #0
 80064f6:	bfab      	itete	ge
 80064f8:	6d63      	ldrge	r3, [r4, #84]	@ 0x54
 80064fa:	89a3      	ldrhlt	r3, [r4, #12]
 80064fc:	181b      	addge	r3, r3, r0
 80064fe:	f423 5380 	biclt.w	r3, r3, #4096	@ 0x1000
 8006502:	bfac      	ite	ge
 8006504:	6563      	strge	r3, [r4, #84]	@ 0x54
 8006506:	81a3      	strhlt	r3, [r4, #12]
 8006508:	bd10      	pop	{r4, pc}

0800650a <__swrite>:
 800650a:	e92d 41f0 	stmdb	sp!, {r4, r5, r6, r7, r8, lr}
 800650e:	461f      	mov	r7, r3
 8006510:	898b      	ldrh	r3, [r1, #12]
 8006512:	05db      	lsls	r3, r3, #23
 8006514:	4605      	mov	r5, r0
 8006516:	460c      	mov	r4, r1
 8006518:	4616      	mov	r6, r2
 800651a:	d505      	bpl.n	8006528 <__swrite+0x1e>
 800651c:	f9b1 100e 	ldrsh.w	r1, [r1, #14]
 8006520:	2302      	movs	r3, #2
 8006522:	2200      	movs	r2, #0
 8006524:	f000 f8d0 	bl	80066c8 <_lseek_r>
 8006528:	89a3      	ldrh	r3, [r4, #12]
 800652a:	f9b4 100e 	ldrsh.w	r1, [r4, #14]
 800652e:	f423 5380 	bic.w	r3, r3, #4096	@ 0x1000
 8006532:	81a3      	strh	r3, [r4, #12]
 8006534:	4632      	mov	r2, r6
 8006536:	463b      	mov	r3, r7
 8006538:	4628      	mov	r0, r5
 800653a:	e8bd 41f0 	ldmia.w	sp!, {r4, r5, r6, r7, r8, lr}
 800653e:	f000 b8e7 	b.w	8006710 <_write_r>

08006542 <__sseek>:
 8006542:	b510      	push	{r4, lr}
 8006544:	460c      	mov	r4, r1
 8006546:	f9b1 100e 	ldrsh.w	r1, [r1, #14]
 800654a:	f000 f8bd 	bl	80066c8 <_lseek_r>
 800654e:	1c43      	adds	r3, r0, #1
 8006550:	89a3      	ldrh	r3, [r4, #12]
 8006552:	bf15      	itete	ne
 8006554:	6560      	strne	r0, [r4, #84]	@ 0x54
 8006556:	f423 5380 	biceq.w	r3, r3, #4096	@ 0x1000
 800655a:	f443 5380 	orrne.w	r3, r3, #4096	@ 0x1000
 800655e:	81a3      	strheq	r3, [r4, #12]
 8006560:	bf18      	it	ne
 8006562:	81a3      	strhne	r3, [r4, #12]
 8006564:	bd10      	pop	{r4, pc}

08006566 <__sclose>:
 8006566:	f9b1 100e 	ldrsh.w	r1, [r1, #14]
 800656a:	f000 b89d 	b.w	80066a8 <_close_r>

0800656e <__swbuf_r>:
 800656e:	b5f8      	push	{r3, r4, r5, r6, r7, lr}
 8006570:	460e      	mov	r6, r1
 8006572:	4614      	mov	r4, r2
 8006574:	4605      	mov	r5, r0
 8006576:	b118      	cbz	r0, 8006580 <__swbuf_r+0x12>
 8006578:	6a03      	ldr	r3, [r0, #32]
 800657a:	b90b      	cbnz	r3, 8006580 <__swbuf_r+0x12>
 800657c:	f7ff ff0e 	bl	800639c <__sinit>
 8006580:	69a3      	ldr	r3, [r4, #24]
 8006582:	60a3      	str	r3, [r4, #8]
 8006584:	89a3      	ldrh	r3, [r4, #12]
 8006586:	071a      	lsls	r2, r3, #28
 8006588:	d501      	bpl.n	800658e <__swbuf_r+0x20>
 800658a:	6923      	ldr	r3, [r4, #16]
 800658c:	b943      	cbnz	r3, 80065a0 <__swbuf_r+0x32>
 800658e:	4621      	mov	r1, r4
 8006590:	4628      	mov	r0, r5
 8006592:	f000 f82b 	bl	80065ec <__swsetup_r>
 8006596:	b118      	cbz	r0, 80065a0 <__swbuf_r+0x32>
 8006598:	f04f 37ff 	mov.w	r7, #4294967295	@ 0xffffffff
 800659c:	4638      	mov	r0, r7
 800659e:	bdf8      	pop	{r3, r4, r5, r6, r7, pc}
 80065a0:	6823      	ldr	r3, [r4, #0]
 80065a2:	6922      	ldr	r2, [r4, #16]
 80065a4:	1a98      	subs	r0, r3, r2
 80065a6:	6963      	ldr	r3, [r4, #20]
 80065a8:	b2f6      	uxtb	r6, r6
 80065aa:	4283      	cmp	r3, r0
 80065ac:	4637      	mov	r7, r6
 80065ae:	dc05      	bgt.n	80065bc <__swbuf_r+0x4e>
 80065b0:	4621      	mov	r1, r4
 80065b2:	4628      	mov	r0, r5
 80065b4:	f000 fd32 	bl	800701c <_fflush_r>
 80065b8:	2800      	cmp	r0, #0
 80065ba:	d1ed      	bne.n	8006598 <__swbuf_r+0x2a>
 80065bc:	68a3      	ldr	r3, [r4, #8]
 80065be:	3b01      	subs	r3, #1
 80065c0:	60a3      	str	r3, [r4, #8]
 80065c2:	6823      	ldr	r3, [r4, #0]
 80065c4:	1c5a      	adds	r2, r3, #1
 80065c6:	6022      	str	r2, [r4, #0]
 80065c8:	701e      	strb	r6, [r3, #0]
 80065ca:	6962      	ldr	r2, [r4, #20]
 80065cc:	1c43      	adds	r3, r0, #1
 80065ce:	429a      	cmp	r2, r3
 80065d0:	d004      	beq.n	80065dc <__swbuf_r+0x6e>
 80065d2:	89a3      	ldrh	r3, [r4, #12]
 80065d4:	07db      	lsls	r3, r3, #31
 80065d6:	d5e1      	bpl.n	800659c <__swbuf_r+0x2e>
 80065d8:	2e0a      	cmp	r6, #10
 80065da:	d1df      	bne.n	800659c <__swbuf_r+0x2e>
 80065dc:	4621      	mov	r1, r4
 80065de:	4628      	mov	r0, r5
 80065e0:	f000 fd1c 	bl	800701c <_fflush_r>
 80065e4:	2800      	cmp	r0, #0
 80065e6:	d0d9      	beq.n	800659c <__swbuf_r+0x2e>
 80065e8:	e7d6      	b.n	8006598 <__swbuf_r+0x2a>
	...

080065ec <__swsetup_r>:
 80065ec:	b538      	push	{r3, r4, r5, lr}
 80065ee:	4b29      	ldr	r3, [pc, #164]	@ (8006694 <__swsetup_r+0xa8>)
 80065f0:	4605      	mov	r5, r0
 80065f2:	6818      	ldr	r0, [r3, #0]
 80065f4:	460c      	mov	r4, r1
 80065f6:	b118      	cbz	r0, 8006600 <__swsetup_r+0x14>
 80065f8:	6a03      	ldr	r3, [r0, #32]
 80065fa:	b90b      	cbnz	r3, 8006600 <__swsetup_r+0x14>
 80065fc:	f7ff fece 	bl	800639c <__sinit>
 8006600:	f9b4 300c 	ldrsh.w	r3, [r4, #12]
 8006604:	0719      	lsls	r1, r3, #28
 8006606:	d422      	bmi.n	800664e <__swsetup_r+0x62>
 8006608:	06da      	lsls	r2, r3, #27
 800660a:	d407      	bmi.n	800661c <__swsetup_r+0x30>
 800660c:	2209      	movs	r2, #9
 800660e:	602a      	str	r2, [r5, #0]
 8006610:	f043 0340 	orr.w	r3, r3, #64	@ 0x40
 8006614:	81a3      	strh	r3, [r4, #12]
 8006616:	f04f 30ff 	mov.w	r0, #4294967295	@ 0xffffffff
 800661a:	e033      	b.n	8006684 <__swsetup_r+0x98>
 800661c:	0758      	lsls	r0, r3, #29
 800661e:	d512      	bpl.n	8006646 <__swsetup_r+0x5a>
 8006620:	6b61      	ldr	r1, [r4, #52]	@ 0x34
 8006622:	b141      	cbz	r1, 8006636 <__swsetup_r+0x4a>
 8006624:	f104 0344 	add.w	r3, r4, #68	@ 0x44
 8006628:	4299      	cmp	r1, r3
 800662a:	d002      	beq.n	8006632 <__swsetup_r+0x46>
 800662c:	4628      	mov	r0, r5
 800662e:	f000 f8af 	bl	8006790 <_free_r>
 8006632:	2300      	movs	r3, #0
 8006634:	6363      	str	r3, [r4, #52]	@ 0x34
 8006636:	89a3      	ldrh	r3, [r4, #12]
 8006638:	f023 0324 	bic.w	r3, r3, #36	@ 0x24
 800663c:	81a3      	strh	r3, [r4, #12]
 800663e:	2300      	movs	r3, #0
 8006640:	6063      	str	r3, [r4, #4]
 8006642:	6923      	ldr	r3, [r4, #16]
 8006644:	6023      	str	r3, [r4, #0]
 8006646:	89a3      	ldrh	r3, [r4, #12]
 8006648:	f043 0308 	orr.w	r3, r3, #8
 800664c:	81a3      	strh	r3, [r4, #12]
 800664e:	6923      	ldr	r3, [r4, #16]
 8006650:	b94b      	cbnz	r3, 8006666 <__swsetup_r+0x7a>
 8006652:	89a3      	ldrh	r3, [r4, #12]
 8006654:	f403 7320 	and.w	r3, r3, #640	@ 0x280
 8006658:	f5b3 7f00 	cmp.w	r3, #512	@ 0x200
 800665c:	d003      	beq.n	8006666 <__swsetup_r+0x7a>
 800665e:	4621      	mov	r1, r4
 8006660:	4628      	mov	r0, r5
 8006662:	f000 fd29 	bl	80070b8 <__smakebuf_r>
 8006666:	f9b4 300c 	ldrsh.w	r3, [r4, #12]
 800666a:	f013 0201 	ands.w	r2, r3, #1
 800666e:	d00a      	beq.n	8006686 <__swsetup_r+0x9a>
 8006670:	2200      	movs	r2, #0
 8006672:	60a2      	str	r2, [r4, #8]
 8006674:	6962      	ldr	r2, [r4, #20]
 8006676:	4252      	negs	r2, r2
 8006678:	61a2      	str	r2, [r4, #24]
 800667a:	6922      	ldr	r2, [r4, #16]
 800667c:	b942      	cbnz	r2, 8006690 <__swsetup_r+0xa4>
 800667e:	f013 0080 	ands.w	r0, r3, #128	@ 0x80
 8006682:	d1c5      	bne.n	8006610 <__swsetup_r+0x24>
 8006684:	bd38      	pop	{r3, r4, r5, pc}
 8006686:	0799      	lsls	r1, r3, #30
 8006688:	bf58      	it	pl
 800668a:	6962      	ldrpl	r2, [r4, #20]
 800668c:	60a2      	str	r2, [r4, #8]
 800668e:	e7f4      	b.n	800667a <__swsetup_r+0x8e>
 8006690:	2000      	movs	r0, #0
 8006692:	e7f7      	b.n	8006684 <__swsetup_r+0x98>
 8006694:	20000018 	.word	0x20000018

08006698 <memset>:
 8006698:	4402      	add	r2, r0
 800669a:	4603      	mov	r3, r0
 800669c:	4293      	cmp	r3, r2
 800669e:	d100      	bne.n	80066a2 <memset+0xa>
 80066a0:	4770      	bx	lr
 80066a2:	f803 1b01 	strb.w	r1, [r3], #1
 80066a6:	e7f9      	b.n	800669c <memset+0x4>

080066a8 <_close_r>:
 80066a8:	b538      	push	{r3, r4, r5, lr}
 80066aa:	4d06      	ldr	r5, [pc, #24]	@ (80066c4 <_close_r+0x1c>)
 80066ac:	2300      	movs	r3, #0
 80066ae:	4604      	mov	r4, r0
 80066b0:	4608      	mov	r0, r1
 80066b2:	602b      	str	r3, [r5, #0]
 80066b4:	f7fa f89b 	bl	80007ee <_close>
 80066b8:	1c43      	adds	r3, r0, #1
 80066ba:	d102      	bne.n	80066c2 <_close_r+0x1a>
 80066bc:	682b      	ldr	r3, [r5, #0]
 80066be:	b103      	cbz	r3, 80066c2 <_close_r+0x1a>
 80066c0:	6023      	str	r3, [r4, #0]
 80066c2:	bd38      	pop	{r3, r4, r5, pc}
 80066c4:	200003d4 	.word	0x200003d4

080066c8 <_lseek_r>:
 80066c8:	b538      	push	{r3, r4, r5, lr}
 80066ca:	4d07      	ldr	r5, [pc, #28]	@ (80066e8 <_lseek_r+0x20>)
 80066cc:	4604      	mov	r4, r0
 80066ce:	4608      	mov	r0, r1
 80066d0:	4611      	mov	r1, r2
 80066d2:	2200      	movs	r2, #0
 80066d4:	602a      	str	r2, [r5, #0]
 80066d6:	461a      	mov	r2, r3
 80066d8:	f7fa f8ad 	bl	8000836 <_lseek>
 80066dc:	1c43      	adds	r3, r0, #1
 80066de:	d102      	bne.n	80066e6 <_lseek_r+0x1e>
 80066e0:	682b      	ldr	r3, [r5, #0]
 80066e2:	b103      	cbz	r3, 80066e6 <_lseek_r+0x1e>
 80066e4:	6023      	str	r3, [r4, #0]
 80066e6:	bd38      	pop	{r3, r4, r5, pc}
 80066e8:	200003d4 	.word	0x200003d4

080066ec <_read_r>:
 80066ec:	b538      	push	{r3, r4, r5, lr}
 80066ee:	4d07      	ldr	r5, [pc, #28]	@ (800670c <_read_r+0x20>)
 80066f0:	4604      	mov	r4, r0
 80066f2:	4608      	mov	r0, r1
 80066f4:	4611      	mov	r1, r2
 80066f6:	2200      	movs	r2, #0
 80066f8:	602a      	str	r2, [r5, #0]
 80066fa:	461a      	mov	r2, r3
 80066fc:	f7fa f83e 	bl	800077c <_read>
 8006700:	1c43      	adds	r3, r0, #1
 8006702:	d102      	bne.n	800670a <_read_r+0x1e>
 8006704:	682b      	ldr	r3, [r5, #0]
 8006706:	b103      	cbz	r3, 800670a <_read_r+0x1e>
 8006708:	6023      	str	r3, [r4, #0]
 800670a:	bd38      	pop	{r3, r4, r5, pc}
 800670c:	200003d4 	.word	0x200003d4

08006710 <_write_r>:
 8006710:	b538      	push	{r3, r4, r5, lr}
 8006712:	4d07      	ldr	r5, [pc, #28]	@ (8006730 <_write_r+0x20>)
 8006714:	4604      	mov	r4, r0
 8006716:	4608      	mov	r0, r1
 8006718:	4611      	mov	r1, r2
 800671a:	2200      	movs	r2, #0
 800671c:	602a      	str	r2, [r5, #0]
 800671e:	461a      	mov	r2, r3
 8006720:	f7fa f849 	bl	80007b6 <_write>
 8006724:	1c43      	adds	r3, r0, #1
 8006726:	d102      	bne.n	800672e <_write_r+0x1e>
 8006728:	682b      	ldr	r3, [r5, #0]
 800672a:	b103      	cbz	r3, 800672e <_write_r+0x1e>
 800672c:	6023      	str	r3, [r4, #0]
 800672e:	bd38      	pop	{r3, r4, r5, pc}
 8006730:	200003d4 	.word	0x200003d4

08006734 <__errno>:
 8006734:	4b01      	ldr	r3, [pc, #4]	@ (800673c <__errno+0x8>)
 8006736:	6818      	ldr	r0, [r3, #0]
 8006738:	4770      	bx	lr
 800673a:	bf00      	nop
 800673c:	20000018 	.word	0x20000018

08006740 <__libc_init_array>:
 8006740:	b570      	push	{r4, r5, r6, lr}
 8006742:	4d0d      	ldr	r5, [pc, #52]	@ (8006778 <__libc_init_array+0x38>)
 8006744:	4c0d      	ldr	r4, [pc, #52]	@ (800677c <__libc_init_array+0x3c>)
 8006746:	1b64      	subs	r4, r4, r5
 8006748:	10a4      	asrs	r4, r4, #2
 800674a:	2600      	movs	r6, #0
 800674c:	42a6      	cmp	r6, r4
 800674e:	d109      	bne.n	8006764 <__libc_init_array+0x24>
 8006750:	4d0b      	ldr	r5, [pc, #44]	@ (8006780 <__libc_init_array+0x40>)
 8006752:	4c0c      	ldr	r4, [pc, #48]	@ (8006784 <__libc_init_array+0x44>)
 8006754:	f000 fd1e 	bl	8007194 <_init>
 8006758:	1b64      	subs	r4, r4, r5
 800675a:	10a4      	asrs	r4, r4, #2
 800675c:	2600      	movs	r6, #0
 800675e:	42a6      	cmp	r6, r4
 8006760:	d105      	bne.n	800676e <__libc_init_array+0x2e>
 8006762:	bd70      	pop	{r4, r5, r6, pc}
 8006764:	f855 3b04 	ldr.w	r3, [r5], #4
 8006768:	4798      	blx	r3
 800676a:	3601      	adds	r6, #1
 800676c:	e7ee      	b.n	800674c <__libc_init_array+0xc>
 800676e:	f855 3b04 	ldr.w	r3, [r5], #4
 8006772:	4798      	blx	r3
 8006774:	3601      	adds	r6, #1
 8006776:	e7f2      	b.n	800675e <__libc_init_array+0x1e>
 8006778:	08007444 	.word	0x08007444
 800677c:	08007444 	.word	0x08007444
 8006780:	08007444 	.word	0x08007444
 8006784:	08007448 	.word	0x08007448

08006788 <__retarget_lock_init_recursive>:
 8006788:	4770      	bx	lr

0800678a <__retarget_lock_acquire_recursive>:
 800678a:	4770      	bx	lr

0800678c <__retarget_lock_release_recursive>:
 800678c:	4770      	bx	lr
	...

08006790 <_free_r>:
 8006790:	b538      	push	{r3, r4, r5, lr}
 8006792:	4605      	mov	r5, r0
 8006794:	2900      	cmp	r1, #0
 8006796:	d041      	beq.n	800681c <_free_r+0x8c>
 8006798:	f851 3c04 	ldr.w	r3, [r1, #-4]
 800679c:	1f0c      	subs	r4, r1, #4
 800679e:	2b00      	cmp	r3, #0
 80067a0:	bfb8      	it	lt
 80067a2:	18e4      	addlt	r4, r4, r3
 80067a4:	f000 f8e0 	bl	8006968 <__malloc_lock>
 80067a8:	4a1d      	ldr	r2, [pc, #116]	@ (8006820 <_free_r+0x90>)
 80067aa:	6813      	ldr	r3, [r2, #0]
 80067ac:	b933      	cbnz	r3, 80067bc <_free_r+0x2c>
 80067ae:	6063      	str	r3, [r4, #4]
 80067b0:	6014      	str	r4, [r2, #0]
 80067b2:	4628      	mov	r0, r5
 80067b4:	e8bd 4038 	ldmia.w	sp!, {r3, r4, r5, lr}
 80067b8:	f000 b8dc 	b.w	8006974 <__malloc_unlock>
 80067bc:	42a3      	cmp	r3, r4
 80067be:	d908      	bls.n	80067d2 <_free_r+0x42>
 80067c0:	6820      	ldr	r0, [r4, #0]
 80067c2:	1821      	adds	r1, r4, r0
 80067c4:	428b      	cmp	r3, r1
 80067c6:	bf01      	itttt	eq
 80067c8:	6819      	ldreq	r1, [r3, #0]
 80067ca:	685b      	ldreq	r3, [r3, #4]
 80067cc:	1809      	addeq	r1, r1, r0
 80067ce:	6021      	streq	r1, [r4, #0]
 80067d0:	e7ed      	b.n	80067ae <_free_r+0x1e>
 80067d2:	461a      	mov	r2, r3
 80067d4:	685b      	ldr	r3, [r3, #4]
 80067d6:	b10b      	cbz	r3, 80067dc <_free_r+0x4c>
 80067d8:	42a3      	cmp	r3, r4
 80067da:	d9fa      	bls.n	80067d2 <_free_r+0x42>
 80067dc:	6811      	ldr	r1, [r2, #0]
 80067de:	1850      	adds	r0, r2, r1
 80067e0:	42a0      	cmp	r0, r4
 80067e2:	d10b      	bne.n	80067fc <_free_r+0x6c>
 80067e4:	6820      	ldr	r0, [r4, #0]
 80067e6:	4401      	add	r1, r0
 80067e8:	1850      	adds	r0, r2, r1
 80067ea:	4283      	cmp	r3, r0
 80067ec:	6011      	str	r1, [r2, #0]
 80067ee:	d1e0      	bne.n	80067b2 <_free_r+0x22>
 80067f0:	6818      	ldr	r0, [r3, #0]
 80067f2:	685b      	ldr	r3, [r3, #4]
 80067f4:	6053      	str	r3, [r2, #4]
 80067f6:	4408      	add	r0, r1
 80067f8:	6010      	str	r0, [r2, #0]
 80067fa:	e7da      	b.n	80067b2 <_free_r+0x22>
 80067fc:	d902      	bls.n	8006804 <_free_r+0x74>
 80067fe:	230c      	movs	r3, #12
 8006800:	602b      	str	r3, [r5, #0]
 8006802:	e7d6      	b.n	80067b2 <_free_r+0x22>
 8006804:	6820      	ldr	r0, [r4, #0]
 8006806:	1821      	adds	r1, r4, r0
 8006808:	428b      	cmp	r3, r1
 800680a:	bf04      	itt	eq
 800680c:	6819      	ldreq	r1, [r3, #0]
 800680e:	685b      	ldreq	r3, [r3, #4]
 8006810:	6063      	str	r3, [r4, #4]
 8006812:	bf04      	itt	eq
 8006814:	1809      	addeq	r1, r1, r0
 8006816:	6021      	streq	r1, [r4, #0]
 8006818:	6054      	str	r4, [r2, #4]
 800681a:	e7ca      	b.n	80067b2 <_free_r+0x22>
 800681c:	bd38      	pop	{r3, r4, r5, pc}
 800681e:	bf00      	nop
 8006820:	200003e0 	.word	0x200003e0

08006824 <sbrk_aligned>:
 8006824:	b570      	push	{r4, r5, r6, lr}
 8006826:	4e0f      	ldr	r6, [pc, #60]	@ (8006864 <sbrk_aligned+0x40>)
 8006828:	460c      	mov	r4, r1
 800682a:	6831      	ldr	r1, [r6, #0]
 800682c:	4605      	mov	r5, r0
 800682e:	b911      	cbnz	r1, 8006836 <sbrk_aligned+0x12>
 8006830:	f000 fca0 	bl	8007174 <_sbrk_r>
 8006834:	6030      	str	r0, [r6, #0]
 8006836:	4621      	mov	r1, r4
 8006838:	4628      	mov	r0, r5
 800683a:	f000 fc9b 	bl	8007174 <_sbrk_r>
 800683e:	1c43      	adds	r3, r0, #1
 8006840:	d103      	bne.n	800684a <sbrk_aligned+0x26>
 8006842:	f04f 34ff 	mov.w	r4, #4294967295	@ 0xffffffff
 8006846:	4620      	mov	r0, r4
 8006848:	bd70      	pop	{r4, r5, r6, pc}
 800684a:	1cc4      	adds	r4, r0, #3
 800684c:	f024 0403 	bic.w	r4, r4, #3
 8006850:	42a0      	cmp	r0, r4
 8006852:	d0f8      	beq.n	8006846 <sbrk_aligned+0x22>
 8006854:	1a21      	subs	r1, r4, r0
 8006856:	4628      	mov	r0, r5
 8006858:	f000 fc8c 	bl	8007174 <_sbrk_r>
 800685c:	3001      	adds	r0, #1
 800685e:	d1f2      	bne.n	8006846 <sbrk_aligned+0x22>
 8006860:	e7ef      	b.n	8006842 <sbrk_aligned+0x1e>
 8006862:	bf00      	nop
 8006864:	200003dc 	.word	0x200003dc

08006868 <_malloc_r>:
 8006868:	e92d 43f8 	stmdb	sp!, {r3, r4, r5, r6, r7, r8, r9, lr}
 800686c:	1ccd      	adds	r5, r1, #3
 800686e:	f025 0503 	bic.w	r5, r5, #3
 8006872:	3508      	adds	r5, #8
 8006874:	2d0c      	cmp	r5, #12
 8006876:	bf38      	it	cc
 8006878:	250c      	movcc	r5, #12
 800687a:	2d00      	cmp	r5, #0
 800687c:	4606      	mov	r6, r0
 800687e:	db01      	blt.n	8006884 <_malloc_r+0x1c>
 8006880:	42a9      	cmp	r1, r5
 8006882:	d904      	bls.n	800688e <_malloc_r+0x26>
 8006884:	230c      	movs	r3, #12
 8006886:	6033      	str	r3, [r6, #0]
 8006888:	2000      	movs	r0, #0
 800688a:	e8bd 83f8 	ldmia.w	sp!, {r3, r4, r5, r6, r7, r8, r9, pc}
 800688e:	f8df 80d4 	ldr.w	r8, [pc, #212]	@ 8006964 <_malloc_r+0xfc>
 8006892:	f000 f869 	bl	8006968 <__malloc_lock>
 8006896:	f8d8 3000 	ldr.w	r3, [r8]
 800689a:	461c      	mov	r4, r3
 800689c:	bb44      	cbnz	r4, 80068f0 <_malloc_r+0x88>
 800689e:	4629      	mov	r1, r5
 80068a0:	4630      	mov	r0, r6
 80068a2:	f7ff ffbf 	bl	8006824 <sbrk_aligned>
 80068a6:	1c43      	adds	r3, r0, #1
 80068a8:	4604      	mov	r4, r0
 80068aa:	d158      	bne.n	800695e <_malloc_r+0xf6>
 80068ac:	f8d8 4000 	ldr.w	r4, [r8]
 80068b0:	4627      	mov	r7, r4
 80068b2:	2f00      	cmp	r7, #0
 80068b4:	d143      	bne.n	800693e <_malloc_r+0xd6>
 80068b6:	2c00      	cmp	r4, #0
 80068b8:	d04b      	beq.n	8006952 <_malloc_r+0xea>
 80068ba:	6823      	ldr	r3, [r4, #0]
 80068bc:	4639      	mov	r1, r7
 80068be:	4630      	mov	r0, r6
 80068c0:	eb04 0903 	add.w	r9, r4, r3
 80068c4:	f000 fc56 	bl	8007174 <_sbrk_r>
 80068c8:	4581      	cmp	r9, r0
 80068ca:	d142      	bne.n	8006952 <_malloc_r+0xea>
 80068cc:	6821      	ldr	r1, [r4, #0]
 80068ce:	1a6d      	subs	r5, r5, r1
 80068d0:	4629      	mov	r1, r5
 80068d2:	4630      	mov	r0, r6
 80068d4:	f7ff ffa6 	bl	8006824 <sbrk_aligned>
 80068d8:	3001      	adds	r0, #1
 80068da:	d03a      	beq.n	8006952 <_malloc_r+0xea>
 80068dc:	6823      	ldr	r3, [r4, #0]
 80068de:	442b      	add	r3, r5
 80068e0:	6023      	str	r3, [r4, #0]
 80068e2:	f8d8 3000 	ldr.w	r3, [r8]
 80068e6:	685a      	ldr	r2, [r3, #4]
 80068e8:	bb62      	cbnz	r2, 8006944 <_malloc_r+0xdc>
 80068ea:	f8c8 7000 	str.w	r7, [r8]
 80068ee:	e00f      	b.n	8006910 <_malloc_r+0xa8>
 80068f0:	6822      	ldr	r2, [r4, #0]
 80068f2:	1b52      	subs	r2, r2, r5
 80068f4:	d420      	bmi.n	8006938 <_malloc_r+0xd0>
 80068f6:	2a0b      	cmp	r2, #11
 80068f8:	d917      	bls.n	800692a <_malloc_r+0xc2>
 80068fa:	1961      	adds	r1, r4, r5
 80068fc:	42a3      	cmp	r3, r4
 80068fe:	6025      	str	r5, [r4, #0]
 8006900:	bf18      	it	ne
 8006902:	6059      	strne	r1, [r3, #4]
 8006904:	6863      	ldr	r3, [r4, #4]
 8006906:	bf08      	it	eq
 8006908:	f8c8 1000 	streq.w	r1, [r8]
 800690c:	5162      	str	r2, [r4, r5]
 800690e:	604b      	str	r3, [r1, #4]
 8006910:	4630      	mov	r0, r6
 8006912:	f000 f82f 	bl	8006974 <__malloc_unlock>
 8006916:	f104 000b 	add.w	r0, r4, #11
 800691a:	1d23      	adds	r3, r4, #4
 800691c:	f020 0007 	bic.w	r0, r0, #7
 8006920:	1ac2      	subs	r2, r0, r3
 8006922:	bf1c      	itt	ne
 8006924:	1a1b      	subne	r3, r3, r0
 8006926:	50a3      	strne	r3, [r4, r2]
 8006928:	e7af      	b.n	800688a <_malloc_r+0x22>
 800692a:	6862      	ldr	r2, [r4, #4]
 800692c:	42a3      	cmp	r3, r4
 800692e:	bf0c      	ite	eq
 8006930:	f8c8 2000 	streq.w	r2, [r8]
 8006934:	605a      	strne	r2, [r3, #4]
 8006936:	e7eb      	b.n	8006910 <_malloc_r+0xa8>
 8006938:	4623      	mov	r3, r4
 800693a:	6864      	ldr	r4, [r4, #4]
 800693c:	e7ae      	b.n	800689c <_malloc_r+0x34>
 800693e:	463c      	mov	r4, r7
 8006940:	687f      	ldr	r7, [r7, #4]
 8006942:	e7b6      	b.n	80068b2 <_malloc_r+0x4a>
 8006944:	461a      	mov	r2, r3
 8006946:	685b      	ldr	r3, [r3, #4]
 8006948:	42a3      	cmp	r3, r4
 800694a:	d1fb      	bne.n	8006944 <_malloc_r+0xdc>
 800694c:	2300      	movs	r3, #0
 800694e:	6053      	str	r3, [r2, #4]
 8006950:	e7de      	b.n	8006910 <_malloc_r+0xa8>
 8006952:	230c      	movs	r3, #12
 8006954:	6033      	str	r3, [r6, #0]
 8006956:	4630      	mov	r0, r6
 8006958:	f000 f80c 	bl	8006974 <__malloc_unlock>
 800695c:	e794      	b.n	8006888 <_malloc_r+0x20>
 800695e:	6005      	str	r5, [r0, #0]
 8006960:	e7d6      	b.n	8006910 <_malloc_r+0xa8>
 8006962:	bf00      	nop
 8006964:	200003e0 	.word	0x200003e0

08006968 <__malloc_lock>:
 8006968:	4801      	ldr	r0, [pc, #4]	@ (8006970 <__malloc_lock+0x8>)
 800696a:	f7ff bf0e 	b.w	800678a <__retarget_lock_acquire_recursive>
 800696e:	bf00      	nop
 8006970:	200003d8 	.word	0x200003d8

08006974 <__malloc_unlock>:
 8006974:	4801      	ldr	r0, [pc, #4]	@ (800697c <__malloc_unlock+0x8>)
 8006976:	f7ff bf09 	b.w	800678c <__retarget_lock_release_recursive>
 800697a:	bf00      	nop
 800697c:	200003d8 	.word	0x200003d8

08006980 <__sfputc_r>:
 8006980:	6893      	ldr	r3, [r2, #8]
 8006982:	3b01      	subs	r3, #1
 8006984:	2b00      	cmp	r3, #0
 8006986:	b410      	push	{r4}
 8006988:	6093      	str	r3, [r2, #8]
 800698a:	da07      	bge.n	800699c <__sfputc_r+0x1c>
 800698c:	6994      	ldr	r4, [r2, #24]
 800698e:	42a3      	cmp	r3, r4
 8006990:	db01      	blt.n	8006996 <__sfputc_r+0x16>
 8006992:	290a      	cmp	r1, #10
 8006994:	d102      	bne.n	800699c <__sfputc_r+0x1c>
 8006996:	bc10      	pop	{r4}
 8006998:	f7ff bde9 	b.w	800656e <__swbuf_r>
 800699c:	6813      	ldr	r3, [r2, #0]
 800699e:	1c58      	adds	r0, r3, #1
 80069a0:	6010      	str	r0, [r2, #0]
 80069a2:	7019      	strb	r1, [r3, #0]
 80069a4:	4608      	mov	r0, r1
 80069a6:	bc10      	pop	{r4}
 80069a8:	4770      	bx	lr

080069aa <__sfputs_r>:
 80069aa:	b5f8      	push	{r3, r4, r5, r6, r7, lr}
 80069ac:	4606      	mov	r6, r0
 80069ae:	460f      	mov	r7, r1
 80069b0:	4614      	mov	r4, r2
 80069b2:	18d5      	adds	r5, r2, r3
 80069b4:	42ac      	cmp	r4, r5
 80069b6:	d101      	bne.n	80069bc <__sfputs_r+0x12>
 80069b8:	2000      	movs	r0, #0
 80069ba:	e007      	b.n	80069cc <__sfputs_r+0x22>
 80069bc:	f814 1b01 	ldrb.w	r1, [r4], #1
 80069c0:	463a      	mov	r2, r7
 80069c2:	4630      	mov	r0, r6
 80069c4:	f7ff ffdc 	bl	8006980 <__sfputc_r>
 80069c8:	1c43      	adds	r3, r0, #1
 80069ca:	d1f3      	bne.n	80069b4 <__sfputs_r+0xa>
 80069cc:	bdf8      	pop	{r3, r4, r5, r6, r7, pc}
	...

080069d0 <_vfiprintf_r>:
 80069d0:	e92d 4ff0 	stmdb	sp!, {r4, r5, r6, r7, r8, r9, sl, fp, lr}
 80069d4:	460d      	mov	r5, r1
 80069d6:	b09d      	sub	sp, #116	@ 0x74
 80069d8:	4614      	mov	r4, r2
 80069da:	4698      	mov	r8, r3
 80069dc:	4606      	mov	r6, r0
 80069de:	b118      	cbz	r0, 80069e8 <_vfiprintf_r+0x18>
 80069e0:	6a03      	ldr	r3, [r0, #32]
 80069e2:	b90b      	cbnz	r3, 80069e8 <_vfiprintf_r+0x18>
 80069e4:	f7ff fcda 	bl	800639c <__sinit>
 80069e8:	6e6b      	ldr	r3, [r5, #100]	@ 0x64
 80069ea:	07d9      	lsls	r1, r3, #31
 80069ec:	d405      	bmi.n	80069fa <_vfiprintf_r+0x2a>
 80069ee:	89ab      	ldrh	r3, [r5, #12]
 80069f0:	059a      	lsls	r2, r3, #22
 80069f2:	d402      	bmi.n	80069fa <_vfiprintf_r+0x2a>
 80069f4:	6da8      	ldr	r0, [r5, #88]	@ 0x58
 80069f6:	f7ff fec8 	bl	800678a <__retarget_lock_acquire_recursive>
 80069fa:	89ab      	ldrh	r3, [r5, #12]
 80069fc:	071b      	lsls	r3, r3, #28
 80069fe:	d501      	bpl.n	8006a04 <_vfiprintf_r+0x34>
 8006a00:	692b      	ldr	r3, [r5, #16]
 8006a02:	b99b      	cbnz	r3, 8006a2c <_vfiprintf_r+0x5c>
 8006a04:	4629      	mov	r1, r5
 8006a06:	4630      	mov	r0, r6
 8006a08:	f7ff fdf0 	bl	80065ec <__swsetup_r>
 8006a0c:	b170      	cbz	r0, 8006a2c <_vfiprintf_r+0x5c>
 8006a0e:	6e6b      	ldr	r3, [r5, #100]	@ 0x64
 8006a10:	07dc      	lsls	r4, r3, #31
 8006a12:	d504      	bpl.n	8006a1e <_vfiprintf_r+0x4e>
 8006a14:	f04f 30ff 	mov.w	r0, #4294967295	@ 0xffffffff
 8006a18:	b01d      	add	sp, #116	@ 0x74
 8006a1a:	e8bd 8ff0 	ldmia.w	sp!, {r4, r5, r6, r7, r8, r9, sl, fp, pc}
 8006a1e:	89ab      	ldrh	r3, [r5, #12]
 8006a20:	0598      	lsls	r0, r3, #22
 8006a22:	d4f7      	bmi.n	8006a14 <_vfiprintf_r+0x44>
 8006a24:	6da8      	ldr	r0, [r5, #88]	@ 0x58
 8006a26:	f7ff feb1 	bl	800678c <__retarget_lock_release_recursive>
 8006a2a:	e7f3      	b.n	8006a14 <_vfiprintf_r+0x44>
 8006a2c:	2300      	movs	r3, #0
 8006a2e:	9309      	str	r3, [sp, #36]	@ 0x24
 8006a30:	2320      	movs	r3, #32
 8006a32:	f88d 3029 	strb.w	r3, [sp, #41]	@ 0x29
 8006a36:	f8cd 800c 	str.w	r8, [sp, #12]
 8006a3a:	2330      	movs	r3, #48	@ 0x30
 8006a3c:	f8df 81ac 	ldr.w	r8, [pc, #428]	@ 8006bec <_vfiprintf_r+0x21c>
 8006a40:	f88d 302a 	strb.w	r3, [sp, #42]	@ 0x2a
 8006a44:	f04f 0901 	mov.w	r9, #1
 8006a48:	4623      	mov	r3, r4
 8006a4a:	469a      	mov	sl, r3
 8006a4c:	f813 2b01 	ldrb.w	r2, [r3], #1
 8006a50:	b10a      	cbz	r2, 8006a56 <_vfiprintf_r+0x86>
 8006a52:	2a25      	cmp	r2, #37	@ 0x25
 8006a54:	d1f9      	bne.n	8006a4a <_vfiprintf_r+0x7a>
 8006a56:	ebba 0b04 	subs.w	fp, sl, r4
 8006a5a:	d00b      	beq.n	8006a74 <_vfiprintf_r+0xa4>
 8006a5c:	465b      	mov	r3, fp
 8006a5e:	4622      	mov	r2, r4
 8006a60:	4629      	mov	r1, r5
 8006a62:	4630      	mov	r0, r6
 8006a64:	f7ff ffa1 	bl	80069aa <__sfputs_r>
 8006a68:	3001      	adds	r0, #1
 8006a6a:	f000 80a7 	beq.w	8006bbc <_vfiprintf_r+0x1ec>
 8006a6e:	9a09      	ldr	r2, [sp, #36]	@ 0x24
 8006a70:	445a      	add	r2, fp
 8006a72:	9209      	str	r2, [sp, #36]	@ 0x24
 8006a74:	f89a 3000 	ldrb.w	r3, [sl]
 8006a78:	2b00      	cmp	r3, #0
 8006a7a:	f000 809f 	beq.w	8006bbc <_vfiprintf_r+0x1ec>
 8006a7e:	2300      	movs	r3, #0
 8006a80:	f04f 32ff 	mov.w	r2, #4294967295	@ 0xffffffff
 8006a84:	e9cd 2305 	strd	r2, r3, [sp, #20]
 8006a88:	f10a 0a01 	add.w	sl, sl, #1
 8006a8c:	9304      	str	r3, [sp, #16]
 8006a8e:	9307      	str	r3, [sp, #28]
 8006a90:	f88d 3053 	strb.w	r3, [sp, #83]	@ 0x53
 8006a94:	931a      	str	r3, [sp, #104]	@ 0x68
 8006a96:	4654      	mov	r4, sl
 8006a98:	2205      	movs	r2, #5
 8006a9a:	f814 1b01 	ldrb.w	r1, [r4], #1
 8006a9e:	4853      	ldr	r0, [pc, #332]	@ (8006bec <_vfiprintf_r+0x21c>)
 8006aa0:	f7f9 fb6e 	bl	8000180 <memchr>
 8006aa4:	9a04      	ldr	r2, [sp, #16]
 8006aa6:	b9d8      	cbnz	r0, 8006ae0 <_vfiprintf_r+0x110>
 8006aa8:	06d1      	lsls	r1, r2, #27
 8006aaa:	bf44      	itt	mi
 8006aac:	2320      	movmi	r3, #32
 8006aae:	f88d 3053 	strbmi.w	r3, [sp, #83]	@ 0x53
 8006ab2:	0713      	lsls	r3, r2, #28
 8006ab4:	bf44      	itt	mi
 8006ab6:	232b      	movmi	r3, #43	@ 0x2b
 8006ab8:	f88d 3053 	strbmi.w	r3, [sp, #83]	@ 0x53
 8006abc:	f89a 3000 	ldrb.w	r3, [sl]
 8006ac0:	2b2a      	cmp	r3, #42	@ 0x2a
 8006ac2:	d015      	beq.n	8006af0 <_vfiprintf_r+0x120>
 8006ac4:	9a07      	ldr	r2, [sp, #28]
 8006ac6:	4654      	mov	r4, sl
 8006ac8:	2000      	movs	r0, #0
 8006aca:	f04f 0c0a 	mov.w	ip, #10
 8006ace:	4621      	mov	r1, r4
 8006ad0:	f811 3b01 	ldrb.w	r3, [r1], #1
 8006ad4:	3b30      	subs	r3, #48	@ 0x30
 8006ad6:	2b09      	cmp	r3, #9
 8006ad8:	d94b      	bls.n	8006b72 <_vfiprintf_r+0x1a2>
 8006ada:	b1b0      	cbz	r0, 8006b0a <_vfiprintf_r+0x13a>
 8006adc:	9207      	str	r2, [sp, #28]
 8006ade:	e014      	b.n	8006b0a <_vfiprintf_r+0x13a>
 8006ae0:	eba0 0308 	sub.w	r3, r0, r8
 8006ae4:	fa09 f303 	lsl.w	r3, r9, r3
 8006ae8:	4313      	orrs	r3, r2
 8006aea:	9304      	str	r3, [sp, #16]
 8006aec:	46a2      	mov	sl, r4
 8006aee:	e7d2      	b.n	8006a96 <_vfiprintf_r+0xc6>
 8006af0:	9b03      	ldr	r3, [sp, #12]
 8006af2:	1d19      	adds	r1, r3, #4
 8006af4:	681b      	ldr	r3, [r3, #0]
 8006af6:	9103      	str	r1, [sp, #12]
 8006af8:	2b00      	cmp	r3, #0
 8006afa:	bfbb      	ittet	lt
 8006afc:	425b      	neglt	r3, r3
 8006afe:	f042 0202 	orrlt.w	r2, r2, #2
 8006b02:	9307      	strge	r3, [sp, #28]
 8006b04:	9307      	strlt	r3, [sp, #28]
 8006b06:	bfb8      	it	lt
 8006b08:	9204      	strlt	r2, [sp, #16]
 8006b0a:	7823      	ldrb	r3, [r4, #0]
 8006b0c:	2b2e      	cmp	r3, #46	@ 0x2e
 8006b0e:	d10a      	bne.n	8006b26 <_vfiprintf_r+0x156>
 8006b10:	7863      	ldrb	r3, [r4, #1]
 8006b12:	2b2a      	cmp	r3, #42	@ 0x2a
 8006b14:	d132      	bne.n	8006b7c <_vfiprintf_r+0x1ac>
 8006b16:	9b03      	ldr	r3, [sp, #12]
 8006b18:	1d1a      	adds	r2, r3, #4
 8006b1a:	681b      	ldr	r3, [r3, #0]
 8006b1c:	9203      	str	r2, [sp, #12]
 8006b1e:	ea43 73e3 	orr.w	r3, r3, r3, asr #31
 8006b22:	3402      	adds	r4, #2
 8006b24:	9305      	str	r3, [sp, #20]
 8006b26:	f8df a0c8 	ldr.w	sl, [pc, #200]	@ 8006bf0 <_vfiprintf_r+0x220>
 8006b2a:	7821      	ldrb	r1, [r4, #0]
 8006b2c:	2203      	movs	r2, #3
 8006b2e:	4650      	mov	r0, sl
 8006b30:	f7f9 fb26 	bl	8000180 <memchr>
 8006b34:	b138      	cbz	r0, 8006b46 <_vfiprintf_r+0x176>
 8006b36:	9b04      	ldr	r3, [sp, #16]
 8006b38:	eba0 000a 	sub.w	r0, r0, sl
 8006b3c:	2240      	movs	r2, #64	@ 0x40
 8006b3e:	4082      	lsls	r2, r0
 8006b40:	4313      	orrs	r3, r2
 8006b42:	3401      	adds	r4, #1
 8006b44:	9304      	str	r3, [sp, #16]
 8006b46:	f814 1b01 	ldrb.w	r1, [r4], #1
 8006b4a:	482a      	ldr	r0, [pc, #168]	@ (8006bf4 <_vfiprintf_r+0x224>)
 8006b4c:	f88d 1028 	strb.w	r1, [sp, #40]	@ 0x28
 8006b50:	2206      	movs	r2, #6
 8006b52:	f7f9 fb15 	bl	8000180 <memchr>
 8006b56:	2800      	cmp	r0, #0
 8006b58:	d03f      	beq.n	8006bda <_vfiprintf_r+0x20a>
 8006b5a:	4b27      	ldr	r3, [pc, #156]	@ (8006bf8 <_vfiprintf_r+0x228>)
 8006b5c:	bb1b      	cbnz	r3, 8006ba6 <_vfiprintf_r+0x1d6>
 8006b5e:	9b03      	ldr	r3, [sp, #12]
 8006b60:	3307      	adds	r3, #7
 8006b62:	f023 0307 	bic.w	r3, r3, #7
 8006b66:	3308      	adds	r3, #8
 8006b68:	9303      	str	r3, [sp, #12]
 8006b6a:	9b09      	ldr	r3, [sp, #36]	@ 0x24
 8006b6c:	443b      	add	r3, r7
 8006b6e:	9309      	str	r3, [sp, #36]	@ 0x24
 8006b70:	e76a      	b.n	8006a48 <_vfiprintf_r+0x78>
 8006b72:	fb0c 3202 	mla	r2, ip, r2, r3
 8006b76:	460c      	mov	r4, r1
 8006b78:	2001      	movs	r0, #1
 8006b7a:	e7a8      	b.n	8006ace <_vfiprintf_r+0xfe>
 8006b7c:	2300      	movs	r3, #0
 8006b7e:	3401      	adds	r4, #1
 8006b80:	9305      	str	r3, [sp, #20]
 8006b82:	4619      	mov	r1, r3
 8006b84:	f04f 0c0a 	mov.w	ip, #10
 8006b88:	4620      	mov	r0, r4
 8006b8a:	f810 2b01 	ldrb.w	r2, [r0], #1
 8006b8e:	3a30      	subs	r2, #48	@ 0x30
 8006b90:	2a09      	cmp	r2, #9
 8006b92:	d903      	bls.n	8006b9c <_vfiprintf_r+0x1cc>
 8006b94:	2b00      	cmp	r3, #0
 8006b96:	d0c6      	beq.n	8006b26 <_vfiprintf_r+0x156>
 8006b98:	9105      	str	r1, [sp, #20]
 8006b9a:	e7c4      	b.n	8006b26 <_vfiprintf_r+0x156>
 8006b9c:	fb0c 2101 	mla	r1, ip, r1, r2
 8006ba0:	4604      	mov	r4, r0
 8006ba2:	2301      	movs	r3, #1
 8006ba4:	e7f0      	b.n	8006b88 <_vfiprintf_r+0x1b8>
 8006ba6:	ab03      	add	r3, sp, #12
 8006ba8:	9300      	str	r3, [sp, #0]
 8006baa:	462a      	mov	r2, r5
 8006bac:	4b13      	ldr	r3, [pc, #76]	@ (8006bfc <_vfiprintf_r+0x22c>)
 8006bae:	a904      	add	r1, sp, #16
 8006bb0:	4630      	mov	r0, r6
 8006bb2:	f3af 8000 	nop.w
 8006bb6:	4607      	mov	r7, r0
 8006bb8:	1c78      	adds	r0, r7, #1
 8006bba:	d1d6      	bne.n	8006b6a <_vfiprintf_r+0x19a>
 8006bbc:	6e6b      	ldr	r3, [r5, #100]	@ 0x64
 8006bbe:	07d9      	lsls	r1, r3, #31
 8006bc0:	d405      	bmi.n	8006bce <_vfiprintf_r+0x1fe>
 8006bc2:	89ab      	ldrh	r3, [r5, #12]
 8006bc4:	059a      	lsls	r2, r3, #22
 8006bc6:	d402      	bmi.n	8006bce <_vfiprintf_r+0x1fe>
 8006bc8:	6da8      	ldr	r0, [r5, #88]	@ 0x58
 8006bca:	f7ff fddf 	bl	800678c <__retarget_lock_release_recursive>
 8006bce:	89ab      	ldrh	r3, [r5, #12]
 8006bd0:	065b      	lsls	r3, r3, #25
 8006bd2:	f53f af1f 	bmi.w	8006a14 <_vfiprintf_r+0x44>
 8006bd6:	9809      	ldr	r0, [sp, #36]	@ 0x24
 8006bd8:	e71e      	b.n	8006a18 <_vfiprintf_r+0x48>
 8006bda:	ab03      	add	r3, sp, #12
 8006bdc:	9300      	str	r3, [sp, #0]
 8006bde:	462a      	mov	r2, r5
 8006be0:	4b06      	ldr	r3, [pc, #24]	@ (8006bfc <_vfiprintf_r+0x22c>)
 8006be2:	a904      	add	r1, sp, #16
 8006be4:	4630      	mov	r0, r6
 8006be6:	f000 f879 	bl	8006cdc <_printf_i>
 8006bea:	e7e4      	b.n	8006bb6 <_vfiprintf_r+0x1e6>
 8006bec:	08007408 	.word	0x08007408
 8006bf0:	0800740e 	.word	0x0800740e
 8006bf4:	08007412 	.word	0x08007412
 8006bf8:	00000000 	.word	0x00000000
 8006bfc:	080069ab 	.word	0x080069ab

08006c00 <_printf_common>:
 8006c00:	e92d 47f0 	stmdb	sp!, {r4, r5, r6, r7, r8, r9, sl, lr}
 8006c04:	4616      	mov	r6, r2
 8006c06:	4698      	mov	r8, r3
 8006c08:	688a      	ldr	r2, [r1, #8]
 8006c0a:	690b      	ldr	r3, [r1, #16]
 8006c0c:	f8dd 9020 	ldr.w	r9, [sp, #32]
 8006c10:	4293      	cmp	r3, r2
 8006c12:	bfb8      	it	lt
 8006c14:	4613      	movlt	r3, r2
 8006c16:	6033      	str	r3, [r6, #0]
 8006c18:	f891 2043 	ldrb.w	r2, [r1, #67]	@ 0x43
 8006c1c:	4607      	mov	r7, r0
 8006c1e:	460c      	mov	r4, r1
 8006c20:	b10a      	cbz	r2, 8006c26 <_printf_common+0x26>
 8006c22:	3301      	adds	r3, #1
 8006c24:	6033      	str	r3, [r6, #0]
 8006c26:	6823      	ldr	r3, [r4, #0]
 8006c28:	0699      	lsls	r1, r3, #26
 8006c2a:	bf42      	ittt	mi
 8006c2c:	6833      	ldrmi	r3, [r6, #0]
 8006c2e:	3302      	addmi	r3, #2
 8006c30:	6033      	strmi	r3, [r6, #0]
 8006c32:	6825      	ldr	r5, [r4, #0]
 8006c34:	f015 0506 	ands.w	r5, r5, #6
 8006c38:	d106      	bne.n	8006c48 <_printf_common+0x48>
 8006c3a:	f104 0a19 	add.w	sl, r4, #25
 8006c3e:	68e3      	ldr	r3, [r4, #12]
 8006c40:	6832      	ldr	r2, [r6, #0]
 8006c42:	1a9b      	subs	r3, r3, r2
 8006c44:	42ab      	cmp	r3, r5
 8006c46:	dc26      	bgt.n	8006c96 <_printf_common+0x96>
 8006c48:	f894 3043 	ldrb.w	r3, [r4, #67]	@ 0x43
 8006c4c:	6822      	ldr	r2, [r4, #0]
 8006c4e:	3b00      	subs	r3, #0
 8006c50:	bf18      	it	ne
 8006c52:	2301      	movne	r3, #1
 8006c54:	0692      	lsls	r2, r2, #26
 8006c56:	d42b      	bmi.n	8006cb0 <_printf_common+0xb0>
 8006c58:	f104 0243 	add.w	r2, r4, #67	@ 0x43
 8006c5c:	4641      	mov	r1, r8
 8006c5e:	4638      	mov	r0, r7
 8006c60:	47c8      	blx	r9
 8006c62:	3001      	adds	r0, #1
 8006c64:	d01e      	beq.n	8006ca4 <_printf_common+0xa4>
 8006c66:	6823      	ldr	r3, [r4, #0]
 8006c68:	6922      	ldr	r2, [r4, #16]
 8006c6a:	f003 0306 	and.w	r3, r3, #6
 8006c6e:	2b04      	cmp	r3, #4
 8006c70:	bf02      	ittt	eq
 8006c72:	68e5      	ldreq	r5, [r4, #12]
 8006c74:	6833      	ldreq	r3, [r6, #0]
 8006c76:	1aed      	subeq	r5, r5, r3
 8006c78:	68a3      	ldr	r3, [r4, #8]
 8006c7a:	bf0c      	ite	eq
 8006c7c:	ea25 75e5 	biceq.w	r5, r5, r5, asr #31
 8006c80:	2500      	movne	r5, #0
 8006c82:	4293      	cmp	r3, r2
 8006c84:	bfc4      	itt	gt
 8006c86:	1a9b      	subgt	r3, r3, r2
 8006c88:	18ed      	addgt	r5, r5, r3
 8006c8a:	2600      	movs	r6, #0
 8006c8c:	341a      	adds	r4, #26
 8006c8e:	42b5      	cmp	r5, r6
 8006c90:	d11a      	bne.n	8006cc8 <_printf_common+0xc8>
 8006c92:	2000      	movs	r0, #0
 8006c94:	e008      	b.n	8006ca8 <_printf_common+0xa8>
 8006c96:	2301      	movs	r3, #1
 8006c98:	4652      	mov	r2, sl
 8006c9a:	4641      	mov	r1, r8
 8006c9c:	4638      	mov	r0, r7
 8006c9e:	47c8      	blx	r9
 8006ca0:	3001      	adds	r0, #1
 8006ca2:	d103      	bne.n	8006cac <_printf_common+0xac>
 8006ca4:	f04f 30ff 	mov.w	r0, #4294967295	@ 0xffffffff
 8006ca8:	e8bd 87f0 	ldmia.w	sp!, {r4, r5, r6, r7, r8, r9, sl, pc}
 8006cac:	3501      	adds	r5, #1
 8006cae:	e7c6      	b.n	8006c3e <_printf_common+0x3e>
 8006cb0:	18e1      	adds	r1, r4, r3
 8006cb2:	1c5a      	adds	r2, r3, #1
 8006cb4:	2030      	movs	r0, #48	@ 0x30
 8006cb6:	f881 0043 	strb.w	r0, [r1, #67]	@ 0x43
 8006cba:	4422      	add	r2, r4
 8006cbc:	f894 1045 	ldrb.w	r1, [r4, #69]	@ 0x45
 8006cc0:	f882 1043 	strb.w	r1, [r2, #67]	@ 0x43
 8006cc4:	3302      	adds	r3, #2
 8006cc6:	e7c7      	b.n	8006c58 <_printf_common+0x58>
 8006cc8:	2301      	movs	r3, #1
 8006cca:	4622      	mov	r2, r4
 8006ccc:	4641      	mov	r1, r8
 8006cce:	4638      	mov	r0, r7
 8006cd0:	47c8      	blx	r9
 8006cd2:	3001      	adds	r0, #1
 8006cd4:	d0e6      	beq.n	8006ca4 <_printf_common+0xa4>
 8006cd6:	3601      	adds	r6, #1
 8006cd8:	e7d9      	b.n	8006c8e <_printf_common+0x8e>
	...

08006cdc <_printf_i>:
 8006cdc:	e92d 47ff 	stmdb	sp!, {r0, r1, r2, r3, r4, r5, r6, r7, r8, r9, sl, lr}
 8006ce0:	7e0f      	ldrb	r7, [r1, #24]
 8006ce2:	9e0c      	ldr	r6, [sp, #48]	@ 0x30
 8006ce4:	2f78      	cmp	r7, #120	@ 0x78
 8006ce6:	4691      	mov	r9, r2
 8006ce8:	4680      	mov	r8, r0
 8006cea:	460c      	mov	r4, r1
 8006cec:	469a      	mov	sl, r3
 8006cee:	f101 0243 	add.w	r2, r1, #67	@ 0x43
 8006cf2:	d807      	bhi.n	8006d04 <_printf_i+0x28>
 8006cf4:	2f62      	cmp	r7, #98	@ 0x62
 8006cf6:	d80a      	bhi.n	8006d0e <_printf_i+0x32>
 8006cf8:	2f00      	cmp	r7, #0
 8006cfa:	f000 80d2 	beq.w	8006ea2 <_printf_i+0x1c6>
 8006cfe:	2f58      	cmp	r7, #88	@ 0x58
 8006d00:	f000 80b9 	beq.w	8006e76 <_printf_i+0x19a>
 8006d04:	f104 0642 	add.w	r6, r4, #66	@ 0x42
 8006d08:	f884 7042 	strb.w	r7, [r4, #66]	@ 0x42
 8006d0c:	e03a      	b.n	8006d84 <_printf_i+0xa8>
 8006d0e:	f1a7 0363 	sub.w	r3, r7, #99	@ 0x63
 8006d12:	2b15      	cmp	r3, #21
 8006d14:	d8f6      	bhi.n	8006d04 <_printf_i+0x28>
 8006d16:	a101      	add	r1, pc, #4	@ (adr r1, 8006d1c <_printf_i+0x40>)
 8006d18:	f851 f023 	ldr.w	pc, [r1, r3, lsl #2]
 8006d1c:	08006d75 	.word	0x08006d75
 8006d20:	08006d89 	.word	0x08006d89
 8006d24:	08006d05 	.word	0x08006d05
 8006d28:	08006d05 	.word	0x08006d05
 8006d2c:	08006d05 	.word	0x08006d05
 8006d30:	08006d05 	.word	0x08006d05
 8006d34:	08006d89 	.word	0x08006d89
 8006d38:	08006d05 	.word	0x08006d05
 8006d3c:	08006d05 	.word	0x08006d05
 8006d40:	08006d05 	.word	0x08006d05
 8006d44:	08006d05 	.word	0x08006d05
 8006d48:	08006e89 	.word	0x08006e89
 8006d4c:	08006db3 	.word	0x08006db3
 8006d50:	08006e43 	.word	0x08006e43
 8006d54:	08006d05 	.word	0x08006d05
 8006d58:	08006d05 	.word	0x08006d05
 8006d5c:	08006eab 	.word	0x08006eab
 8006d60:	08006d05 	.word	0x08006d05
 8006d64:	08006db3 	.word	0x08006db3
 8006d68:	08006d05 	.word	0x08006d05
 8006d6c:	08006d05 	.word	0x08006d05
 8006d70:	08006e4b 	.word	0x08006e4b
 8006d74:	6833      	ldr	r3, [r6, #0]
 8006d76:	1d1a      	adds	r2, r3, #4
 8006d78:	681b      	ldr	r3, [r3, #0]
 8006d7a:	6032      	str	r2, [r6, #0]
 8006d7c:	f104 0642 	add.w	r6, r4, #66	@ 0x42
 8006d80:	f884 3042 	strb.w	r3, [r4, #66]	@ 0x42
 8006d84:	2301      	movs	r3, #1
 8006d86:	e09d      	b.n	8006ec4 <_printf_i+0x1e8>
 8006d88:	6833      	ldr	r3, [r6, #0]
 8006d8a:	6820      	ldr	r0, [r4, #0]
 8006d8c:	1d19      	adds	r1, r3, #4
 8006d8e:	6031      	str	r1, [r6, #0]
 8006d90:	0606      	lsls	r6, r0, #24
 8006d92:	d501      	bpl.n	8006d98 <_printf_i+0xbc>
 8006d94:	681d      	ldr	r5, [r3, #0]
 8006d96:	e003      	b.n	8006da0 <_printf_i+0xc4>
 8006d98:	0645      	lsls	r5, r0, #25
 8006d9a:	d5fb      	bpl.n	8006d94 <_printf_i+0xb8>
 8006d9c:	f9b3 5000 	ldrsh.w	r5, [r3]
 8006da0:	2d00      	cmp	r5, #0
 8006da2:	da03      	bge.n	8006dac <_printf_i+0xd0>
 8006da4:	232d      	movs	r3, #45	@ 0x2d
 8006da6:	426d      	negs	r5, r5
 8006da8:	f884 3043 	strb.w	r3, [r4, #67]	@ 0x43
 8006dac:	4859      	ldr	r0, [pc, #356]	@ (8006f14 <_printf_i+0x238>)
 8006dae:	230a      	movs	r3, #10
 8006db0:	e011      	b.n	8006dd6 <_printf_i+0xfa>
 8006db2:	6821      	ldr	r1, [r4, #0]
 8006db4:	6833      	ldr	r3, [r6, #0]
 8006db6:	0608      	lsls	r0, r1, #24
 8006db8:	f853 5b04 	ldr.w	r5, [r3], #4
 8006dbc:	d402      	bmi.n	8006dc4 <_printf_i+0xe8>
 8006dbe:	0649      	lsls	r1, r1, #25
 8006dc0:	bf48      	it	mi
 8006dc2:	b2ad      	uxthmi	r5, r5
 8006dc4:	2f6f      	cmp	r7, #111	@ 0x6f
 8006dc6:	4853      	ldr	r0, [pc, #332]	@ (8006f14 <_printf_i+0x238>)
 8006dc8:	6033      	str	r3, [r6, #0]
 8006dca:	bf14      	ite	ne
 8006dcc:	230a      	movne	r3, #10
 8006dce:	2308      	moveq	r3, #8
 8006dd0:	2100      	movs	r1, #0
 8006dd2:	f884 1043 	strb.w	r1, [r4, #67]	@ 0x43
 8006dd6:	6866      	ldr	r6, [r4, #4]
 8006dd8:	60a6      	str	r6, [r4, #8]
 8006dda:	2e00      	cmp	r6, #0
 8006ddc:	bfa2      	ittt	ge
 8006dde:	6821      	ldrge	r1, [r4, #0]
 8006de0:	f021 0104 	bicge.w	r1, r1, #4
 8006de4:	6021      	strge	r1, [r4, #0]
 8006de6:	b90d      	cbnz	r5, 8006dec <_printf_i+0x110>
 8006de8:	2e00      	cmp	r6, #0
 8006dea:	d04b      	beq.n	8006e84 <_printf_i+0x1a8>
 8006dec:	4616      	mov	r6, r2
 8006dee:	fbb5 f1f3 	udiv	r1, r5, r3
 8006df2:	fb03 5711 	mls	r7, r3, r1, r5
 8006df6:	5dc7      	ldrb	r7, [r0, r7]
 8006df8:	f806 7d01 	strb.w	r7, [r6, #-1]!
 8006dfc:	462f      	mov	r7, r5
 8006dfe:	42bb      	cmp	r3, r7
 8006e00:	460d      	mov	r5, r1
 8006e02:	d9f4      	bls.n	8006dee <_printf_i+0x112>
 8006e04:	2b08      	cmp	r3, #8
 8006e06:	d10b      	bne.n	8006e20 <_printf_i+0x144>
 8006e08:	6823      	ldr	r3, [r4, #0]
 8006e0a:	07df      	lsls	r7, r3, #31
 8006e0c:	d508      	bpl.n	8006e20 <_printf_i+0x144>
 8006e0e:	6923      	ldr	r3, [r4, #16]
 8006e10:	6861      	ldr	r1, [r4, #4]
 8006e12:	4299      	cmp	r1, r3
 8006e14:	bfde      	ittt	le
 8006e16:	2330      	movle	r3, #48	@ 0x30
 8006e18:	f806 3c01 	strble.w	r3, [r6, #-1]
 8006e1c:	f106 36ff 	addle.w	r6, r6, #4294967295	@ 0xffffffff
 8006e20:	1b92      	subs	r2, r2, r6
 8006e22:	6122      	str	r2, [r4, #16]
 8006e24:	f8cd a000 	str.w	sl, [sp]
 8006e28:	464b      	mov	r3, r9
 8006e2a:	aa03      	add	r2, sp, #12
 8006e2c:	4621      	mov	r1, r4
 8006e2e:	4640      	mov	r0, r8
 8006e30:	f7ff fee6 	bl	8006c00 <_printf_common>
 8006e34:	3001      	adds	r0, #1
 8006e36:	d14a      	bne.n	8006ece <_printf_i+0x1f2>
 8006e38:	f04f 30ff 	mov.w	r0, #4294967295	@ 0xffffffff
 8006e3c:	b004      	add	sp, #16
 8006e3e:	e8bd 87f0 	ldmia.w	sp!, {r4, r5, r6, r7, r8, r9, sl, pc}
 8006e42:	6823      	ldr	r3, [r4, #0]
 8006e44:	f043 0320 	orr.w	r3, r3, #32
 8006e48:	6023      	str	r3, [r4, #0]
 8006e4a:	4833      	ldr	r0, [pc, #204]	@ (8006f18 <_printf_i+0x23c>)
 8006e4c:	2778      	movs	r7, #120	@ 0x78
 8006e4e:	f884 7045 	strb.w	r7, [r4, #69]	@ 0x45
 8006e52:	6823      	ldr	r3, [r4, #0]
 8006e54:	6831      	ldr	r1, [r6, #0]
 8006e56:	061f      	lsls	r7, r3, #24
 8006e58:	f851 5b04 	ldr.w	r5, [r1], #4
 8006e5c:	d402      	bmi.n	8006e64 <_printf_i+0x188>
 8006e5e:	065f      	lsls	r7, r3, #25
 8006e60:	bf48      	it	mi
 8006e62:	b2ad      	uxthmi	r5, r5
 8006e64:	6031      	str	r1, [r6, #0]
 8006e66:	07d9      	lsls	r1, r3, #31
 8006e68:	bf44      	itt	mi
 8006e6a:	f043 0320 	orrmi.w	r3, r3, #32
 8006e6e:	6023      	strmi	r3, [r4, #0]
 8006e70:	b11d      	cbz	r5, 8006e7a <_printf_i+0x19e>
 8006e72:	2310      	movs	r3, #16
 8006e74:	e7ac      	b.n	8006dd0 <_printf_i+0xf4>
 8006e76:	4827      	ldr	r0, [pc, #156]	@ (8006f14 <_printf_i+0x238>)
 8006e78:	e7e9      	b.n	8006e4e <_printf_i+0x172>
 8006e7a:	6823      	ldr	r3, [r4, #0]
 8006e7c:	f023 0320 	bic.w	r3, r3, #32
 8006e80:	6023      	str	r3, [r4, #0]
 8006e82:	e7f6      	b.n	8006e72 <_printf_i+0x196>
 8006e84:	4616      	mov	r6, r2
 8006e86:	e7bd      	b.n	8006e04 <_printf_i+0x128>
 8006e88:	6833      	ldr	r3, [r6, #0]
 8006e8a:	6825      	ldr	r5, [r4, #0]
 8006e8c:	6961      	ldr	r1, [r4, #20]
 8006e8e:	1d18      	adds	r0, r3, #4
 8006e90:	6030      	str	r0, [r6, #0]
 8006e92:	062e      	lsls	r6, r5, #24
 8006e94:	681b      	ldr	r3, [r3, #0]
 8006e96:	d501      	bpl.n	8006e9c <_printf_i+0x1c0>
 8006e98:	6019      	str	r1, [r3, #0]
 8006e9a:	e002      	b.n	8006ea2 <_printf_i+0x1c6>
 8006e9c:	0668      	lsls	r0, r5, #25
 8006e9e:	d5fb      	bpl.n	8006e98 <_printf_i+0x1bc>
 8006ea0:	8019      	strh	r1, [r3, #0]
 8006ea2:	2300      	movs	r3, #0
 8006ea4:	6123      	str	r3, [r4, #16]
 8006ea6:	4616      	mov	r6, r2
 8006ea8:	e7bc      	b.n	8006e24 <_printf_i+0x148>
 8006eaa:	6833      	ldr	r3, [r6, #0]
 8006eac:	1d1a      	adds	r2, r3, #4
 8006eae:	6032      	str	r2, [r6, #0]
 8006eb0:	681e      	ldr	r6, [r3, #0]
 8006eb2:	6862      	ldr	r2, [r4, #4]
 8006eb4:	2100      	movs	r1, #0
 8006eb6:	4630      	mov	r0, r6
 8006eb8:	f7f9 f962 	bl	8000180 <memchr>
 8006ebc:	b108      	cbz	r0, 8006ec2 <_printf_i+0x1e6>
 8006ebe:	1b80      	subs	r0, r0, r6
 8006ec0:	6060      	str	r0, [r4, #4]
 8006ec2:	6863      	ldr	r3, [r4, #4]
 8006ec4:	6123      	str	r3, [r4, #16]
 8006ec6:	2300      	movs	r3, #0
 8006ec8:	f884 3043 	strb.w	r3, [r4, #67]	@ 0x43
 8006ecc:	e7aa      	b.n	8006e24 <_printf_i+0x148>
 8006ece:	6923      	ldr	r3, [r4, #16]
 8006ed0:	4632      	mov	r2, r6
 8006ed2:	4649      	mov	r1, r9
 8006ed4:	4640      	mov	r0, r8
 8006ed6:	47d0      	blx	sl
 8006ed8:	3001      	adds	r0, #1
 8006eda:	d0ad      	beq.n	8006e38 <_printf_i+0x15c>
 8006edc:	6823      	ldr	r3, [r4, #0]
 8006ede:	079b      	lsls	r3, r3, #30
 8006ee0:	d413      	bmi.n	8006f0a <_printf_i+0x22e>
 8006ee2:	68e0      	ldr	r0, [r4, #12]
 8006ee4:	9b03      	ldr	r3, [sp, #12]
 8006ee6:	4298      	cmp	r0, r3
 8006ee8:	bfb8      	it	lt
 8006eea:	4618      	movlt	r0, r3
 8006eec:	e7a6      	b.n	8006e3c <_printf_i+0x160>
 8006eee:	2301      	movs	r3, #1
 8006ef0:	4632      	mov	r2, r6
 8006ef2:	4649      	mov	r1, r9
 8006ef4:	4640      	mov	r0, r8
 8006ef6:	47d0      	blx	sl
 8006ef8:	3001      	adds	r0, #1
 8006efa:	d09d      	beq.n	8006e38 <_printf_i+0x15c>
 8006efc:	3501      	adds	r5, #1
 8006efe:	68e3      	ldr	r3, [r4, #12]
 8006f00:	9903      	ldr	r1, [sp, #12]
 8006f02:	1a5b      	subs	r3, r3, r1
 8006f04:	42ab      	cmp	r3, r5
 8006f06:	dcf2      	bgt.n	8006eee <_printf_i+0x212>
 8006f08:	e7eb      	b.n	8006ee2 <_printf_i+0x206>
 8006f0a:	2500      	movs	r5, #0
 8006f0c:	f104 0619 	add.w	r6, r4, #25
 8006f10:	e7f5      	b.n	8006efe <_printf_i+0x222>
 8006f12:	bf00      	nop
 8006f14:	08007419 	.word	0x08007419
 8006f18:	0800742a 	.word	0x0800742a

08006f1c <__sflush_r>:
 8006f1c:	f9b1 200c 	ldrsh.w	r2, [r1, #12]
 8006f20:	b5f8      	push	{r3, r4, r5, r6, r7, lr}
 8006f22:	0716      	lsls	r6, r2, #28
 8006f24:	4605      	mov	r5, r0
 8006f26:	460c      	mov	r4, r1
 8006f28:	d454      	bmi.n	8006fd4 <__sflush_r+0xb8>
 8006f2a:	684b      	ldr	r3, [r1, #4]
 8006f2c:	2b00      	cmp	r3, #0
 8006f2e:	dc02      	bgt.n	8006f36 <__sflush_r+0x1a>
 8006f30:	6c0b      	ldr	r3, [r1, #64]	@ 0x40
 8006f32:	2b00      	cmp	r3, #0
 8006f34:	dd48      	ble.n	8006fc8 <__sflush_r+0xac>
 8006f36:	6ae6      	ldr	r6, [r4, #44]	@ 0x2c
 8006f38:	2e00      	cmp	r6, #0
 8006f3a:	d045      	beq.n	8006fc8 <__sflush_r+0xac>
 8006f3c:	2300      	movs	r3, #0
 8006f3e:	f412 5280 	ands.w	r2, r2, #4096	@ 0x1000
 8006f42:	682f      	ldr	r7, [r5, #0]
 8006f44:	6a21      	ldr	r1, [r4, #32]
 8006f46:	602b      	str	r3, [r5, #0]
 8006f48:	d030      	beq.n	8006fac <__sflush_r+0x90>
 8006f4a:	6d62      	ldr	r2, [r4, #84]	@ 0x54
 8006f4c:	89a3      	ldrh	r3, [r4, #12]
 8006f4e:	0759      	lsls	r1, r3, #29
 8006f50:	d505      	bpl.n	8006f5e <__sflush_r+0x42>
 8006f52:	6863      	ldr	r3, [r4, #4]
 8006f54:	1ad2      	subs	r2, r2, r3
 8006f56:	6b63      	ldr	r3, [r4, #52]	@ 0x34
 8006f58:	b10b      	cbz	r3, 8006f5e <__sflush_r+0x42>
 8006f5a:	6c23      	ldr	r3, [r4, #64]	@ 0x40
 8006f5c:	1ad2      	subs	r2, r2, r3
 8006f5e:	2300      	movs	r3, #0
 8006f60:	6ae6      	ldr	r6, [r4, #44]	@ 0x2c
 8006f62:	6a21      	ldr	r1, [r4, #32]
 8006f64:	4628      	mov	r0, r5
 8006f66:	47b0      	blx	r6
 8006f68:	1c43      	adds	r3, r0, #1
 8006f6a:	89a3      	ldrh	r3, [r4, #12]
 8006f6c:	d106      	bne.n	8006f7c <__sflush_r+0x60>
 8006f6e:	6829      	ldr	r1, [r5, #0]
 8006f70:	291d      	cmp	r1, #29
 8006f72:	d82b      	bhi.n	8006fcc <__sflush_r+0xb0>
 8006f74:	4a28      	ldr	r2, [pc, #160]	@ (8007018 <__sflush_r+0xfc>)
 8006f76:	410a      	asrs	r2, r1
 8006f78:	07d6      	lsls	r6, r2, #31
 8006f7a:	d427      	bmi.n	8006fcc <__sflush_r+0xb0>
 8006f7c:	2200      	movs	r2, #0
 8006f7e:	6062      	str	r2, [r4, #4]
 8006f80:	04d9      	lsls	r1, r3, #19
 8006f82:	6922      	ldr	r2, [r4, #16]
 8006f84:	6022      	str	r2, [r4, #0]
 8006f86:	d504      	bpl.n	8006f92 <__sflush_r+0x76>
 8006f88:	1c42      	adds	r2, r0, #1
 8006f8a:	d101      	bne.n	8006f90 <__sflush_r+0x74>
 8006f8c:	682b      	ldr	r3, [r5, #0]
 8006f8e:	b903      	cbnz	r3, 8006f92 <__sflush_r+0x76>
 8006f90:	6560      	str	r0, [r4, #84]	@ 0x54
 8006f92:	6b61      	ldr	r1, [r4, #52]	@ 0x34
 8006f94:	602f      	str	r7, [r5, #0]
 8006f96:	b1b9      	cbz	r1, 8006fc8 <__sflush_r+0xac>
 8006f98:	f104 0344 	add.w	r3, r4, #68	@ 0x44
 8006f9c:	4299      	cmp	r1, r3
 8006f9e:	d002      	beq.n	8006fa6 <__sflush_r+0x8a>
 8006fa0:	4628      	mov	r0, r5
 8006fa2:	f7ff fbf5 	bl	8006790 <_free_r>
 8006fa6:	2300      	movs	r3, #0
 8006fa8:	6363      	str	r3, [r4, #52]	@ 0x34
 8006faa:	e00d      	b.n	8006fc8 <__sflush_r+0xac>
 8006fac:	2301      	movs	r3, #1
 8006fae:	4628      	mov	r0, r5
 8006fb0:	47b0      	blx	r6
 8006fb2:	4602      	mov	r2, r0
 8006fb4:	1c50      	adds	r0, r2, #1
 8006fb6:	d1c9      	bne.n	8006f4c <__sflush_r+0x30>
 8006fb8:	682b      	ldr	r3, [r5, #0]
 8006fba:	2b00      	cmp	r3, #0
 8006fbc:	d0c6      	beq.n	8006f4c <__sflush_r+0x30>
 8006fbe:	2b1d      	cmp	r3, #29
 8006fc0:	d001      	beq.n	8006fc6 <__sflush_r+0xaa>
 8006fc2:	2b16      	cmp	r3, #22
 8006fc4:	d11d      	bne.n	8007002 <__sflush_r+0xe6>
 8006fc6:	602f      	str	r7, [r5, #0]
 8006fc8:	2000      	movs	r0, #0
 8006fca:	e021      	b.n	8007010 <__sflush_r+0xf4>
 8006fcc:	f043 0340 	orr.w	r3, r3, #64	@ 0x40
 8006fd0:	b21b      	sxth	r3, r3
 8006fd2:	e01a      	b.n	800700a <__sflush_r+0xee>
 8006fd4:	690f      	ldr	r7, [r1, #16]
 8006fd6:	2f00      	cmp	r7, #0
 8006fd8:	d0f6      	beq.n	8006fc8 <__sflush_r+0xac>
 8006fda:	0793      	lsls	r3, r2, #30
 8006fdc:	680e      	ldr	r6, [r1, #0]
 8006fde:	bf08      	it	eq
 8006fe0:	694b      	ldreq	r3, [r1, #20]
 8006fe2:	600f      	str	r7, [r1, #0]
 8006fe4:	bf18      	it	ne
 8006fe6:	2300      	movne	r3, #0
 8006fe8:	1bf6      	subs	r6, r6, r7
 8006fea:	608b      	str	r3, [r1, #8]
 8006fec:	2e00      	cmp	r6, #0
 8006fee:	ddeb      	ble.n	8006fc8 <__sflush_r+0xac>
 8006ff0:	6a21      	ldr	r1, [r4, #32]
 8006ff2:	f8d4 c028 	ldr.w	ip, [r4, #40]	@ 0x28
 8006ff6:	4633      	mov	r3, r6
 8006ff8:	463a      	mov	r2, r7
 8006ffa:	4628      	mov	r0, r5
 8006ffc:	47e0      	blx	ip
 8006ffe:	2800      	cmp	r0, #0
 8007000:	dc07      	bgt.n	8007012 <__sflush_r+0xf6>
 8007002:	f9b4 300c 	ldrsh.w	r3, [r4, #12]
 8007006:	f043 0340 	orr.w	r3, r3, #64	@ 0x40
 800700a:	81a3      	strh	r3, [r4, #12]
 800700c:	f04f 30ff 	mov.w	r0, #4294967295	@ 0xffffffff
 8007010:	bdf8      	pop	{r3, r4, r5, r6, r7, pc}
 8007012:	4407      	add	r7, r0
 8007014:	1a36      	subs	r6, r6, r0
 8007016:	e7e9      	b.n	8006fec <__sflush_r+0xd0>
 8007018:	dfbffffe 	.word	0xdfbffffe

0800701c <_fflush_r>:
 800701c:	b538      	push	{r3, r4, r5, lr}
 800701e:	690b      	ldr	r3, [r1, #16]
 8007020:	4605      	mov	r5, r0
 8007022:	460c      	mov	r4, r1
 8007024:	b913      	cbnz	r3, 800702c <_fflush_r+0x10>
 8007026:	2500      	movs	r5, #0
 8007028:	4628      	mov	r0, r5
 800702a:	bd38      	pop	{r3, r4, r5, pc}
 800702c:	b118      	cbz	r0, 8007036 <_fflush_r+0x1a>
 800702e:	6a03      	ldr	r3, [r0, #32]
 8007030:	b90b      	cbnz	r3, 8007036 <_fflush_r+0x1a>
 8007032:	f7ff f9b3 	bl	800639c <__sinit>
 8007036:	f9b4 300c 	ldrsh.w	r3, [r4, #12]
 800703a:	2b00      	cmp	r3, #0
 800703c:	d0f3      	beq.n	8007026 <_fflush_r+0xa>
 800703e:	6e62      	ldr	r2, [r4, #100]	@ 0x64
 8007040:	07d0      	lsls	r0, r2, #31
 8007042:	d404      	bmi.n	800704e <_fflush_r+0x32>
 8007044:	0599      	lsls	r1, r3, #22
 8007046:	d402      	bmi.n	800704e <_fflush_r+0x32>
 8007048:	6da0      	ldr	r0, [r4, #88]	@ 0x58
 800704a:	f7ff fb9e 	bl	800678a <__retarget_lock_acquire_recursive>
 800704e:	4628      	mov	r0, r5
 8007050:	4621      	mov	r1, r4
 8007052:	f7ff ff63 	bl	8006f1c <__sflush_r>
 8007056:	6e63      	ldr	r3, [r4, #100]	@ 0x64
 8007058:	07da      	lsls	r2, r3, #31
 800705a:	4605      	mov	r5, r0
 800705c:	d4e4      	bmi.n	8007028 <_fflush_r+0xc>
 800705e:	89a3      	ldrh	r3, [r4, #12]
 8007060:	059b      	lsls	r3, r3, #22
 8007062:	d4e1      	bmi.n	8007028 <_fflush_r+0xc>
 8007064:	6da0      	ldr	r0, [r4, #88]	@ 0x58
 8007066:	f7ff fb91 	bl	800678c <__retarget_lock_release_recursive>
 800706a:	e7dd      	b.n	8007028 <_fflush_r+0xc>

0800706c <__swhatbuf_r>:
 800706c:	b570      	push	{r4, r5, r6, lr}
 800706e:	460c      	mov	r4, r1
 8007070:	f9b1 100e 	ldrsh.w	r1, [r1, #14]
 8007074:	2900      	cmp	r1, #0
 8007076:	b096      	sub	sp, #88	@ 0x58
 8007078:	4615      	mov	r5, r2
 800707a:	461e      	mov	r6, r3
 800707c:	da0d      	bge.n	800709a <__swhatbuf_r+0x2e>
 800707e:	89a3      	ldrh	r3, [r4, #12]
 8007080:	f013 0f80 	tst.w	r3, #128	@ 0x80
 8007084:	f04f 0100 	mov.w	r1, #0
 8007088:	bf14      	ite	ne
 800708a:	2340      	movne	r3, #64	@ 0x40
 800708c:	f44f 6380 	moveq.w	r3, #1024	@ 0x400
 8007090:	2000      	movs	r0, #0
 8007092:	6031      	str	r1, [r6, #0]
 8007094:	602b      	str	r3, [r5, #0]
 8007096:	b016      	add	sp, #88	@ 0x58
 8007098:	bd70      	pop	{r4, r5, r6, pc}
 800709a:	466a      	mov	r2, sp
 800709c:	f000 f848 	bl	8007130 <_fstat_r>
 80070a0:	2800      	cmp	r0, #0
 80070a2:	dbec      	blt.n	800707e <__swhatbuf_r+0x12>
 80070a4:	9901      	ldr	r1, [sp, #4]
 80070a6:	f401 4170 	and.w	r1, r1, #61440	@ 0xf000
 80070aa:	f5a1 5300 	sub.w	r3, r1, #8192	@ 0x2000
 80070ae:	4259      	negs	r1, r3
 80070b0:	4159      	adcs	r1, r3
 80070b2:	f44f 6380 	mov.w	r3, #1024	@ 0x400
 80070b6:	e7eb      	b.n	8007090 <__swhatbuf_r+0x24>

080070b8 <__smakebuf_r>:
 80070b8:	898b      	ldrh	r3, [r1, #12]
 80070ba:	b5f7      	push	{r0, r1, r2, r4, r5, r6, r7, lr}
 80070bc:	079d      	lsls	r5, r3, #30
 80070be:	4606      	mov	r6, r0
 80070c0:	460c      	mov	r4, r1
 80070c2:	d507      	bpl.n	80070d4 <__smakebuf_r+0x1c>
 80070c4:	f104 0347 	add.w	r3, r4, #71	@ 0x47
 80070c8:	6023      	str	r3, [r4, #0]
 80070ca:	6123      	str	r3, [r4, #16]
 80070cc:	2301      	movs	r3, #1
 80070ce:	6163      	str	r3, [r4, #20]
 80070d0:	b003      	add	sp, #12
 80070d2:	bdf0      	pop	{r4, r5, r6, r7, pc}
 80070d4:	ab01      	add	r3, sp, #4
 80070d6:	466a      	mov	r2, sp
 80070d8:	f7ff ffc8 	bl	800706c <__swhatbuf_r>
 80070dc:	9f00      	ldr	r7, [sp, #0]
 80070de:	4605      	mov	r5, r0
 80070e0:	4639      	mov	r1, r7
 80070e2:	4630      	mov	r0, r6
 80070e4:	f7ff fbc0 	bl	8006868 <_malloc_r>
 80070e8:	b948      	cbnz	r0, 80070fe <__smakebuf_r+0x46>
 80070ea:	f9b4 300c 	ldrsh.w	r3, [r4, #12]
 80070ee:	059a      	lsls	r2, r3, #22
 80070f0:	d4ee      	bmi.n	80070d0 <__smakebuf_r+0x18>
 80070f2:	f023 0303 	bic.w	r3, r3, #3
 80070f6:	f043 0302 	orr.w	r3, r3, #2
 80070fa:	81a3      	strh	r3, [r4, #12]
 80070fc:	e7e2      	b.n	80070c4 <__smakebuf_r+0xc>
 80070fe:	89a3      	ldrh	r3, [r4, #12]
 8007100:	6020      	str	r0, [r4, #0]
 8007102:	f043 0380 	orr.w	r3, r3, #128	@ 0x80
 8007106:	81a3      	strh	r3, [r4, #12]
 8007108:	9b01      	ldr	r3, [sp, #4]
 800710a:	e9c4 0704 	strd	r0, r7, [r4, #16]
 800710e:	b15b      	cbz	r3, 8007128 <__smakebuf_r+0x70>
 8007110:	f9b4 100e 	ldrsh.w	r1, [r4, #14]
 8007114:	4630      	mov	r0, r6
 8007116:	f000 f81d 	bl	8007154 <_isatty_r>
 800711a:	b128      	cbz	r0, 8007128 <__smakebuf_r+0x70>
 800711c:	89a3      	ldrh	r3, [r4, #12]
 800711e:	f023 0303 	bic.w	r3, r3, #3
 8007122:	f043 0301 	orr.w	r3, r3, #1
 8007126:	81a3      	strh	r3, [r4, #12]
 8007128:	89a3      	ldrh	r3, [r4, #12]
 800712a:	431d      	orrs	r5, r3
 800712c:	81a5      	strh	r5, [r4, #12]
 800712e:	e7cf      	b.n	80070d0 <__smakebuf_r+0x18>

08007130 <_fstat_r>:
 8007130:	b538      	push	{r3, r4, r5, lr}
 8007132:	4d07      	ldr	r5, [pc, #28]	@ (8007150 <_fstat_r+0x20>)
 8007134:	2300      	movs	r3, #0
 8007136:	4604      	mov	r4, r0
 8007138:	4608      	mov	r0, r1
 800713a:	4611      	mov	r1, r2
 800713c:	602b      	str	r3, [r5, #0]
 800713e:	f7f9 fb61 	bl	8000804 <_fstat>
 8007142:	1c43      	adds	r3, r0, #1
 8007144:	d102      	bne.n	800714c <_fstat_r+0x1c>
 8007146:	682b      	ldr	r3, [r5, #0]
 8007148:	b103      	cbz	r3, 800714c <_fstat_r+0x1c>
 800714a:	6023      	str	r3, [r4, #0]
 800714c:	bd38      	pop	{r3, r4, r5, pc}
 800714e:	bf00      	nop
 8007150:	200003d4 	.word	0x200003d4

08007154 <_isatty_r>:
 8007154:	b538      	push	{r3, r4, r5, lr}
 8007156:	4d06      	ldr	r5, [pc, #24]	@ (8007170 <_isatty_r+0x1c>)
 8007158:	2300      	movs	r3, #0
 800715a:	4604      	mov	r4, r0
 800715c:	4608      	mov	r0, r1
 800715e:	602b      	str	r3, [r5, #0]
 8007160:	f7f9 fb5f 	bl	8000822 <_isatty>
 8007164:	1c43      	adds	r3, r0, #1
 8007166:	d102      	bne.n	800716e <_isatty_r+0x1a>
 8007168:	682b      	ldr	r3, [r5, #0]
 800716a:	b103      	cbz	r3, 800716e <_isatty_r+0x1a>
 800716c:	6023      	str	r3, [r4, #0]
 800716e:	bd38      	pop	{r3, r4, r5, pc}
 8007170:	200003d4 	.word	0x200003d4

08007174 <_sbrk_r>:
 8007174:	b538      	push	{r3, r4, r5, lr}
 8007176:	4d06      	ldr	r5, [pc, #24]	@ (8007190 <_sbrk_r+0x1c>)
 8007178:	2300      	movs	r3, #0
 800717a:	4604      	mov	r4, r0
 800717c:	4608      	mov	r0, r1
 800717e:	602b      	str	r3, [r5, #0]
 8007180:	f7f9 fb66 	bl	8000850 <_sbrk>
 8007184:	1c43      	adds	r3, r0, #1
 8007186:	d102      	bne.n	800718e <_sbrk_r+0x1a>
 8007188:	682b      	ldr	r3, [r5, #0]
 800718a:	b103      	cbz	r3, 800718e <_sbrk_r+0x1a>
 800718c:	6023      	str	r3, [r4, #0]
 800718e:	bd38      	pop	{r3, r4, r5, pc}
 8007190:	200003d4 	.word	0x200003d4

08007194 <_init>:
 8007194:	b5f8      	push	{r3, r4, r5, r6, r7, lr}
 8007196:	bf00      	nop
 8007198:	bcf8      	pop	{r3, r4, r5, r6, r7}
 800719a:	bc08      	pop	{r3}
 800719c:	469e      	mov	lr, r3
 800719e:	4770      	bx	lr

080071a0 <_fini>:
 80071a0:	b5f8      	push	{r3, r4, r5, r6, r7, lr}
 80071a2:	bf00      	nop
 80071a4:	bcf8      	pop	{r3, r4, r5, r6, r7}
 80071a6:	bc08      	pop	{r3}
 80071a8:	469e      	mov	lr, r3
 80071aa:	4770      	bx	lr
